	.module TFT.c
	.area text(rom, con, rel)
	.dbfile E:\DMAVR-~3\TFTTEST\TFT.c
	.area data(ram, con, rel)
	.dbfile E:\DMAVR-~3\TFTTEST\TFT.c
_ascii::
	.blkb 2
	.area idata
	.byte 0,0
	.area data(ram, con, rel)
	.dbfile E:\DMAVR-~3\TFTTEST\TFT.c
	.blkb 2
	.area idata
	.byte 0,0
	.area data(ram, con, rel)
	.dbfile E:\DMAVR-~3\TFTTEST\TFT.c
	.blkb 2
	.area idata
	.byte 0,0
	.area data(ram, con, rel)
	.dbfile E:\DMAVR-~3\TFTTEST\TFT.c
	.blkb 2
	.area idata
	.byte 0,0
	.area data(ram, con, rel)
	.dbfile E:\DMAVR-~3\TFTTEST\TFT.c
	.blkb 2
	.area idata
	.byte 0,0
	.area data(ram, con, rel)
	.dbfile E:\DMAVR-~3\TFTTEST\TFT.c
	.blkb 2
	.area idata
	.byte 0,0
	.area data(ram, con, rel)
	.dbfile E:\DMAVR-~3\TFTTEST\TFT.c
	.blkb 2
	.area idata
	.byte 0,0
	.area data(ram, con, rel)
	.dbfile E:\DMAVR-~3\TFTTEST\TFT.c
	.blkb 2
	.area idata
	.byte 0,0
	.area data(ram, con, rel)
	.dbfile E:\DMAVR-~3\TFTTEST\TFT.c
	.blkb 2
	.area idata
	.byte 0,0
	.area data(ram, con, rel)
	.dbfile E:\DMAVR-~3\TFTTEST\TFT.c
	.blkb 2
	.area idata
	.byte 0,0
	.area data(ram, con, rel)
	.dbfile E:\DMAVR-~3\TFTTEST\TFT.c
	.blkb 2
	.area idata
	.byte 0,0
	.area data(ram, con, rel)
	.dbfile E:\DMAVR-~3\TFTTEST\TFT.c
	.blkb 2
	.area idata
	.byte 0,15
	.area data(ram, con, rel)
	.dbfile E:\DMAVR-~3\TFTTEST\TFT.c
	.blkb 2
	.area idata
	.byte 8,8
	.area data(ram, con, rel)
	.dbfile E:\DMAVR-~3\TFTTEST\TFT.c
	.blkb 2
	.area idata
	.byte 8,8
	.area data(ram, con, rel)
	.dbfile E:\DMAVR-~3\TFTTEST\TFT.c
	.blkb 2
	.area idata
	.byte 8,8
	.area data(ram, con, rel)
	.dbfile E:\DMAVR-~3\TFTTEST\TFT.c
	.blkb 2
	.area idata
	.byte 8,0
	.area data(ram, con, rel)
	.dbfile E:\DMAVR-~3\TFTTEST\TFT.c
	.blkb 2
	.area idata
	.byte 0,0
	.area data(ram, con, rel)
	.dbfile E:\DMAVR-~3\TFTTEST\TFT.c
	.blkb 2
	.area idata
	.byte 0,0
	.area data(ram, con, rel)
	.dbfile E:\DMAVR-~3\TFTTEST\TFT.c
	.blkb 2
	.area idata
	.byte 0,0
	.area data(ram, con, rel)
	.dbfile E:\DMAVR-~3\TFTTEST\TFT.c
	.blkb 2
	.area idata
	.byte 0,248
	.area data(ram, con, rel)
	.dbfile E:\DMAVR-~3\TFTTEST\TFT.c
	.blkb 2
	.area idata
	.byte 8,8
	.area data(ram, con, rel)
	.dbfile E:\DMAVR-~3\TFTTEST\TFT.c
	.blkb 2
	.area idata
	.byte 8,8
	.area data(ram, con, rel)
	.dbfile E:\DMAVR-~3\TFTTEST\TFT.c
	.blkb 2
	.area idata
	.byte 8,8
	.area data(ram, con, rel)
	.dbfile E:\DMAVR-~3\TFTTEST\TFT.c
	.blkb 2
	.area idata
	.byte 8,0
	.area data(ram, con, rel)
	.dbfile E:\DMAVR-~3\TFTTEST\TFT.c
	.blkb 2
	.area idata
	.byte 8,8
	.area data(ram, con, rel)
	.dbfile E:\DMAVR-~3\TFTTEST\TFT.c
	.blkb 2
	.area idata
	.byte 8,8
	.area data(ram, con, rel)
	.dbfile E:\DMAVR-~3\TFTTEST\TFT.c
	.blkb 2
	.area idata
	.byte 8,8
	.area data(ram, con, rel)
	.dbfile E:\DMAVR-~3\TFTTEST\TFT.c
	.blkb 2
	.area idata
	.byte 8,15
	.area data(ram, con, rel)
	.dbfile E:\DMAVR-~3\TFTTEST\TFT.c
	.blkb 2
	.area idata
	.byte 0,0
	.area data(ram, con, rel)
	.dbfile E:\DMAVR-~3\TFTTEST\TFT.c
	.blkb 2
	.area idata
	.byte 0,0
	.area data(ram, con, rel)
	.dbfile E:\DMAVR-~3\TFTTEST\TFT.c
	.blkb 2
	.area idata
	.byte 0,0
	.area data(ram, con, rel)
	.dbfile E:\DMAVR-~3\TFTTEST\TFT.c
	.blkb 2
	.area idata
	.byte 0,0
	.area data(ram, con, rel)
	.dbfile E:\DMAVR-~3\TFTTEST\TFT.c
	.blkb 2
	.area idata
	.byte 8,8
	.area data(ram, con, rel)
	.dbfile E:\DMAVR-~3\TFTTEST\TFT.c
	.blkb 2
	.area idata
	.byte 8,8
	.area data(ram, con, rel)
	.dbfile E:\DMAVR-~3\TFTTEST\TFT.c
	.blkb 2
	.area idata
	.byte 8,8
	.area data(ram, con, rel)
	.dbfile E:\DMAVR-~3\TFTTEST\TFT.c
	.blkb 2
	.area idata
	.byte 8,248
	.area data(ram, con, rel)
	.dbfile E:\DMAVR-~3\TFTTEST\TFT.c
	.blkb 2
	.area idata
	.byte 0,0
	.area data(ram, con, rel)
	.dbfile E:\DMAVR-~3\TFTTEST\TFT.c
	.blkb 2
	.area idata
	.byte 0,0
	.area data(ram, con, rel)
	.dbfile E:\DMAVR-~3\TFTTEST\TFT.c
	.blkb 2
	.area idata
	.byte 0,0
	.area data(ram, con, rel)
	.dbfile E:\DMAVR-~3\TFTTEST\TFT.c
	.blkb 2
	.area idata
	.byte 0,0
	.area data(ram, con, rel)
	.dbfile E:\DMAVR-~3\TFTTEST\TFT.c
	.blkb 2
	.area idata
	.byte 8,8
	.area data(ram, con, rel)
	.dbfile E:\DMAVR-~3\TFTTEST\TFT.c
	.blkb 2
	.area idata
	.byte 8,8
	.area data(ram, con, rel)
	.dbfile E:\DMAVR-~3\TFTTEST\TFT.c
	.blkb 2
	.area idata
	.byte 8,8
	.area data(ram, con, rel)
	.dbfile E:\DMAVR-~3\TFTTEST\TFT.c
	.blkb 2
	.area idata
	.byte 8,8
	.area data(ram, con, rel)
	.dbfile E:\DMAVR-~3\TFTTEST\TFT.c
	.blkb 2
	.area idata
	.byte 8,8
	.area data(ram, con, rel)
	.dbfile E:\DMAVR-~3\TFTTEST\TFT.c
	.blkb 2
	.area idata
	.byte 8,8
	.area data(ram, con, rel)
	.dbfile E:\DMAVR-~3\TFTTEST\TFT.c
	.blkb 2
	.area idata
	.byte 8,8
	.area data(ram, con, rel)
	.dbfile E:\DMAVR-~3\TFTTEST\TFT.c
	.blkb 2
	.area idata
	.byte 8,0
	.area data(ram, con, rel)
	.dbfile E:\DMAVR-~3\TFTTEST\TFT.c
	.blkb 2
	.area idata
	.byte 0,0
	.area data(ram, con, rel)
	.dbfile E:\DMAVR-~3\TFTTEST\TFT.c
	.blkb 2
	.area idata
	.byte 0,0
	.area data(ram, con, rel)
	.dbfile E:\DMAVR-~3\TFTTEST\TFT.c
	.blkb 2
	.area idata
	.byte 0,0
	.area data(ram, con, rel)
	.dbfile E:\DMAVR-~3\TFTTEST\TFT.c
	.blkb 2
	.area idata
	.byte 0,255
	.area data(ram, con, rel)
	.dbfile E:\DMAVR-~3\TFTTEST\TFT.c
	.blkb 2
	.area idata
	.byte 0,0
	.area data(ram, con, rel)
	.dbfile E:\DMAVR-~3\TFTTEST\TFT.c
	.blkb 2
	.area idata
	.byte 0,0
	.area data(ram, con, rel)
	.dbfile E:\DMAVR-~3\TFTTEST\TFT.c
	.blkb 2
	.area idata
	.byte 0,0
	.area data(ram, con, rel)
	.dbfile E:\DMAVR-~3\TFTTEST\TFT.c
	.blkb 2
	.area idata
	.byte 0,0
	.area data(ram, con, rel)
	.dbfile E:\DMAVR-~3\TFTTEST\TFT.c
	.blkb 2
	.area idata
	.byte 0,0
	.area data(ram, con, rel)
	.dbfile E:\DMAVR-~3\TFTTEST\TFT.c
	.blkb 2
	.area idata
	.byte 0,24
	.area data(ram, con, rel)
	.dbfile E:\DMAVR-~3\TFTTEST\TFT.c
	.blkb 2
	.area idata
	.byte 60,126
	.area data(ram, con, rel)
	.dbfile E:\DMAVR-~3\TFTTEST\TFT.c
	.blkb 2
	.area idata
	.byte 126,126
	.area data(ram, con, rel)
	.dbfile E:\DMAVR-~3\TFTTEST\TFT.c
	.blkb 2
	.area idata
	.byte 60,24
	.area data(ram, con, rel)
	.dbfile E:\DMAVR-~3\TFTTEST\TFT.c
	.blkb 2
	.area idata
	.byte 0,0
	.area data(ram, con, rel)
	.dbfile E:\DMAVR-~3\TFTTEST\TFT.c
	.blkb 2
	.area idata
	.byte 0,0
	.area data(ram, con, rel)
	.dbfile E:\DMAVR-~3\TFTTEST\TFT.c
	.blkb 2
	.area idata
	.byte 0,0
	.area data(ram, con, rel)
	.dbfile E:\DMAVR-~3\TFTTEST\TFT.c
	.blkb 2
	.area idata
	.byte 255,255
	.area data(ram, con, rel)
	.dbfile E:\DMAVR-~3\TFTTEST\TFT.c
	.blkb 2
	.area idata
	.byte 255,231
	.area data(ram, con, rel)
	.dbfile E:\DMAVR-~3\TFTTEST\TFT.c
	.blkb 2
	.area idata
	.byte 195,129
	.area data(ram, con, rel)
	.dbfile E:\DMAVR-~3\TFTTEST\TFT.c
	.blkb 2
	.area idata
	.byte 129,129
	.area data(ram, con, rel)
	.dbfile E:\DMAVR-~3\TFTTEST\TFT.c
	.blkb 2
	.area idata
	.byte 195,231
	.area data(ram, con, rel)
	.dbfile E:\DMAVR-~3\TFTTEST\TFT.c
	.blkb 2
	.area idata
	.byte 255,255
	.area data(ram, con, rel)
	.dbfile E:\DMAVR-~3\TFTTEST\TFT.c
	.blkb 2
	.area idata
	.byte 255,255
	.area data(ram, con, rel)
	.dbfile E:\DMAVR-~3\TFTTEST\TFT.c
	.blkb 2
	.area idata
	.byte 255,0
	.area data(ram, con, rel)
	.dbfile E:\DMAVR-~3\TFTTEST\TFT.c
	.blkb 2
	.area idata
	.byte 0,0
	.area data(ram, con, rel)
	.dbfile E:\DMAVR-~3\TFTTEST\TFT.c
	.blkb 2
	.area idata
	.byte 0,0
	.area data(ram, con, rel)
	.dbfile E:\DMAVR-~3\TFTTEST\TFT.c
	.blkb 2
	.area idata
	.byte 0,0
	.area data(ram, con, rel)
	.dbfile E:\DMAVR-~3\TFTTEST\TFT.c
	.blkb 2
	.area idata
	.byte 0,0
	.area data(ram, con, rel)
	.dbfile E:\DMAVR-~3\TFTTEST\TFT.c
	.blkb 2
	.area idata
	.byte 0,0
	.area data(ram, con, rel)
	.dbfile E:\DMAVR-~3\TFTTEST\TFT.c
	.blkb 2
	.area idata
	.byte 0,0
	.area data(ram, con, rel)
	.dbfile E:\DMAVR-~3\TFTTEST\TFT.c
	.blkb 2
	.area idata
	.byte 0,0
	.area data(ram, con, rel)
	.dbfile E:\DMAVR-~3\TFTTEST\TFT.c
	.blkb 2
	.area idata
	.byte 0,0
	.area data(ram, con, rel)
	.dbfile E:\DMAVR-~3\TFTTEST\TFT.c
	.blkb 2
	.area idata
	.byte 0,0
	.area data(ram, con, rel)
	.dbfile E:\DMAVR-~3\TFTTEST\TFT.c
	.blkb 2
	.area idata
	.byte 0,0
	.area data(ram, con, rel)
	.dbfile E:\DMAVR-~3\TFTTEST\TFT.c
	.blkb 2
	.area idata
	.byte 0,0
	.area data(ram, con, rel)
	.dbfile E:\DMAVR-~3\TFTTEST\TFT.c
	.blkb 2
	.area idata
	.byte 0,0
	.area data(ram, con, rel)
	.dbfile E:\DMAVR-~3\TFTTEST\TFT.c
	.blkb 2
	.area idata
	.byte 0,0
	.area data(ram, con, rel)
	.dbfile E:\DMAVR-~3\TFTTEST\TFT.c
	.blkb 2
	.area idata
	.byte 0,0
	.area data(ram, con, rel)
	.dbfile E:\DMAVR-~3\TFTTEST\TFT.c
	.blkb 2
	.area idata
	.byte 0,0
	.area data(ram, con, rel)
	.dbfile E:\DMAVR-~3\TFTTEST\TFT.c
	.blkb 2
	.area idata
	.byte 0,0
	.area data(ram, con, rel)
	.dbfile E:\DMAVR-~3\TFTTEST\TFT.c
	.blkb 2
	.area idata
	.byte 0,31
	.area data(ram, con, rel)
	.dbfile E:\DMAVR-~3\TFTTEST\TFT.c
	.blkb 2
	.area idata
	.byte 5,5
	.area data(ram, con, rel)
	.dbfile E:\DMAVR-~3\TFTTEST\TFT.c
	.blkb 2
	.area idata
	.byte 9,9
	.area data(ram, con, rel)
	.dbfile E:\DMAVR-~3\TFTTEST\TFT.c
	.blkb 2
	.area idata
	.byte 16,16
	.area data(ram, con, rel)
	.dbfile E:\DMAVR-~3\TFTTEST\TFT.c
	.blkb 2
	.area idata
	.byte 56,'D
	.area data(ram, con, rel)
	.dbfile E:\DMAVR-~3\TFTTEST\TFT.c
	.blkb 2
	.area idata
	.byte 'D,'D
	.area data(ram, con, rel)
	.dbfile E:\DMAVR-~3\TFTTEST\TFT.c
	.blkb 2
	.area idata
	.byte 56,0
	.area data(ram, con, rel)
	.dbfile E:\DMAVR-~3\TFTTEST\TFT.c
	.blkb 2
	.area idata
	.byte 0,0
	.area data(ram, con, rel)
	.dbfile E:\DMAVR-~3\TFTTEST\TFT.c
	.blkb 2
	.area idata
	.byte 0,28
	.area data(ram, con, rel)
	.dbfile E:\DMAVR-~3\TFTTEST\TFT.c
	.blkb 2
	.area idata
	.byte 34,34
	.area data(ram, con, rel)
	.dbfile E:\DMAVR-~3\TFTTEST\TFT.c
	.blkb 2
	.area idata
	.byte 34,28
	.area data(ram, con, rel)
	.dbfile E:\DMAVR-~3\TFTTEST\TFT.c
	.blkb 2
	.area idata
	.byte 8,8
	.area data(ram, con, rel)
	.dbfile E:\DMAVR-~3\TFTTEST\TFT.c
	.blkb 2
	.area idata
	.byte 127,8
	.area data(ram, con, rel)
	.dbfile E:\DMAVR-~3\TFTTEST\TFT.c
	.blkb 2
	.area idata
	.byte 8,8
	.area data(ram, con, rel)
	.dbfile E:\DMAVR-~3\TFTTEST\TFT.c
	.blkb 2
	.area idata
	.byte 8,0
	.area data(ram, con, rel)
	.dbfile E:\DMAVR-~3\TFTTEST\TFT.c
	.blkb 2
	.area idata
	.byte 0,0
	.area data(ram, con, rel)
	.dbfile E:\DMAVR-~3\TFTTEST\TFT.c
	.blkb 2
	.area idata
	.byte 0,0
	.area data(ram, con, rel)
	.dbfile E:\DMAVR-~3\TFTTEST\TFT.c
	.blkb 2
	.area idata
	.byte 0,0
	.area data(ram, con, rel)
	.dbfile E:\DMAVR-~3\TFTTEST\TFT.c
	.blkb 2
	.area idata
	.byte 0,0
	.area data(ram, con, rel)
	.dbfile E:\DMAVR-~3\TFTTEST\TFT.c
	.blkb 2
	.area idata
	.byte 0,0
	.area data(ram, con, rel)
	.dbfile E:\DMAVR-~3\TFTTEST\TFT.c
	.blkb 2
	.area idata
	.byte 0,0
	.area data(ram, con, rel)
	.dbfile E:\DMAVR-~3\TFTTEST\TFT.c
	.blkb 2
	.area idata
	.byte 0,0
	.area data(ram, con, rel)
	.dbfile E:\DMAVR-~3\TFTTEST\TFT.c
	.blkb 2
	.area idata
	.byte 0,0
	.area data(ram, con, rel)
	.dbfile E:\DMAVR-~3\TFTTEST\TFT.c
	.blkb 2
	.area idata
	.byte 0,0
	.area data(ram, con, rel)
	.dbfile E:\DMAVR-~3\TFTTEST\TFT.c
	.blkb 2
	.area idata
	.byte 3,29
	.area data(ram, con, rel)
	.dbfile E:\DMAVR-~3\TFTTEST\TFT.c
	.blkb 2
	.area idata
	.byte 17,19
	.area data(ram, con, rel)
	.dbfile E:\DMAVR-~3\TFTTEST\TFT.c
	.blkb 2
	.area idata
	.byte 29,17
	.area data(ram, con, rel)
	.dbfile E:\DMAVR-~3\TFTTEST\TFT.c
	.blkb 2
	.area idata
	.byte 17,17
	.area data(ram, con, rel)
	.dbfile E:\DMAVR-~3\TFTTEST\TFT.c
	.blkb 2
	.area idata
	.byte 19,23
	.area data(ram, con, rel)
	.dbfile E:\DMAVR-~3\TFTTEST\TFT.c
	.blkb 2
	.area idata
	.byte 54,'p
	.area data(ram, con, rel)
	.dbfile E:\DMAVR-~3\TFTTEST\TFT.c
	.blkb 2
	.area idata
	.byte 96,0
	.area data(ram, con, rel)
	.dbfile E:\DMAVR-~3\TFTTEST\TFT.c
	.blkb 2
	.area idata
	.byte 0,0
	.area data(ram, con, rel)
	.dbfile E:\DMAVR-~3\TFTTEST\TFT.c
	.blkb 2
	.area idata
	.byte 8,8
	.area data(ram, con, rel)
	.dbfile E:\DMAVR-~3\TFTTEST\TFT.c
	.blkb 2
	.area idata
	.byte 93,34
	.area data(ram, con, rel)
	.dbfile E:\DMAVR-~3\TFTTEST\TFT.c
	.blkb 2
	.area idata
	.byte 34,34
	.area data(ram, con, rel)
	.dbfile E:\DMAVR-~3\TFTTEST\TFT.c
	.blkb 2
	.area idata
	.byte 'c,34
	.area data(ram, con, rel)
	.dbfile E:\DMAVR-~3\TFTTEST\TFT.c
	.blkb 2
	.area idata
	.byte 34,34
	.area data(ram, con, rel)
	.dbfile E:\DMAVR-~3\TFTTEST\TFT.c
	.blkb 2
	.area idata
	.byte 93,8
	.area data(ram, con, rel)
	.dbfile E:\DMAVR-~3\TFTTEST\TFT.c
	.blkb 2
	.area idata
	.byte 8,0
	.area data(ram, con, rel)
	.dbfile E:\DMAVR-~3\TFTTEST\TFT.c
	.blkb 2
	.area idata
	.byte 0,0
	.area data(ram, con, rel)
	.dbfile E:\DMAVR-~3\TFTTEST\TFT.c
	.blkb 2
	.area idata
	.byte 8,8
	.area data(ram, con, rel)
	.dbfile E:\DMAVR-~3\TFTTEST\TFT.c
	.blkb 2
	.area idata
	.byte 8,8
	.area data(ram, con, rel)
	.dbfile E:\DMAVR-~3\TFTTEST\TFT.c
	.blkb 2
	.area idata
	.byte 8,8
	.area data(ram, con, rel)
	.dbfile E:\DMAVR-~3\TFTTEST\TFT.c
	.blkb 2
	.area idata
	.byte 8,255
	.area data(ram, con, rel)
	.dbfile E:\DMAVR-~3\TFTTEST\TFT.c
	.blkb 2
	.area idata
	.byte 8,8
	.area data(ram, con, rel)
	.dbfile E:\DMAVR-~3\TFTTEST\TFT.c
	.blkb 2
	.area idata
	.byte 8,8
	.area data(ram, con, rel)
	.dbfile E:\DMAVR-~3\TFTTEST\TFT.c
	.blkb 2
	.area idata
	.byte 8,8
	.area data(ram, con, rel)
	.dbfile E:\DMAVR-~3\TFTTEST\TFT.c
	.blkb 2
	.area idata
	.byte 8,0
	.area data(ram, con, rel)
	.dbfile E:\DMAVR-~3\TFTTEST\TFT.c
	.blkb 2
	.area idata
	.byte 0,1
	.area data(ram, con, rel)
	.dbfile E:\DMAVR-~3\TFTTEST\TFT.c
	.blkb 2
	.area idata
	.byte 3,7
	.area data(ram, con, rel)
	.dbfile E:\DMAVR-~3\TFTTEST\TFT.c
	.blkb 2
	.area idata
	.byte 15,31
	.area data(ram, con, rel)
	.dbfile E:\DMAVR-~3\TFTTEST\TFT.c
	.blkb 2
	.area idata
	.byte 63,127
	.area data(ram, con, rel)
	.dbfile E:\DMAVR-~3\TFTTEST\TFT.c
	.blkb 2
	.area idata
	.byte 63,31
	.area data(ram, con, rel)
	.dbfile E:\DMAVR-~3\TFTTEST\TFT.c
	.blkb 2
	.area idata
	.byte 15,7
	.area data(ram, con, rel)
	.dbfile E:\DMAVR-~3\TFTTEST\TFT.c
	.blkb 2
	.area idata
	.byte 3,1
	.area data(ram, con, rel)
	.dbfile E:\DMAVR-~3\TFTTEST\TFT.c
	.blkb 2
	.area idata
	.byte 0,0
	.area data(ram, con, rel)
	.dbfile E:\DMAVR-~3\TFTTEST\TFT.c
	.blkb 2
	.area idata
	.byte 8,28
	.area data(ram, con, rel)
	.dbfile E:\DMAVR-~3\TFTTEST\TFT.c
	.blkb 2
	.area idata
	.byte 42,8
	.area data(ram, con, rel)
	.dbfile E:\DMAVR-~3\TFTTEST\TFT.c
	.blkb 2
	.area idata
	.byte 8,8
	.area data(ram, con, rel)
	.dbfile E:\DMAVR-~3\TFTTEST\TFT.c
	.blkb 2
	.area idata
	.byte 8,8
	.area data(ram, con, rel)
	.dbfile E:\DMAVR-~3\TFTTEST\TFT.c
	.blkb 2
	.area idata
	.byte 8,8
	.area data(ram, con, rel)
	.dbfile E:\DMAVR-~3\TFTTEST\TFT.c
	.blkb 2
	.area idata
	.byte 8,42
	.area data(ram, con, rel)
	.dbfile E:\DMAVR-~3\TFTTEST\TFT.c
	.blkb 2
	.area idata
	.byte 28,8
	.area data(ram, con, rel)
	.dbfile E:\DMAVR-~3\TFTTEST\TFT.c
	.blkb 2
	.area idata
	.byte 0,0
	.area data(ram, con, rel)
	.dbfile E:\DMAVR-~3\TFTTEST\TFT.c
	.blkb 2
	.area idata
	.byte 0,36
	.area data(ram, con, rel)
	.dbfile E:\DMAVR-~3\TFTTEST\TFT.c
	.blkb 2
	.area idata
	.byte 36,36
	.area data(ram, con, rel)
	.dbfile E:\DMAVR-~3\TFTTEST\TFT.c
	.blkb 2
	.area idata
	.byte 36,36
	.area data(ram, con, rel)
	.dbfile E:\DMAVR-~3\TFTTEST\TFT.c
	.blkb 2
	.area idata
	.byte 36,36
	.area data(ram, con, rel)
	.dbfile E:\DMAVR-~3\TFTTEST\TFT.c
	.blkb 2
	.area idata
	.byte 36,36
	.area data(ram, con, rel)
	.dbfile E:\DMAVR-~3\TFTTEST\TFT.c
	.blkb 2
	.area idata
	.byte 0,0
	.area data(ram, con, rel)
	.dbfile E:\DMAVR-~3\TFTTEST\TFT.c
	.blkb 2
	.area idata
	.byte 36,36
	.area data(ram, con, rel)
	.dbfile E:\DMAVR-~3\TFTTEST\TFT.c
	.blkb 2
	.area idata
	.byte 0,0
	.area data(ram, con, rel)
	.dbfile E:\DMAVR-~3\TFTTEST\TFT.c
	.blkb 2
	.area idata
	.byte 0,31
	.area data(ram, con, rel)
	.dbfile E:\DMAVR-~3\TFTTEST\TFT.c
	.blkb 2
	.area idata
	.byte 37,'E
	.area data(ram, con, rel)
	.dbfile E:\DMAVR-~3\TFTTEST\TFT.c
	.blkb 2
	.area idata
	.byte 'E,'E
	.area data(ram, con, rel)
	.dbfile E:\DMAVR-~3\TFTTEST\TFT.c
	.blkb 2
	.area idata
	.byte 37,29
	.area data(ram, con, rel)
	.dbfile E:\DMAVR-~3\TFTTEST\TFT.c
	.blkb 2
	.area idata
	.byte 5,5
	.area data(ram, con, rel)
	.dbfile E:\DMAVR-~3\TFTTEST\TFT.c
	.blkb 2
	.area idata
	.byte 5,5
	.area data(ram, con, rel)
	.dbfile E:\DMAVR-~3\TFTTEST\TFT.c
	.blkb 2
	.area idata
	.byte 5,0
	.area data(ram, con, rel)
	.dbfile E:\DMAVR-~3\TFTTEST\TFT.c
	.blkb 2
	.area idata
	.byte 0,0
	.area data(ram, con, rel)
	.dbfile E:\DMAVR-~3\TFTTEST\TFT.c
	.blkb 2
	.area idata
	.byte 8,8
	.area data(ram, con, rel)
	.dbfile E:\DMAVR-~3\TFTTEST\TFT.c
	.blkb 2
	.area idata
	.byte 8,8
	.area data(ram, con, rel)
	.dbfile E:\DMAVR-~3\TFTTEST\TFT.c
	.blkb 2
	.area idata
	.byte 8,8
	.area data(ram, con, rel)
	.dbfile E:\DMAVR-~3\TFTTEST\TFT.c
	.blkb 2
	.area idata
	.byte 8,255
	.area data(ram, con, rel)
	.dbfile E:\DMAVR-~3\TFTTEST\TFT.c
	.blkb 2
	.area idata
	.byte 0,0
	.area data(ram, con, rel)
	.dbfile E:\DMAVR-~3\TFTTEST\TFT.c
	.blkb 2
	.area idata
	.byte 0,0
	.area data(ram, con, rel)
	.dbfile E:\DMAVR-~3\TFTTEST\TFT.c
	.blkb 2
	.area idata
	.byte 0,0
	.area data(ram, con, rel)
	.dbfile E:\DMAVR-~3\TFTTEST\TFT.c
	.blkb 2
	.area idata
	.byte 0,0
	.area data(ram, con, rel)
	.dbfile E:\DMAVR-~3\TFTTEST\TFT.c
	.blkb 2
	.area idata
	.byte 0,0
	.area data(ram, con, rel)
	.dbfile E:\DMAVR-~3\TFTTEST\TFT.c
	.blkb 2
	.area idata
	.byte 0,0
	.area data(ram, con, rel)
	.dbfile E:\DMAVR-~3\TFTTEST\TFT.c
	.blkb 2
	.area idata
	.byte 0,0
	.area data(ram, con, rel)
	.dbfile E:\DMAVR-~3\TFTTEST\TFT.c
	.blkb 2
	.area idata
	.byte 0,255
	.area data(ram, con, rel)
	.dbfile E:\DMAVR-~3\TFTTEST\TFT.c
	.blkb 2
	.area idata
	.byte 8,8
	.area data(ram, con, rel)
	.dbfile E:\DMAVR-~3\TFTTEST\TFT.c
	.blkb 2
	.area idata
	.byte 8,8
	.area data(ram, con, rel)
	.dbfile E:\DMAVR-~3\TFTTEST\TFT.c
	.blkb 2
	.area idata
	.byte 8,8
	.area data(ram, con, rel)
	.dbfile E:\DMAVR-~3\TFTTEST\TFT.c
	.blkb 2
	.area idata
	.byte 8,0
	.area data(ram, con, rel)
	.dbfile E:\DMAVR-~3\TFTTEST\TFT.c
	.blkb 2
	.area idata
	.byte 8,8
	.area data(ram, con, rel)
	.dbfile E:\DMAVR-~3\TFTTEST\TFT.c
	.blkb 2
	.area idata
	.byte 8,8
	.area data(ram, con, rel)
	.dbfile E:\DMAVR-~3\TFTTEST\TFT.c
	.blkb 2
	.area idata
	.byte 8,8
	.area data(ram, con, rel)
	.dbfile E:\DMAVR-~3\TFTTEST\TFT.c
	.blkb 2
	.area idata
	.byte 8,248
	.area data(ram, con, rel)
	.dbfile E:\DMAVR-~3\TFTTEST\TFT.c
	.blkb 2
	.area idata
	.byte 8,8
	.area data(ram, con, rel)
	.dbfile E:\DMAVR-~3\TFTTEST\TFT.c
	.blkb 2
	.area idata
	.byte 8,8
	.area data(ram, con, rel)
	.dbfile E:\DMAVR-~3\TFTTEST\TFT.c
	.blkb 2
	.area idata
	.byte 8,8
	.area data(ram, con, rel)
	.dbfile E:\DMAVR-~3\TFTTEST\TFT.c
	.blkb 2
	.area idata
	.byte 8,0
	.area data(ram, con, rel)
	.dbfile E:\DMAVR-~3\TFTTEST\TFT.c
	.blkb 2
	.area idata
	.byte 8,28
	.area data(ram, con, rel)
	.dbfile E:\DMAVR-~3\TFTTEST\TFT.c
	.blkb 2
	.area idata
	.byte 42,8
	.area data(ram, con, rel)
	.dbfile E:\DMAVR-~3\TFTTEST\TFT.c
	.blkb 2
	.area idata
	.byte 8,8
	.area data(ram, con, rel)
	.dbfile E:\DMAVR-~3\TFTTEST\TFT.c
	.blkb 2
	.area idata
	.byte 8,8
	.area data(ram, con, rel)
	.dbfile E:\DMAVR-~3\TFTTEST\TFT.c
	.blkb 2
	.area idata
	.byte 8,8
	.area data(ram, con, rel)
	.dbfile E:\DMAVR-~3\TFTTEST\TFT.c
	.blkb 2
	.area idata
	.byte 8,8
	.area data(ram, con, rel)
	.dbfile E:\DMAVR-~3\TFTTEST\TFT.c
	.blkb 2
	.area idata
	.byte 8,8
	.area data(ram, con, rel)
	.dbfile E:\DMAVR-~3\TFTTEST\TFT.c
	.blkb 2
	.area idata
	.byte 0,0
	.area data(ram, con, rel)
	.dbfile E:\DMAVR-~3\TFTTEST\TFT.c
	.blkb 2
	.area idata
	.byte 8,8
	.area data(ram, con, rel)
	.dbfile E:\DMAVR-~3\TFTTEST\TFT.c
	.blkb 2
	.area idata
	.byte 8,8
	.area data(ram, con, rel)
	.dbfile E:\DMAVR-~3\TFTTEST\TFT.c
	.blkb 2
	.area idata
	.byte 8,8
	.area data(ram, con, rel)
	.dbfile E:\DMAVR-~3\TFTTEST\TFT.c
	.blkb 2
	.area idata
	.byte 8,15
	.area data(ram, con, rel)
	.dbfile E:\DMAVR-~3\TFTTEST\TFT.c
	.blkb 2
	.area idata
	.byte 8,8
	.area data(ram, con, rel)
	.dbfile E:\DMAVR-~3\TFTTEST\TFT.c
	.blkb 2
	.area idata
	.byte 8,8
	.area data(ram, con, rel)
	.dbfile E:\DMAVR-~3\TFTTEST\TFT.c
	.blkb 2
	.area idata
	.byte 8,8
	.area data(ram, con, rel)
	.dbfile E:\DMAVR-~3\TFTTEST\TFT.c
	.blkb 2
	.area idata
	.byte 8,0
	.area data(ram, con, rel)
	.dbfile E:\DMAVR-~3\TFTTEST\TFT.c
	.blkb 2
	.area idata
	.byte 0,0
	.area data(ram, con, rel)
	.dbfile E:\DMAVR-~3\TFTTEST\TFT.c
	.blkb 2
	.area idata
	.byte 0,0
	.area data(ram, con, rel)
	.dbfile E:\DMAVR-~3\TFTTEST\TFT.c
	.blkb 2
	.area idata
	.byte 0,4
	.area data(ram, con, rel)
	.dbfile E:\DMAVR-~3\TFTTEST\TFT.c
	.blkb 2
	.area idata
	.byte 2,127
	.area data(ram, con, rel)
	.dbfile E:\DMAVR-~3\TFTTEST\TFT.c
	.blkb 2
	.area idata
	.byte 2,4
	.area data(ram, con, rel)
	.dbfile E:\DMAVR-~3\TFTTEST\TFT.c
	.blkb 2
	.area idata
	.byte 0,0
	.area data(ram, con, rel)
	.dbfile E:\DMAVR-~3\TFTTEST\TFT.c
	.blkb 2
	.area idata
	.byte 0,0
	.area data(ram, con, rel)
	.dbfile E:\DMAVR-~3\TFTTEST\TFT.c
	.blkb 2
	.area idata
	.byte 0,0
	.area data(ram, con, rel)
	.dbfile E:\DMAVR-~3\TFTTEST\TFT.c
	.blkb 2
	.area idata
	.byte 0,0
	.area data(ram, con, rel)
	.dbfile E:\DMAVR-~3\TFTTEST\TFT.c
	.blkb 2
	.area idata
	.byte 0,0
	.area data(ram, con, rel)
	.dbfile E:\DMAVR-~3\TFTTEST\TFT.c
	.blkb 2
	.area idata
	.byte 0,16
	.area data(ram, con, rel)
	.dbfile E:\DMAVR-~3\TFTTEST\TFT.c
	.blkb 2
	.area idata
	.byte 32,127
	.area data(ram, con, rel)
	.dbfile E:\DMAVR-~3\TFTTEST\TFT.c
	.blkb 2
	.area idata
	.byte 32,16
	.area data(ram, con, rel)
	.dbfile E:\DMAVR-~3\TFTTEST\TFT.c
	.blkb 2
	.area idata
	.byte 0,0
	.area data(ram, con, rel)
	.dbfile E:\DMAVR-~3\TFTTEST\TFT.c
	.blkb 2
	.area idata
	.byte 0,0
	.area data(ram, con, rel)
	.dbfile E:\DMAVR-~3\TFTTEST\TFT.c
	.blkb 2
	.area idata
	.byte 0,0
	.area data(ram, con, rel)
	.dbfile E:\DMAVR-~3\TFTTEST\TFT.c
	.blkb 2
	.area idata
	.byte 0,0
	.area data(ram, con, rel)
	.dbfile E:\DMAVR-~3\TFTTEST\TFT.c
	.blkb 2
	.area idata
	.byte 0,0
	.area data(ram, con, rel)
	.dbfile E:\DMAVR-~3\TFTTEST\TFT.c
	.blkb 2
	.area idata
	.byte 0,0
	.area data(ram, con, rel)
	.dbfile E:\DMAVR-~3\TFTTEST\TFT.c
	.blkb 2
	.area idata
	.byte 0,0
	.area data(ram, con, rel)
	.dbfile E:\DMAVR-~3\TFTTEST\TFT.c
	.blkb 2
	.area idata
	.byte 0,0
	.area data(ram, con, rel)
	.dbfile E:\DMAVR-~3\TFTTEST\TFT.c
	.blkb 2
	.area idata
	.byte 0,0
	.area data(ram, con, rel)
	.dbfile E:\DMAVR-~3\TFTTEST\TFT.c
	.blkb 2
	.area idata
	.byte 0,0
	.area data(ram, con, rel)
	.dbfile E:\DMAVR-~3\TFTTEST\TFT.c
	.blkb 2
	.area idata
	.byte 0,0
	.area data(ram, con, rel)
	.dbfile E:\DMAVR-~3\TFTTEST\TFT.c
	.blkb 2
	.area idata
	.byte 0,0
	.area data(ram, con, rel)
	.dbfile E:\DMAVR-~3\TFTTEST\TFT.c
	.blkb 2
	.area idata
	.byte 0,0
	.area data(ram, con, rel)
	.dbfile E:\DMAVR-~3\TFTTEST\TFT.c
	.blkb 2
	.area idata
	.byte 0,0
	.area data(ram, con, rel)
	.dbfile E:\DMAVR-~3\TFTTEST\TFT.c
	.blkb 2
	.area idata
	.byte 0,0
	.area data(ram, con, rel)
	.dbfile E:\DMAVR-~3\TFTTEST\TFT.c
	.blkb 2
	.area idata
	.byte 0,0
	.area data(ram, con, rel)
	.dbfile E:\DMAVR-~3\TFTTEST\TFT.c
	.blkb 2
	.area idata
	.byte 0,0
	.area data(ram, con, rel)
	.dbfile E:\DMAVR-~3\TFTTEST\TFT.c
	.blkb 2
	.area idata
	.byte 0,0
	.area data(ram, con, rel)
	.dbfile E:\DMAVR-~3\TFTTEST\TFT.c
	.blkb 2
	.area idata
	.byte 0,0
	.area data(ram, con, rel)
	.dbfile E:\DMAVR-~3\TFTTEST\TFT.c
	.blkb 2
	.area idata
	.byte 0,0
	.area data(ram, con, rel)
	.dbfile E:\DMAVR-~3\TFTTEST\TFT.c
	.blkb 2
	.area idata
	.byte 0,0
	.area data(ram, con, rel)
	.dbfile E:\DMAVR-~3\TFTTEST\TFT.c
	.blkb 2
	.area idata
	.byte 0,0
	.area data(ram, con, rel)
	.dbfile E:\DMAVR-~3\TFTTEST\TFT.c
	.blkb 2
	.area idata
	.byte 0,0
	.area data(ram, con, rel)
	.dbfile E:\DMAVR-~3\TFTTEST\TFT.c
	.blkb 2
	.area idata
	.byte 0,0
	.area data(ram, con, rel)
	.dbfile E:\DMAVR-~3\TFTTEST\TFT.c
	.blkb 2
	.area idata
	.byte 0,0
	.area data(ram, con, rel)
	.dbfile E:\DMAVR-~3\TFTTEST\TFT.c
	.blkb 2
	.area idata
	.byte 0,0
	.area data(ram, con, rel)
	.dbfile E:\DMAVR-~3\TFTTEST\TFT.c
	.blkb 2
	.area idata
	.byte 0,0
	.area data(ram, con, rel)
	.dbfile E:\DMAVR-~3\TFTTEST\TFT.c
	.blkb 2
	.area idata
	.byte 0,0
	.area data(ram, con, rel)
	.dbfile E:\DMAVR-~3\TFTTEST\TFT.c
	.blkb 2
	.area idata
	.byte 0,0
	.area data(ram, con, rel)
	.dbfile E:\DMAVR-~3\TFTTEST\TFT.c
	.blkb 2
	.area idata
	.byte 0,0
	.area data(ram, con, rel)
	.dbfile E:\DMAVR-~3\TFTTEST\TFT.c
	.blkb 2
	.area idata
	.byte 0,0
	.area data(ram, con, rel)
	.dbfile E:\DMAVR-~3\TFTTEST\TFT.c
	.blkb 2
	.area idata
	.byte 0,0
	.area data(ram, con, rel)
	.dbfile E:\DMAVR-~3\TFTTEST\TFT.c
	.blkb 2
	.area idata
	.byte 0,0
	.area data(ram, con, rel)
	.dbfile E:\DMAVR-~3\TFTTEST\TFT.c
	.blkb 2
	.area idata
	.byte 0,0
	.area data(ram, con, rel)
	.dbfile E:\DMAVR-~3\TFTTEST\TFT.c
	.blkb 2
	.area idata
	.byte 0,0
	.area data(ram, con, rel)
	.dbfile E:\DMAVR-~3\TFTTEST\TFT.c
	.blkb 2
	.area idata
	.byte 0,0
	.area data(ram, con, rel)
	.dbfile E:\DMAVR-~3\TFTTEST\TFT.c
	.blkb 2
	.area idata
	.byte 0,0
	.area data(ram, con, rel)
	.dbfile E:\DMAVR-~3\TFTTEST\TFT.c
	.blkb 2
	.area idata
	.byte 0,0
	.area data(ram, con, rel)
	.dbfile E:\DMAVR-~3\TFTTEST\TFT.c
	.blkb 2
	.area idata
	.byte 0,0
	.area data(ram, con, rel)
	.dbfile E:\DMAVR-~3\TFTTEST\TFT.c
	.blkb 2
	.area idata
	.byte 0,0
	.area data(ram, con, rel)
	.dbfile E:\DMAVR-~3\TFTTEST\TFT.c
	.blkb 2
	.area idata
	.byte 0,0
	.area data(ram, con, rel)
	.dbfile E:\DMAVR-~3\TFTTEST\TFT.c
	.blkb 2
	.area idata
	.byte 0,0
	.area data(ram, con, rel)
	.dbfile E:\DMAVR-~3\TFTTEST\TFT.c
	.blkb 2
	.area idata
	.byte 0,0
	.area data(ram, con, rel)
	.dbfile E:\DMAVR-~3\TFTTEST\TFT.c
	.blkb 2
	.area idata
	.byte 0,0
	.area data(ram, con, rel)
	.dbfile E:\DMAVR-~3\TFTTEST\TFT.c
	.blkb 2
	.area idata
	.byte 16,16
	.area data(ram, con, rel)
	.dbfile E:\DMAVR-~3\TFTTEST\TFT.c
	.blkb 2
	.area idata
	.byte 16,16
	.area data(ram, con, rel)
	.dbfile E:\DMAVR-~3\TFTTEST\TFT.c
	.blkb 2
	.area idata
	.byte 16,16
	.area data(ram, con, rel)
	.dbfile E:\DMAVR-~3\TFTTEST\TFT.c
	.blkb 2
	.area idata
	.byte 16,0
	.area data(ram, con, rel)
	.dbfile E:\DMAVR-~3\TFTTEST\TFT.c
	.blkb 2
	.area idata
	.byte 0,24
	.area data(ram, con, rel)
	.dbfile E:\DMAVR-~3\TFTTEST\TFT.c
	.blkb 2
	.area idata
	.byte 24,0
	.area data(ram, con, rel)
	.dbfile E:\DMAVR-~3\TFTTEST\TFT.c
	.blkb 2
	.area idata
	.byte 0,0
	.area data(ram, con, rel)
	.dbfile E:\DMAVR-~3\TFTTEST\TFT.c
	.blkb 2
	.area idata
	.byte 18,54
	.area data(ram, con, rel)
	.dbfile E:\DMAVR-~3\TFTTEST\TFT.c
	.blkb 2
	.area idata
	.byte 36,'H
	.area data(ram, con, rel)
	.dbfile E:\DMAVR-~3\TFTTEST\TFT.c
	.blkb 2
	.area idata
	.byte 0,0
	.area data(ram, con, rel)
	.dbfile E:\DMAVR-~3\TFTTEST\TFT.c
	.blkb 2
	.area idata
	.byte 0,0
	.area data(ram, con, rel)
	.dbfile E:\DMAVR-~3\TFTTEST\TFT.c
	.blkb 2
	.area idata
	.byte 0,0
	.area data(ram, con, rel)
	.dbfile E:\DMAVR-~3\TFTTEST\TFT.c
	.blkb 2
	.area idata
	.byte 0,0
	.area data(ram, con, rel)
	.dbfile E:\DMAVR-~3\TFTTEST\TFT.c
	.blkb 2
	.area idata
	.byte 0,0
	.area data(ram, con, rel)
	.dbfile E:\DMAVR-~3\TFTTEST\TFT.c
	.blkb 2
	.area idata
	.byte 0,0
	.area data(ram, con, rel)
	.dbfile E:\DMAVR-~3\TFTTEST\TFT.c
	.blkb 2
	.area idata
	.byte 0,0
	.area data(ram, con, rel)
	.dbfile E:\DMAVR-~3\TFTTEST\TFT.c
	.blkb 2
	.area idata
	.byte 36,36
	.area data(ram, con, rel)
	.dbfile E:\DMAVR-~3\TFTTEST\TFT.c
	.blkb 2
	.area idata
	.byte 36,254
	.area data(ram, con, rel)
	.dbfile E:\DMAVR-~3\TFTTEST\TFT.c
	.blkb 2
	.area idata
	.byte 'H,'H
	.area data(ram, con, rel)
	.dbfile E:\DMAVR-~3\TFTTEST\TFT.c
	.blkb 2
	.area idata
	.byte 'H,254
	.area data(ram, con, rel)
	.dbfile E:\DMAVR-~3\TFTTEST\TFT.c
	.blkb 2
	.area idata
	.byte 'H,'H
	.area data(ram, con, rel)
	.dbfile E:\DMAVR-~3\TFTTEST\TFT.c
	.blkb 2
	.area idata
	.byte 'H,0
	.area data(ram, con, rel)
	.dbfile E:\DMAVR-~3\TFTTEST\TFT.c
	.blkb 2
	.area idata
	.byte 0,0
	.area data(ram, con, rel)
	.dbfile E:\DMAVR-~3\TFTTEST\TFT.c
	.blkb 2
	.area idata
	.byte 0,16
	.area data(ram, con, rel)
	.dbfile E:\DMAVR-~3\TFTTEST\TFT.c
	.blkb 2
	.area idata
	.byte 56,'T
	.area data(ram, con, rel)
	.dbfile E:\DMAVR-~3\TFTTEST\TFT.c
	.blkb 2
	.area idata
	.byte 'T,'P
	.area data(ram, con, rel)
	.dbfile E:\DMAVR-~3\TFTTEST\TFT.c
	.blkb 2
	.area idata
	.byte 48,24
	.area data(ram, con, rel)
	.dbfile E:\DMAVR-~3\TFTTEST\TFT.c
	.blkb 2
	.area idata
	.byte 20,20
	.area data(ram, con, rel)
	.dbfile E:\DMAVR-~3\TFTTEST\TFT.c
	.blkb 2
	.area idata
	.byte 'T,'T
	.area data(ram, con, rel)
	.dbfile E:\DMAVR-~3\TFTTEST\TFT.c
	.blkb 2
	.area idata
	.byte 56,16
	.area data(ram, con, rel)
	.dbfile E:\DMAVR-~3\TFTTEST\TFT.c
	.blkb 2
	.area idata
	.byte 16,0
	.area data(ram, con, rel)
	.dbfile E:\DMAVR-~3\TFTTEST\TFT.c
	.blkb 2
	.area idata
	.byte 0,0
	.area data(ram, con, rel)
	.dbfile E:\DMAVR-~3\TFTTEST\TFT.c
	.blkb 2
	.area idata
	.byte 'D,164
	.area data(ram, con, rel)
	.dbfile E:\DMAVR-~3\TFTTEST\TFT.c
	.blkb 2
	.area idata
	.byte 168,168
	.area data(ram, con, rel)
	.dbfile E:\DMAVR-~3\TFTTEST\TFT.c
	.blkb 2
	.area idata
	.byte 168,'T
	.area data(ram, con, rel)
	.dbfile E:\DMAVR-~3\TFTTEST\TFT.c
	.blkb 2
	.area idata
	.byte 26,42
	.area data(ram, con, rel)
	.dbfile E:\DMAVR-~3\TFTTEST\TFT.c
	.blkb 2
	.area idata
	.byte 42,42
	.area data(ram, con, rel)
	.dbfile E:\DMAVR-~3\TFTTEST\TFT.c
	.blkb 2
	.area idata
	.byte 'D,0
	.area data(ram, con, rel)
	.dbfile E:\DMAVR-~3\TFTTEST\TFT.c
	.blkb 2
	.area idata
	.byte 0,0
	.area data(ram, con, rel)
	.dbfile E:\DMAVR-~3\TFTTEST\TFT.c
	.blkb 2
	.area idata
	.byte 0,0
	.area data(ram, con, rel)
	.dbfile E:\DMAVR-~3\TFTTEST\TFT.c
	.blkb 2
	.area idata
	.byte 48,'H
	.area data(ram, con, rel)
	.dbfile E:\DMAVR-~3\TFTTEST\TFT.c
	.blkb 2
	.area idata
	.byte 'H,'H
	.area data(ram, con, rel)
	.dbfile E:\DMAVR-~3\TFTTEST\TFT.c
	.blkb 2
	.area idata
	.byte 'P,'n
	.area data(ram, con, rel)
	.dbfile E:\DMAVR-~3\TFTTEST\TFT.c
	.blkb 2
	.area idata
	.byte 164,148
	.area data(ram, con, rel)
	.dbfile E:\DMAVR-~3\TFTTEST\TFT.c
	.blkb 2
	.area idata
	.byte 136,137
	.area data(ram, con, rel)
	.dbfile E:\DMAVR-~3\TFTTEST\TFT.c
	.blkb 2
	.area idata
	.byte 'v,0
	.area data(ram, con, rel)
	.dbfile E:\DMAVR-~3\TFTTEST\TFT.c
	.blkb 2
	.area idata
	.byte 0,0
	.area data(ram, con, rel)
	.dbfile E:\DMAVR-~3\TFTTEST\TFT.c
	.blkb 2
	.area idata
	.byte 96,96
	.area data(ram, con, rel)
	.dbfile E:\DMAVR-~3\TFTTEST\TFT.c
	.blkb 2
	.area idata
	.byte 32,192
	.area data(ram, con, rel)
	.dbfile E:\DMAVR-~3\TFTTEST\TFT.c
	.blkb 2
	.area idata
	.byte 0,0
	.area data(ram, con, rel)
	.dbfile E:\DMAVR-~3\TFTTEST\TFT.c
	.blkb 2
	.area idata
	.byte 0,0
	.area data(ram, con, rel)
	.dbfile E:\DMAVR-~3\TFTTEST\TFT.c
	.blkb 2
	.area idata
	.byte 0,0
	.area data(ram, con, rel)
	.dbfile E:\DMAVR-~3\TFTTEST\TFT.c
	.blkb 2
	.area idata
	.byte 0,0
	.area data(ram, con, rel)
	.dbfile E:\DMAVR-~3\TFTTEST\TFT.c
	.blkb 2
	.area idata
	.byte 0,0
	.area data(ram, con, rel)
	.dbfile E:\DMAVR-~3\TFTTEST\TFT.c
	.blkb 2
	.area idata
	.byte 0,0
	.area data(ram, con, rel)
	.dbfile E:\DMAVR-~3\TFTTEST\TFT.c
	.blkb 2
	.area idata
	.byte 2,4
	.area data(ram, con, rel)
	.dbfile E:\DMAVR-~3\TFTTEST\TFT.c
	.blkb 2
	.area idata
	.byte 8,8
	.area data(ram, con, rel)
	.dbfile E:\DMAVR-~3\TFTTEST\TFT.c
	.blkb 2
	.area idata
	.byte 16,16
	.area data(ram, con, rel)
	.dbfile E:\DMAVR-~3\TFTTEST\TFT.c
	.blkb 2
	.area idata
	.byte 16,16
	.area data(ram, con, rel)
	.dbfile E:\DMAVR-~3\TFTTEST\TFT.c
	.blkb 2
	.area idata
	.byte 16,16
	.area data(ram, con, rel)
	.dbfile E:\DMAVR-~3\TFTTEST\TFT.c
	.blkb 2
	.area idata
	.byte 8,8
	.area data(ram, con, rel)
	.dbfile E:\DMAVR-~3\TFTTEST\TFT.c
	.blkb 2
	.area idata
	.byte 4,2
	.area data(ram, con, rel)
	.dbfile E:\DMAVR-~3\TFTTEST\TFT.c
	.blkb 2
	.area idata
	.byte 0,0
	.area data(ram, con, rel)
	.dbfile E:\DMAVR-~3\TFTTEST\TFT.c
	.blkb 2
	.area idata
	.byte 64,32
	.area data(ram, con, rel)
	.dbfile E:\DMAVR-~3\TFTTEST\TFT.c
	.blkb 2
	.area idata
	.byte 16,16
	.area data(ram, con, rel)
	.dbfile E:\DMAVR-~3\TFTTEST\TFT.c
	.blkb 2
	.area idata
	.byte 8,8
	.area data(ram, con, rel)
	.dbfile E:\DMAVR-~3\TFTTEST\TFT.c
	.blkb 2
	.area idata
	.byte 8,8
	.area data(ram, con, rel)
	.dbfile E:\DMAVR-~3\TFTTEST\TFT.c
	.blkb 2
	.area idata
	.byte 8,8
	.area data(ram, con, rel)
	.dbfile E:\DMAVR-~3\TFTTEST\TFT.c
	.blkb 2
	.area idata
	.byte 16,16
	.area data(ram, con, rel)
	.dbfile E:\DMAVR-~3\TFTTEST\TFT.c
	.blkb 2
	.area idata
	.byte 32,64
	.area data(ram, con, rel)
	.dbfile E:\DMAVR-~3\TFTTEST\TFT.c
	.blkb 2
	.area idata
	.byte 0,0
	.area data(ram, con, rel)
	.dbfile E:\DMAVR-~3\TFTTEST\TFT.c
	.blkb 2
	.area idata
	.byte 0,0
	.area data(ram, con, rel)
	.dbfile E:\DMAVR-~3\TFTTEST\TFT.c
	.blkb 2
	.area idata
	.byte 0,16
	.area data(ram, con, rel)
	.dbfile E:\DMAVR-~3\TFTTEST\TFT.c
	.blkb 2
	.area idata
	.byte 16,214
	.area data(ram, con, rel)
	.dbfile E:\DMAVR-~3\TFTTEST\TFT.c
	.blkb 2
	.area idata
	.byte 56,56
	.area data(ram, con, rel)
	.dbfile E:\DMAVR-~3\TFTTEST\TFT.c
	.blkb 2
	.area idata
	.byte 214,16
	.area data(ram, con, rel)
	.dbfile E:\DMAVR-~3\TFTTEST\TFT.c
	.blkb 2
	.area idata
	.byte 16,0
	.area data(ram, con, rel)
	.dbfile E:\DMAVR-~3\TFTTEST\TFT.c
	.blkb 2
	.area idata
	.byte 0,0
	.area data(ram, con, rel)
	.dbfile E:\DMAVR-~3\TFTTEST\TFT.c
	.blkb 2
	.area idata
	.byte 0,0
	.area data(ram, con, rel)
	.dbfile E:\DMAVR-~3\TFTTEST\TFT.c
	.blkb 2
	.area idata
	.byte 0,0
	.area data(ram, con, rel)
	.dbfile E:\DMAVR-~3\TFTTEST\TFT.c
	.blkb 2
	.area idata
	.byte 0,16
	.area data(ram, con, rel)
	.dbfile E:\DMAVR-~3\TFTTEST\TFT.c
	.blkb 2
	.area idata
	.byte 16,16
	.area data(ram, con, rel)
	.dbfile E:\DMAVR-~3\TFTTEST\TFT.c
	.blkb 2
	.area idata
	.byte 16,254
	.area data(ram, con, rel)
	.dbfile E:\DMAVR-~3\TFTTEST\TFT.c
	.blkb 2
	.area idata
	.byte 16,16
	.area data(ram, con, rel)
	.dbfile E:\DMAVR-~3\TFTTEST\TFT.c
	.blkb 2
	.area idata
	.byte 16,16
	.area data(ram, con, rel)
	.dbfile E:\DMAVR-~3\TFTTEST\TFT.c
	.blkb 2
	.area idata
	.byte 0,0
	.area data(ram, con, rel)
	.dbfile E:\DMAVR-~3\TFTTEST\TFT.c
	.blkb 2
	.area idata
	.byte 0,0
	.area data(ram, con, rel)
	.dbfile E:\DMAVR-~3\TFTTEST\TFT.c
	.blkb 2
	.area idata
	.byte 0,0
	.area data(ram, con, rel)
	.dbfile E:\DMAVR-~3\TFTTEST\TFT.c
	.blkb 2
	.area idata
	.byte 0,0
	.area data(ram, con, rel)
	.dbfile E:\DMAVR-~3\TFTTEST\TFT.c
	.blkb 2
	.area idata
	.byte 0,0
	.area data(ram, con, rel)
	.dbfile E:\DMAVR-~3\TFTTEST\TFT.c
	.blkb 2
	.area idata
	.byte 0,0
	.area data(ram, con, rel)
	.dbfile E:\DMAVR-~3\TFTTEST\TFT.c
	.blkb 2
	.area idata
	.byte 0,0
	.area data(ram, con, rel)
	.dbfile E:\DMAVR-~3\TFTTEST\TFT.c
	.blkb 2
	.area idata
	.byte 0,96
	.area data(ram, con, rel)
	.dbfile E:\DMAVR-~3\TFTTEST\TFT.c
	.blkb 2
	.area idata
	.byte 96,32
	.area data(ram, con, rel)
	.dbfile E:\DMAVR-~3\TFTTEST\TFT.c
	.blkb 2
	.area idata
	.byte 192,0
	.area data(ram, con, rel)
	.dbfile E:\DMAVR-~3\TFTTEST\TFT.c
	.blkb 2
	.area idata
	.byte 0,0
	.area data(ram, con, rel)
	.dbfile E:\DMAVR-~3\TFTTEST\TFT.c
	.blkb 2
	.area idata
	.byte 0,0
	.area data(ram, con, rel)
	.dbfile E:\DMAVR-~3\TFTTEST\TFT.c
	.blkb 2
	.area idata
	.byte 0,0
	.area data(ram, con, rel)
	.dbfile E:\DMAVR-~3\TFTTEST\TFT.c
	.blkb 2
	.area idata
	.byte 0,127
	.area data(ram, con, rel)
	.dbfile E:\DMAVR-~3\TFTTEST\TFT.c
	.blkb 2
	.area idata
	.byte 0,0
	.area data(ram, con, rel)
	.dbfile E:\DMAVR-~3\TFTTEST\TFT.c
	.blkb 2
	.area idata
	.byte 0,0
	.area data(ram, con, rel)
	.dbfile E:\DMAVR-~3\TFTTEST\TFT.c
	.blkb 2
	.area idata
	.byte 0,0
	.area data(ram, con, rel)
	.dbfile E:\DMAVR-~3\TFTTEST\TFT.c
	.blkb 2
	.area idata
	.byte 0,0
	.area data(ram, con, rel)
	.dbfile E:\DMAVR-~3\TFTTEST\TFT.c
	.blkb 2
	.area idata
	.byte 0,0
	.area data(ram, con, rel)
	.dbfile E:\DMAVR-~3\TFTTEST\TFT.c
	.blkb 2
	.area idata
	.byte 0,0
	.area data(ram, con, rel)
	.dbfile E:\DMAVR-~3\TFTTEST\TFT.c
	.blkb 2
	.area idata
	.byte 0,0
	.area data(ram, con, rel)
	.dbfile E:\DMAVR-~3\TFTTEST\TFT.c
	.blkb 2
	.area idata
	.byte 0,0
	.area data(ram, con, rel)
	.dbfile E:\DMAVR-~3\TFTTEST\TFT.c
	.blkb 2
	.area idata
	.byte 0,0
	.area data(ram, con, rel)
	.dbfile E:\DMAVR-~3\TFTTEST\TFT.c
	.blkb 2
	.area idata
	.byte 0,96
	.area data(ram, con, rel)
	.dbfile E:\DMAVR-~3\TFTTEST\TFT.c
	.blkb 2
	.area idata
	.byte 96,0
	.area data(ram, con, rel)
	.dbfile E:\DMAVR-~3\TFTTEST\TFT.c
	.blkb 2
	.area idata
	.byte 0,0
	.area data(ram, con, rel)
	.dbfile E:\DMAVR-~3\TFTTEST\TFT.c
	.blkb 2
	.area idata
	.byte 0,1
	.area data(ram, con, rel)
	.dbfile E:\DMAVR-~3\TFTTEST\TFT.c
	.blkb 2
	.area idata
	.byte 2,2
	.area data(ram, con, rel)
	.dbfile E:\DMAVR-~3\TFTTEST\TFT.c
	.blkb 2
	.area idata
	.byte 4,4
	.area data(ram, con, rel)
	.dbfile E:\DMAVR-~3\TFTTEST\TFT.c
	.blkb 2
	.area idata
	.byte 8,8
	.area data(ram, con, rel)
	.dbfile E:\DMAVR-~3\TFTTEST\TFT.c
	.blkb 2
	.area idata
	.byte 16,16
	.area data(ram, con, rel)
	.dbfile E:\DMAVR-~3\TFTTEST\TFT.c
	.blkb 2
	.area idata
	.byte 32,32
	.area data(ram, con, rel)
	.dbfile E:\DMAVR-~3\TFTTEST\TFT.c
	.blkb 2
	.area idata
	.byte 64,64
	.area data(ram, con, rel)
	.dbfile E:\DMAVR-~3\TFTTEST\TFT.c
	.blkb 2
	.area idata
	.byte 0,0
	.area data(ram, con, rel)
	.dbfile E:\DMAVR-~3\TFTTEST\TFT.c
	.blkb 2
	.area idata
	.byte 0,0
	.area data(ram, con, rel)
	.dbfile E:\DMAVR-~3\TFTTEST\TFT.c
	.blkb 2
	.area idata
	.byte 24,36
	.area data(ram, con, rel)
	.dbfile E:\DMAVR-~3\TFTTEST\TFT.c
	.blkb 2
	.area idata
	.byte 'B,'B
	.area data(ram, con, rel)
	.dbfile E:\DMAVR-~3\TFTTEST\TFT.c
	.blkb 2
	.area idata
	.byte 'B,'B
	.area data(ram, con, rel)
	.dbfile E:\DMAVR-~3\TFTTEST\TFT.c
	.blkb 2
	.area idata
	.byte 'B,'B
	.area data(ram, con, rel)
	.dbfile E:\DMAVR-~3\TFTTEST\TFT.c
	.blkb 2
	.area idata
	.byte 'B,36
	.area data(ram, con, rel)
	.dbfile E:\DMAVR-~3\TFTTEST\TFT.c
	.blkb 2
	.area idata
	.byte 24,0
	.area data(ram, con, rel)
	.dbfile E:\DMAVR-~3\TFTTEST\TFT.c
	.blkb 2
	.area idata
	.byte 0,0
	.area data(ram, con, rel)
	.dbfile E:\DMAVR-~3\TFTTEST\TFT.c
	.blkb 2
	.area idata
	.byte 0,0
	.area data(ram, con, rel)
	.dbfile E:\DMAVR-~3\TFTTEST\TFT.c
	.blkb 2
	.area idata
	.byte 16,'p
	.area data(ram, con, rel)
	.dbfile E:\DMAVR-~3\TFTTEST\TFT.c
	.blkb 2
	.area idata
	.byte 16,16
	.area data(ram, con, rel)
	.dbfile E:\DMAVR-~3\TFTTEST\TFT.c
	.blkb 2
	.area idata
	.byte 16,16
	.area data(ram, con, rel)
	.dbfile E:\DMAVR-~3\TFTTEST\TFT.c
	.blkb 2
	.area idata
	.byte 16,16
	.area data(ram, con, rel)
	.dbfile E:\DMAVR-~3\TFTTEST\TFT.c
	.blkb 2
	.area idata
	.byte 16,16
	.area data(ram, con, rel)
	.dbfile E:\DMAVR-~3\TFTTEST\TFT.c
	.blkb 2
	.area idata
	.byte 124,0
	.area data(ram, con, rel)
	.dbfile E:\DMAVR-~3\TFTTEST\TFT.c
	.blkb 2
	.area idata
	.byte 0,0
	.area data(ram, con, rel)
	.dbfile E:\DMAVR-~3\TFTTEST\TFT.c
	.blkb 2
	.area idata
	.byte 0,0
	.area data(ram, con, rel)
	.dbfile E:\DMAVR-~3\TFTTEST\TFT.c
	.blkb 2
	.area idata
	.byte 60,'B
	.area data(ram, con, rel)
	.dbfile E:\DMAVR-~3\TFTTEST\TFT.c
	.blkb 2
	.area idata
	.byte 'B,'B
	.area data(ram, con, rel)
	.dbfile E:\DMAVR-~3\TFTTEST\TFT.c
	.blkb 2
	.area idata
	.byte 4,4
	.area data(ram, con, rel)
	.dbfile E:\DMAVR-~3\TFTTEST\TFT.c
	.blkb 2
	.area idata
	.byte 8,16
	.area data(ram, con, rel)
	.dbfile E:\DMAVR-~3\TFTTEST\TFT.c
	.blkb 2
	.area idata
	.byte 32,'B
	.area data(ram, con, rel)
	.dbfile E:\DMAVR-~3\TFTTEST\TFT.c
	.blkb 2
	.area idata
	.byte 126,0
	.area data(ram, con, rel)
	.dbfile E:\DMAVR-~3\TFTTEST\TFT.c
	.blkb 2
	.area idata
	.byte 0,0
	.area data(ram, con, rel)
	.dbfile E:\DMAVR-~3\TFTTEST\TFT.c
	.blkb 2
	.area idata
	.byte 0,0
	.area data(ram, con, rel)
	.dbfile E:\DMAVR-~3\TFTTEST\TFT.c
	.blkb 2
	.area idata
	.byte 60,'B
	.area data(ram, con, rel)
	.dbfile E:\DMAVR-~3\TFTTEST\TFT.c
	.blkb 2
	.area idata
	.byte 'B,4
	.area data(ram, con, rel)
	.dbfile E:\DMAVR-~3\TFTTEST\TFT.c
	.blkb 2
	.area idata
	.byte 24,4
	.area data(ram, con, rel)
	.dbfile E:\DMAVR-~3\TFTTEST\TFT.c
	.blkb 2
	.area idata
	.byte 2,2
	.area data(ram, con, rel)
	.dbfile E:\DMAVR-~3\TFTTEST\TFT.c
	.blkb 2
	.area idata
	.byte 'B,'D
	.area data(ram, con, rel)
	.dbfile E:\DMAVR-~3\TFTTEST\TFT.c
	.blkb 2
	.area idata
	.byte 56,0
	.area data(ram, con, rel)
	.dbfile E:\DMAVR-~3\TFTTEST\TFT.c
	.blkb 2
	.area idata
	.byte 0,0
	.area data(ram, con, rel)
	.dbfile E:\DMAVR-~3\TFTTEST\TFT.c
	.blkb 2
	.area idata
	.byte 0,0
	.area data(ram, con, rel)
	.dbfile E:\DMAVR-~3\TFTTEST\TFT.c
	.blkb 2
	.area idata
	.byte 4,12
	.area data(ram, con, rel)
	.dbfile E:\DMAVR-~3\TFTTEST\TFT.c
	.blkb 2
	.area idata
	.byte 20,36
	.area data(ram, con, rel)
	.dbfile E:\DMAVR-~3\TFTTEST\TFT.c
	.blkb 2
	.area idata
	.byte 36,'D
	.area data(ram, con, rel)
	.dbfile E:\DMAVR-~3\TFTTEST\TFT.c
	.blkb 2
	.area idata
	.byte 'D,126
	.area data(ram, con, rel)
	.dbfile E:\DMAVR-~3\TFTTEST\TFT.c
	.blkb 2
	.area idata
	.byte 4,4
	.area data(ram, con, rel)
	.dbfile E:\DMAVR-~3\TFTTEST\TFT.c
	.blkb 2
	.area idata
	.byte 30,0
	.area data(ram, con, rel)
	.dbfile E:\DMAVR-~3\TFTTEST\TFT.c
	.blkb 2
	.area idata
	.byte 0,0
	.area data(ram, con, rel)
	.dbfile E:\DMAVR-~3\TFTTEST\TFT.c
	.blkb 2
	.area idata
	.byte 0,0
	.area data(ram, con, rel)
	.dbfile E:\DMAVR-~3\TFTTEST\TFT.c
	.blkb 2
	.area idata
	.byte 126,64
	.area data(ram, con, rel)
	.dbfile E:\DMAVR-~3\TFTTEST\TFT.c
	.blkb 2
	.area idata
	.byte 64,64
	.area data(ram, con, rel)
	.dbfile E:\DMAVR-~3\TFTTEST\TFT.c
	.blkb 2
	.area idata
	.byte 'X,'d
	.area data(ram, con, rel)
	.dbfile E:\DMAVR-~3\TFTTEST\TFT.c
	.blkb 2
	.area idata
	.byte 2,2
	.area data(ram, con, rel)
	.dbfile E:\DMAVR-~3\TFTTEST\TFT.c
	.blkb 2
	.area idata
	.byte 'B,'D
	.area data(ram, con, rel)
	.dbfile E:\DMAVR-~3\TFTTEST\TFT.c
	.blkb 2
	.area idata
	.byte 56,0
	.area data(ram, con, rel)
	.dbfile E:\DMAVR-~3\TFTTEST\TFT.c
	.blkb 2
	.area idata
	.byte 0,0
	.area data(ram, con, rel)
	.dbfile E:\DMAVR-~3\TFTTEST\TFT.c
	.blkb 2
	.area idata
	.byte 0,0
	.area data(ram, con, rel)
	.dbfile E:\DMAVR-~3\TFTTEST\TFT.c
	.blkb 2
	.area idata
	.byte 28,36
	.area data(ram, con, rel)
	.dbfile E:\DMAVR-~3\TFTTEST\TFT.c
	.blkb 2
	.area idata
	.byte 64,64
	.area data(ram, con, rel)
	.dbfile E:\DMAVR-~3\TFTTEST\TFT.c
	.blkb 2
	.area idata
	.byte 'X,'d
	.area data(ram, con, rel)
	.dbfile E:\DMAVR-~3\TFTTEST\TFT.c
	.blkb 2
	.area idata
	.byte 'B,'B
	.area data(ram, con, rel)
	.dbfile E:\DMAVR-~3\TFTTEST\TFT.c
	.blkb 2
	.area idata
	.byte 'B,36
	.area data(ram, con, rel)
	.dbfile E:\DMAVR-~3\TFTTEST\TFT.c
	.blkb 2
	.area idata
	.byte 24,0
	.area data(ram, con, rel)
	.dbfile E:\DMAVR-~3\TFTTEST\TFT.c
	.blkb 2
	.area idata
	.byte 0,0
	.area data(ram, con, rel)
	.dbfile E:\DMAVR-~3\TFTTEST\TFT.c
	.blkb 2
	.area idata
	.byte 0,0
	.area data(ram, con, rel)
	.dbfile E:\DMAVR-~3\TFTTEST\TFT.c
	.blkb 2
	.area idata
	.byte 126,'D
	.area data(ram, con, rel)
	.dbfile E:\DMAVR-~3\TFTTEST\TFT.c
	.blkb 2
	.area idata
	.byte 'D,8
	.area data(ram, con, rel)
	.dbfile E:\DMAVR-~3\TFTTEST\TFT.c
	.blkb 2
	.area idata
	.byte 8,16
	.area data(ram, con, rel)
	.dbfile E:\DMAVR-~3\TFTTEST\TFT.c
	.blkb 2
	.area idata
	.byte 16,16
	.area data(ram, con, rel)
	.dbfile E:\DMAVR-~3\TFTTEST\TFT.c
	.blkb 2
	.area idata
	.byte 16,16
	.area data(ram, con, rel)
	.dbfile E:\DMAVR-~3\TFTTEST\TFT.c
	.blkb 2
	.area idata
	.byte 16,0
	.area data(ram, con, rel)
	.dbfile E:\DMAVR-~3\TFTTEST\TFT.c
	.blkb 2
	.area idata
	.byte 0,0
	.area data(ram, con, rel)
	.dbfile E:\DMAVR-~3\TFTTEST\TFT.c
	.blkb 2
	.area idata
	.byte 0,0
	.area data(ram, con, rel)
	.dbfile E:\DMAVR-~3\TFTTEST\TFT.c
	.blkb 2
	.area idata
	.byte 60,'B
	.area data(ram, con, rel)
	.dbfile E:\DMAVR-~3\TFTTEST\TFT.c
	.blkb 2
	.area idata
	.byte 'B,'B
	.area data(ram, con, rel)
	.dbfile E:\DMAVR-~3\TFTTEST\TFT.c
	.blkb 2
	.area idata
	.byte 36,24
	.area data(ram, con, rel)
	.dbfile E:\DMAVR-~3\TFTTEST\TFT.c
	.blkb 2
	.area idata
	.byte 36,'B
	.area data(ram, con, rel)
	.dbfile E:\DMAVR-~3\TFTTEST\TFT.c
	.blkb 2
	.area idata
	.byte 'B,'B
	.area data(ram, con, rel)
	.dbfile E:\DMAVR-~3\TFTTEST\TFT.c
	.blkb 2
	.area idata
	.byte 60,0
	.area data(ram, con, rel)
	.dbfile E:\DMAVR-~3\TFTTEST\TFT.c
	.blkb 2
	.area idata
	.byte 0,0
	.area data(ram, con, rel)
	.dbfile E:\DMAVR-~3\TFTTEST\TFT.c
	.blkb 2
	.area idata
	.byte 0,0
	.area data(ram, con, rel)
	.dbfile E:\DMAVR-~3\TFTTEST\TFT.c
	.blkb 2
	.area idata
	.byte 24,36
	.area data(ram, con, rel)
	.dbfile E:\DMAVR-~3\TFTTEST\TFT.c
	.blkb 2
	.area idata
	.byte 'B,'B
	.area data(ram, con, rel)
	.dbfile E:\DMAVR-~3\TFTTEST\TFT.c
	.blkb 2
	.area idata
	.byte 'B,38
	.area data(ram, con, rel)
	.dbfile E:\DMAVR-~3\TFTTEST\TFT.c
	.blkb 2
	.area idata
	.byte 26,2
	.area data(ram, con, rel)
	.dbfile E:\DMAVR-~3\TFTTEST\TFT.c
	.blkb 2
	.area idata
	.byte 2,36
	.area data(ram, con, rel)
	.dbfile E:\DMAVR-~3\TFTTEST\TFT.c
	.blkb 2
	.area idata
	.byte 56,0
	.area data(ram, con, rel)
	.dbfile E:\DMAVR-~3\TFTTEST\TFT.c
	.blkb 2
	.area idata
	.byte 0,0
	.area data(ram, con, rel)
	.dbfile E:\DMAVR-~3\TFTTEST\TFT.c
	.blkb 2
	.area idata
	.byte 0,0
	.area data(ram, con, rel)
	.dbfile E:\DMAVR-~3\TFTTEST\TFT.c
	.blkb 2
	.area idata
	.byte 0,0
	.area data(ram, con, rel)
	.dbfile E:\DMAVR-~3\TFTTEST\TFT.c
	.blkb 2
	.area idata
	.byte 0,24
	.area data(ram, con, rel)
	.dbfile E:\DMAVR-~3\TFTTEST\TFT.c
	.blkb 2
	.area idata
	.byte 24,0
	.area data(ram, con, rel)
	.dbfile E:\DMAVR-~3\TFTTEST\TFT.c
	.blkb 2
	.area idata
	.byte 0,0
	.area data(ram, con, rel)
	.dbfile E:\DMAVR-~3\TFTTEST\TFT.c
	.blkb 2
	.area idata
	.byte 0,24
	.area data(ram, con, rel)
	.dbfile E:\DMAVR-~3\TFTTEST\TFT.c
	.blkb 2
	.area idata
	.byte 24,0
	.area data(ram, con, rel)
	.dbfile E:\DMAVR-~3\TFTTEST\TFT.c
	.blkb 2
	.area idata
	.byte 0,0
	.area data(ram, con, rel)
	.dbfile E:\DMAVR-~3\TFTTEST\TFT.c
	.blkb 2
	.area idata
	.byte 0,0
	.area data(ram, con, rel)
	.dbfile E:\DMAVR-~3\TFTTEST\TFT.c
	.blkb 2
	.area idata
	.byte 0,0
	.area data(ram, con, rel)
	.dbfile E:\DMAVR-~3\TFTTEST\TFT.c
	.blkb 2
	.area idata
	.byte 0,0
	.area data(ram, con, rel)
	.dbfile E:\DMAVR-~3\TFTTEST\TFT.c
	.blkb 2
	.area idata
	.byte 16,0
	.area data(ram, con, rel)
	.dbfile E:\DMAVR-~3\TFTTEST\TFT.c
	.blkb 2
	.area idata
	.byte 0,0
	.area data(ram, con, rel)
	.dbfile E:\DMAVR-~3\TFTTEST\TFT.c
	.blkb 2
	.area idata
	.byte 0,0
	.area data(ram, con, rel)
	.dbfile E:\DMAVR-~3\TFTTEST\TFT.c
	.blkb 2
	.area idata
	.byte 16,16
	.area data(ram, con, rel)
	.dbfile E:\DMAVR-~3\TFTTEST\TFT.c
	.blkb 2
	.area idata
	.byte 32,0
	.area data(ram, con, rel)
	.dbfile E:\DMAVR-~3\TFTTEST\TFT.c
	.blkb 2
	.area idata
	.byte 0,0
	.area data(ram, con, rel)
	.dbfile E:\DMAVR-~3\TFTTEST\TFT.c
	.blkb 2
	.area idata
	.byte 2,4
	.area data(ram, con, rel)
	.dbfile E:\DMAVR-~3\TFTTEST\TFT.c
	.blkb 2
	.area idata
	.byte 8,16
	.area data(ram, con, rel)
	.dbfile E:\DMAVR-~3\TFTTEST\TFT.c
	.blkb 2
	.area idata
	.byte 32,64
	.area data(ram, con, rel)
	.dbfile E:\DMAVR-~3\TFTTEST\TFT.c
	.blkb 2
	.area idata
	.byte 32,16
	.area data(ram, con, rel)
	.dbfile E:\DMAVR-~3\TFTTEST\TFT.c
	.blkb 2
	.area idata
	.byte 8,4
	.area data(ram, con, rel)
	.dbfile E:\DMAVR-~3\TFTTEST\TFT.c
	.blkb 2
	.area idata
	.byte 2,0
	.area data(ram, con, rel)
	.dbfile E:\DMAVR-~3\TFTTEST\TFT.c
	.blkb 2
	.area idata
	.byte 0,0
	.area data(ram, con, rel)
	.dbfile E:\DMAVR-~3\TFTTEST\TFT.c
	.blkb 2
	.area idata
	.byte 0,0
	.area data(ram, con, rel)
	.dbfile E:\DMAVR-~3\TFTTEST\TFT.c
	.blkb 2
	.area idata
	.byte 0,0
	.area data(ram, con, rel)
	.dbfile E:\DMAVR-~3\TFTTEST\TFT.c
	.blkb 2
	.area idata
	.byte 0,254
	.area data(ram, con, rel)
	.dbfile E:\DMAVR-~3\TFTTEST\TFT.c
	.blkb 2
	.area idata
	.byte 0,0
	.area data(ram, con, rel)
	.dbfile E:\DMAVR-~3\TFTTEST\TFT.c
	.blkb 2
	.area idata
	.byte 0,254
	.area data(ram, con, rel)
	.dbfile E:\DMAVR-~3\TFTTEST\TFT.c
	.blkb 2
	.area idata
	.byte 0,0
	.area data(ram, con, rel)
	.dbfile E:\DMAVR-~3\TFTTEST\TFT.c
	.blkb 2
	.area idata
	.byte 0,0
	.area data(ram, con, rel)
	.dbfile E:\DMAVR-~3\TFTTEST\TFT.c
	.blkb 2
	.area idata
	.byte 0,0
	.area data(ram, con, rel)
	.dbfile E:\DMAVR-~3\TFTTEST\TFT.c
	.blkb 2
	.area idata
	.byte 0,0
	.area data(ram, con, rel)
	.dbfile E:\DMAVR-~3\TFTTEST\TFT.c
	.blkb 2
	.area idata
	.byte 64,32
	.area data(ram, con, rel)
	.dbfile E:\DMAVR-~3\TFTTEST\TFT.c
	.blkb 2
	.area idata
	.byte 16,8
	.area data(ram, con, rel)
	.dbfile E:\DMAVR-~3\TFTTEST\TFT.c
	.blkb 2
	.area idata
	.byte 4,2
	.area data(ram, con, rel)
	.dbfile E:\DMAVR-~3\TFTTEST\TFT.c
	.blkb 2
	.area idata
	.byte 4,8
	.area data(ram, con, rel)
	.dbfile E:\DMAVR-~3\TFTTEST\TFT.c
	.blkb 2
	.area idata
	.byte 16,32
	.area data(ram, con, rel)
	.dbfile E:\DMAVR-~3\TFTTEST\TFT.c
	.blkb 2
	.area idata
	.byte 64,0
	.area data(ram, con, rel)
	.dbfile E:\DMAVR-~3\TFTTEST\TFT.c
	.blkb 2
	.area idata
	.byte 0,0
	.area data(ram, con, rel)
	.dbfile E:\DMAVR-~3\TFTTEST\TFT.c
	.blkb 2
	.area idata
	.byte 0,0
	.area data(ram, con, rel)
	.dbfile E:\DMAVR-~3\TFTTEST\TFT.c
	.blkb 2
	.area idata
	.byte 60,'B
	.area data(ram, con, rel)
	.dbfile E:\DMAVR-~3\TFTTEST\TFT.c
	.blkb 2
	.area idata
	.byte 'B,'b
	.area data(ram, con, rel)
	.dbfile E:\DMAVR-~3\TFTTEST\TFT.c
	.blkb 2
	.area idata
	.byte 2,4
	.area data(ram, con, rel)
	.dbfile E:\DMAVR-~3\TFTTEST\TFT.c
	.blkb 2
	.area idata
	.byte 8,8
	.area data(ram, con, rel)
	.dbfile E:\DMAVR-~3\TFTTEST\TFT.c
	.blkb 2
	.area idata
	.byte 0,24
	.area data(ram, con, rel)
	.dbfile E:\DMAVR-~3\TFTTEST\TFT.c
	.blkb 2
	.area idata
	.byte 24,0
	.area data(ram, con, rel)
	.dbfile E:\DMAVR-~3\TFTTEST\TFT.c
	.blkb 2
	.area idata
	.byte 0,0
	.area data(ram, con, rel)
	.dbfile E:\DMAVR-~3\TFTTEST\TFT.c
	.blkb 2
	.area idata
	.byte 0,0
	.area data(ram, con, rel)
	.dbfile E:\DMAVR-~3\TFTTEST\TFT.c
	.blkb 2
	.area idata
	.byte 56,'D
	.area data(ram, con, rel)
	.dbfile E:\DMAVR-~3\TFTTEST\TFT.c
	.blkb 2
	.area idata
	.byte 'Z,170
	.area data(ram, con, rel)
	.dbfile E:\DMAVR-~3\TFTTEST\TFT.c
	.blkb 2
	.area idata
	.byte 170,170
	.area data(ram, con, rel)
	.dbfile E:\DMAVR-~3\TFTTEST\TFT.c
	.blkb 2
	.area idata
	.byte 170,180
	.area data(ram, con, rel)
	.dbfile E:\DMAVR-~3\TFTTEST\TFT.c
	.blkb 2
	.area idata
	.byte 'B,'D
	.area data(ram, con, rel)
	.dbfile E:\DMAVR-~3\TFTTEST\TFT.c
	.blkb 2
	.area idata
	.byte 56,0
	.area data(ram, con, rel)
	.dbfile E:\DMAVR-~3\TFTTEST\TFT.c
	.blkb 2
	.area idata
	.byte 0,0
	.area data(ram, con, rel)
	.dbfile E:\DMAVR-~3\TFTTEST\TFT.c
	.blkb 2
	.area idata
	.byte 0,0
	.area data(ram, con, rel)
	.dbfile E:\DMAVR-~3\TFTTEST\TFT.c
	.blkb 2
	.area idata
	.byte 16,16
	.area data(ram, con, rel)
	.dbfile E:\DMAVR-~3\TFTTEST\TFT.c
	.blkb 2
	.area idata
	.byte 24,40
	.area data(ram, con, rel)
	.dbfile E:\DMAVR-~3\TFTTEST\TFT.c
	.blkb 2
	.area idata
	.byte 40,36
	.area data(ram, con, rel)
	.dbfile E:\DMAVR-~3\TFTTEST\TFT.c
	.blkb 2
	.area idata
	.byte 60,'D
	.area data(ram, con, rel)
	.dbfile E:\DMAVR-~3\TFTTEST\TFT.c
	.blkb 2
	.area idata
	.byte 'B,'B
	.area data(ram, con, rel)
	.dbfile E:\DMAVR-~3\TFTTEST\TFT.c
	.blkb 2
	.area idata
	.byte 231,0
	.area data(ram, con, rel)
	.dbfile E:\DMAVR-~3\TFTTEST\TFT.c
	.blkb 2
	.area idata
	.byte 0,0
	.area data(ram, con, rel)
	.dbfile E:\DMAVR-~3\TFTTEST\TFT.c
	.blkb 2
	.area idata
	.byte 0,0
	.area data(ram, con, rel)
	.dbfile E:\DMAVR-~3\TFTTEST\TFT.c
	.blkb 2
	.area idata
	.byte 248,'D
	.area data(ram, con, rel)
	.dbfile E:\DMAVR-~3\TFTTEST\TFT.c
	.blkb 2
	.area idata
	.byte 'D,'D
	.area data(ram, con, rel)
	.dbfile E:\DMAVR-~3\TFTTEST\TFT.c
	.blkb 2
	.area idata
	.byte 'x,'D
	.area data(ram, con, rel)
	.dbfile E:\DMAVR-~3\TFTTEST\TFT.c
	.blkb 2
	.area idata
	.byte 'B,'B
	.area data(ram, con, rel)
	.dbfile E:\DMAVR-~3\TFTTEST\TFT.c
	.blkb 2
	.area idata
	.byte 'B,'D
	.area data(ram, con, rel)
	.dbfile E:\DMAVR-~3\TFTTEST\TFT.c
	.blkb 2
	.area idata
	.byte 248,0
	.area data(ram, con, rel)
	.dbfile E:\DMAVR-~3\TFTTEST\TFT.c
	.blkb 2
	.area idata
	.byte 0,0
	.area data(ram, con, rel)
	.dbfile E:\DMAVR-~3\TFTTEST\TFT.c
	.blkb 2
	.area idata
	.byte 0,0
	.area data(ram, con, rel)
	.dbfile E:\DMAVR-~3\TFTTEST\TFT.c
	.blkb 2
	.area idata
	.byte 62,'B
	.area data(ram, con, rel)
	.dbfile E:\DMAVR-~3\TFTTEST\TFT.c
	.blkb 2
	.area idata
	.byte 'B,128
	.area data(ram, con, rel)
	.dbfile E:\DMAVR-~3\TFTTEST\TFT.c
	.blkb 2
	.area idata
	.byte 128,128
	.area data(ram, con, rel)
	.dbfile E:\DMAVR-~3\TFTTEST\TFT.c
	.blkb 2
	.area idata
	.byte 128,128
	.area data(ram, con, rel)
	.dbfile E:\DMAVR-~3\TFTTEST\TFT.c
	.blkb 2
	.area idata
	.byte 'B,'D
	.area data(ram, con, rel)
	.dbfile E:\DMAVR-~3\TFTTEST\TFT.c
	.blkb 2
	.area idata
	.byte 56,0
	.area data(ram, con, rel)
	.dbfile E:\DMAVR-~3\TFTTEST\TFT.c
	.blkb 2
	.area idata
	.byte 0,0
	.area data(ram, con, rel)
	.dbfile E:\DMAVR-~3\TFTTEST\TFT.c
	.blkb 2
	.area idata
	.byte 0,0
	.area data(ram, con, rel)
	.dbfile E:\DMAVR-~3\TFTTEST\TFT.c
	.blkb 2
	.area idata
	.byte 248,'D
	.area data(ram, con, rel)
	.dbfile E:\DMAVR-~3\TFTTEST\TFT.c
	.blkb 2
	.area idata
	.byte 'B,'B
	.area data(ram, con, rel)
	.dbfile E:\DMAVR-~3\TFTTEST\TFT.c
	.blkb 2
	.area idata
	.byte 'B,'B
	.area data(ram, con, rel)
	.dbfile E:\DMAVR-~3\TFTTEST\TFT.c
	.blkb 2
	.area idata
	.byte 'B,'B
	.area data(ram, con, rel)
	.dbfile E:\DMAVR-~3\TFTTEST\TFT.c
	.blkb 2
	.area idata
	.byte 'B,'D
	.area data(ram, con, rel)
	.dbfile E:\DMAVR-~3\TFTTEST\TFT.c
	.blkb 2
	.area idata
	.byte 248,0
	.area data(ram, con, rel)
	.dbfile E:\DMAVR-~3\TFTTEST\TFT.c
	.blkb 2
	.area idata
	.byte 0,0
	.area data(ram, con, rel)
	.dbfile E:\DMAVR-~3\TFTTEST\TFT.c
	.blkb 2
	.area idata
	.byte 0,0
	.area data(ram, con, rel)
	.dbfile E:\DMAVR-~3\TFTTEST\TFT.c
	.blkb 2
	.area idata
	.byte 252,'B
	.area data(ram, con, rel)
	.dbfile E:\DMAVR-~3\TFTTEST\TFT.c
	.blkb 2
	.area idata
	.byte 'H,'H
	.area data(ram, con, rel)
	.dbfile E:\DMAVR-~3\TFTTEST\TFT.c
	.blkb 2
	.area idata
	.byte 'x,'H
	.area data(ram, con, rel)
	.dbfile E:\DMAVR-~3\TFTTEST\TFT.c
	.blkb 2
	.area idata
	.byte 'H,64
	.area data(ram, con, rel)
	.dbfile E:\DMAVR-~3\TFTTEST\TFT.c
	.blkb 2
	.area idata
	.byte 'B,'B
	.area data(ram, con, rel)
	.dbfile E:\DMAVR-~3\TFTTEST\TFT.c
	.blkb 2
	.area idata
	.byte 252,0
	.area data(ram, con, rel)
	.dbfile E:\DMAVR-~3\TFTTEST\TFT.c
	.blkb 2
	.area idata
	.byte 0,0
	.area data(ram, con, rel)
	.dbfile E:\DMAVR-~3\TFTTEST\TFT.c
	.blkb 2
	.area idata
	.byte 0,0
	.area data(ram, con, rel)
	.dbfile E:\DMAVR-~3\TFTTEST\TFT.c
	.blkb 2
	.area idata
	.byte 252,'B
	.area data(ram, con, rel)
	.dbfile E:\DMAVR-~3\TFTTEST\TFT.c
	.blkb 2
	.area idata
	.byte 'H,'H
	.area data(ram, con, rel)
	.dbfile E:\DMAVR-~3\TFTTEST\TFT.c
	.blkb 2
	.area idata
	.byte 'x,'H
	.area data(ram, con, rel)
	.dbfile E:\DMAVR-~3\TFTTEST\TFT.c
	.blkb 2
	.area idata
	.byte 'H,64
	.area data(ram, con, rel)
	.dbfile E:\DMAVR-~3\TFTTEST\TFT.c
	.blkb 2
	.area idata
	.byte 64,64
	.area data(ram, con, rel)
	.dbfile E:\DMAVR-~3\TFTTEST\TFT.c
	.blkb 2
	.area idata
	.byte 224,0
	.area data(ram, con, rel)
	.dbfile E:\DMAVR-~3\TFTTEST\TFT.c
	.blkb 2
	.area idata
	.byte 0,0
	.area data(ram, con, rel)
	.dbfile E:\DMAVR-~3\TFTTEST\TFT.c
	.blkb 2
	.area idata
	.byte 0,0
	.area data(ram, con, rel)
	.dbfile E:\DMAVR-~3\TFTTEST\TFT.c
	.blkb 2
	.area idata
	.byte 60,'D
	.area data(ram, con, rel)
	.dbfile E:\DMAVR-~3\TFTTEST\TFT.c
	.blkb 2
	.area idata
	.byte 'D,128
	.area data(ram, con, rel)
	.dbfile E:\DMAVR-~3\TFTTEST\TFT.c
	.blkb 2
	.area idata
	.byte 128,128
	.area data(ram, con, rel)
	.dbfile E:\DMAVR-~3\TFTTEST\TFT.c
	.blkb 2
	.area idata
	.byte 142,132
	.area data(ram, con, rel)
	.dbfile E:\DMAVR-~3\TFTTEST\TFT.c
	.blkb 2
	.area idata
	.byte 'D,'D
	.area data(ram, con, rel)
	.dbfile E:\DMAVR-~3\TFTTEST\TFT.c
	.blkb 2
	.area idata
	.byte 56,0
	.area data(ram, con, rel)
	.dbfile E:\DMAVR-~3\TFTTEST\TFT.c
	.blkb 2
	.area idata
	.byte 0,0
	.area data(ram, con, rel)
	.dbfile E:\DMAVR-~3\TFTTEST\TFT.c
	.blkb 2
	.area idata
	.byte 0,0
	.area data(ram, con, rel)
	.dbfile E:\DMAVR-~3\TFTTEST\TFT.c
	.blkb 2
	.area idata
	.byte 231,'B
	.area data(ram, con, rel)
	.dbfile E:\DMAVR-~3\TFTTEST\TFT.c
	.blkb 2
	.area idata
	.byte 'B,'B
	.area data(ram, con, rel)
	.dbfile E:\DMAVR-~3\TFTTEST\TFT.c
	.blkb 2
	.area idata
	.byte 'B,126
	.area data(ram, con, rel)
	.dbfile E:\DMAVR-~3\TFTTEST\TFT.c
	.blkb 2
	.area idata
	.byte 'B,'B
	.area data(ram, con, rel)
	.dbfile E:\DMAVR-~3\TFTTEST\TFT.c
	.blkb 2
	.area idata
	.byte 'B,'B
	.area data(ram, con, rel)
	.dbfile E:\DMAVR-~3\TFTTEST\TFT.c
	.blkb 2
	.area idata
	.byte 231,0
	.area data(ram, con, rel)
	.dbfile E:\DMAVR-~3\TFTTEST\TFT.c
	.blkb 2
	.area idata
	.byte 0,0
	.area data(ram, con, rel)
	.dbfile E:\DMAVR-~3\TFTTEST\TFT.c
	.blkb 2
	.area idata
	.byte 0,0
	.area data(ram, con, rel)
	.dbfile E:\DMAVR-~3\TFTTEST\TFT.c
	.blkb 2
	.area idata
	.byte 124,16
	.area data(ram, con, rel)
	.dbfile E:\DMAVR-~3\TFTTEST\TFT.c
	.blkb 2
	.area idata
	.byte 16,16
	.area data(ram, con, rel)
	.dbfile E:\DMAVR-~3\TFTTEST\TFT.c
	.blkb 2
	.area idata
	.byte 16,16
	.area data(ram, con, rel)
	.dbfile E:\DMAVR-~3\TFTTEST\TFT.c
	.blkb 2
	.area idata
	.byte 16,16
	.area data(ram, con, rel)
	.dbfile E:\DMAVR-~3\TFTTEST\TFT.c
	.blkb 2
	.area idata
	.byte 16,16
	.area data(ram, con, rel)
	.dbfile E:\DMAVR-~3\TFTTEST\TFT.c
	.blkb 2
	.area idata
	.byte 124,0
	.area data(ram, con, rel)
	.dbfile E:\DMAVR-~3\TFTTEST\TFT.c
	.blkb 2
	.area idata
	.byte 0,0
	.area data(ram, con, rel)
	.dbfile E:\DMAVR-~3\TFTTEST\TFT.c
	.blkb 2
	.area idata
	.byte 0,0
	.area data(ram, con, rel)
	.dbfile E:\DMAVR-~3\TFTTEST\TFT.c
	.blkb 2
	.area idata
	.byte 62,8
	.area data(ram, con, rel)
	.dbfile E:\DMAVR-~3\TFTTEST\TFT.c
	.blkb 2
	.area idata
	.byte 8,8
	.area data(ram, con, rel)
	.dbfile E:\DMAVR-~3\TFTTEST\TFT.c
	.blkb 2
	.area idata
	.byte 8,8
	.area data(ram, con, rel)
	.dbfile E:\DMAVR-~3\TFTTEST\TFT.c
	.blkb 2
	.area idata
	.byte 8,8
	.area data(ram, con, rel)
	.dbfile E:\DMAVR-~3\TFTTEST\TFT.c
	.blkb 2
	.area idata
	.byte 8,8
	.area data(ram, con, rel)
	.dbfile E:\DMAVR-~3\TFTTEST\TFT.c
	.blkb 2
	.area idata
	.byte 8,136
	.area data(ram, con, rel)
	.dbfile E:\DMAVR-~3\TFTTEST\TFT.c
	.blkb 2
	.area idata
	.byte 240,0
	.area data(ram, con, rel)
	.dbfile E:\DMAVR-~3\TFTTEST\TFT.c
	.blkb 2
	.area idata
	.byte 0,0
	.area data(ram, con, rel)
	.dbfile E:\DMAVR-~3\TFTTEST\TFT.c
	.blkb 2
	.area idata
	.byte 238,'D
	.area data(ram, con, rel)
	.dbfile E:\DMAVR-~3\TFTTEST\TFT.c
	.blkb 2
	.area idata
	.byte 'H,'P
	.area data(ram, con, rel)
	.dbfile E:\DMAVR-~3\TFTTEST\TFT.c
	.blkb 2
	.area idata
	.byte 'p,'P
	.area data(ram, con, rel)
	.dbfile E:\DMAVR-~3\TFTTEST\TFT.c
	.blkb 2
	.area idata
	.byte 'H,'H
	.area data(ram, con, rel)
	.dbfile E:\DMAVR-~3\TFTTEST\TFT.c
	.blkb 2
	.area idata
	.byte 'D,'D
	.area data(ram, con, rel)
	.dbfile E:\DMAVR-~3\TFTTEST\TFT.c
	.blkb 2
	.area idata
	.byte 238,0
	.area data(ram, con, rel)
	.dbfile E:\DMAVR-~3\TFTTEST\TFT.c
	.blkb 2
	.area idata
	.byte 0,0
	.area data(ram, con, rel)
	.dbfile E:\DMAVR-~3\TFTTEST\TFT.c
	.blkb 2
	.area idata
	.byte 0,0
	.area data(ram, con, rel)
	.dbfile E:\DMAVR-~3\TFTTEST\TFT.c
	.blkb 2
	.area idata
	.byte 224,64
	.area data(ram, con, rel)
	.dbfile E:\DMAVR-~3\TFTTEST\TFT.c
	.blkb 2
	.area idata
	.byte 64,64
	.area data(ram, con, rel)
	.dbfile E:\DMAVR-~3\TFTTEST\TFT.c
	.blkb 2
	.area idata
	.byte 64,64
	.area data(ram, con, rel)
	.dbfile E:\DMAVR-~3\TFTTEST\TFT.c
	.blkb 2
	.area idata
	.byte 64,64
	.area data(ram, con, rel)
	.dbfile E:\DMAVR-~3\TFTTEST\TFT.c
	.blkb 2
	.area idata
	.byte 64,'B
	.area data(ram, con, rel)
	.dbfile E:\DMAVR-~3\TFTTEST\TFT.c
	.blkb 2
	.area idata
	.byte 254,0
	.area data(ram, con, rel)
	.dbfile E:\DMAVR-~3\TFTTEST\TFT.c
	.blkb 2
	.area idata
	.byte 0,0
	.area data(ram, con, rel)
	.dbfile E:\DMAVR-~3\TFTTEST\TFT.c
	.blkb 2
	.area idata
	.byte 0,0
	.area data(ram, con, rel)
	.dbfile E:\DMAVR-~3\TFTTEST\TFT.c
	.blkb 2
	.area idata
	.byte 238,'l
	.area data(ram, con, rel)
	.dbfile E:\DMAVR-~3\TFTTEST\TFT.c
	.blkb 2
	.area idata
	.byte 'l,'l
	.area data(ram, con, rel)
	.dbfile E:\DMAVR-~3\TFTTEST\TFT.c
	.blkb 2
	.area idata
	.byte 'l,'T
	.area data(ram, con, rel)
	.dbfile E:\DMAVR-~3\TFTTEST\TFT.c
	.blkb 2
	.area idata
	.byte 'T,'T
	.area data(ram, con, rel)
	.dbfile E:\DMAVR-~3\TFTTEST\TFT.c
	.blkb 2
	.area idata
	.byte 'T,'T
	.area data(ram, con, rel)
	.dbfile E:\DMAVR-~3\TFTTEST\TFT.c
	.blkb 2
	.area idata
	.byte 214,0
	.area data(ram, con, rel)
	.dbfile E:\DMAVR-~3\TFTTEST\TFT.c
	.blkb 2
	.area idata
	.byte 0,0
	.area data(ram, con, rel)
	.dbfile E:\DMAVR-~3\TFTTEST\TFT.c
	.blkb 2
	.area idata
	.byte 0,0
	.area data(ram, con, rel)
	.dbfile E:\DMAVR-~3\TFTTEST\TFT.c
	.blkb 2
	.area idata
	.byte 199,'b
	.area data(ram, con, rel)
	.dbfile E:\DMAVR-~3\TFTTEST\TFT.c
	.blkb 2
	.area idata
	.byte 'b,'R
	.area data(ram, con, rel)
	.dbfile E:\DMAVR-~3\TFTTEST\TFT.c
	.blkb 2
	.area idata
	.byte 'R,'J
	.area data(ram, con, rel)
	.dbfile E:\DMAVR-~3\TFTTEST\TFT.c
	.blkb 2
	.area idata
	.byte 'J,'J
	.area data(ram, con, rel)
	.dbfile E:\DMAVR-~3\TFTTEST\TFT.c
	.blkb 2
	.area idata
	.byte 'F,'F
	.area data(ram, con, rel)
	.dbfile E:\DMAVR-~3\TFTTEST\TFT.c
	.blkb 2
	.area idata
	.byte 226,0
	.area data(ram, con, rel)
	.dbfile E:\DMAVR-~3\TFTTEST\TFT.c
	.blkb 2
	.area idata
	.byte 0,0
	.area data(ram, con, rel)
	.dbfile E:\DMAVR-~3\TFTTEST\TFT.c
	.blkb 2
	.area idata
	.byte 0,0
	.area data(ram, con, rel)
	.dbfile E:\DMAVR-~3\TFTTEST\TFT.c
	.blkb 2
	.area idata
	.byte 56,'D
	.area data(ram, con, rel)
	.dbfile E:\DMAVR-~3\TFTTEST\TFT.c
	.blkb 2
	.area idata
	.byte 130,130
	.area data(ram, con, rel)
	.dbfile E:\DMAVR-~3\TFTTEST\TFT.c
	.blkb 2
	.area idata
	.byte 130,130
	.area data(ram, con, rel)
	.dbfile E:\DMAVR-~3\TFTTEST\TFT.c
	.blkb 2
	.area idata
	.byte 130,130
	.area data(ram, con, rel)
	.dbfile E:\DMAVR-~3\TFTTEST\TFT.c
	.blkb 2
	.area idata
	.byte 130,'D
	.area data(ram, con, rel)
	.dbfile E:\DMAVR-~3\TFTTEST\TFT.c
	.blkb 2
	.area idata
	.byte 56,0
	.area data(ram, con, rel)
	.dbfile E:\DMAVR-~3\TFTTEST\TFT.c
	.blkb 2
	.area idata
	.byte 0,0
	.area data(ram, con, rel)
	.dbfile E:\DMAVR-~3\TFTTEST\TFT.c
	.blkb 2
	.area idata
	.byte 0,0
	.area data(ram, con, rel)
	.dbfile E:\DMAVR-~3\TFTTEST\TFT.c
	.blkb 2
	.area idata
	.byte 252,'B
	.area data(ram, con, rel)
	.dbfile E:\DMAVR-~3\TFTTEST\TFT.c
	.blkb 2
	.area idata
	.byte 'B,'B
	.area data(ram, con, rel)
	.dbfile E:\DMAVR-~3\TFTTEST\TFT.c
	.blkb 2
	.area idata
	.byte 'B,124
	.area data(ram, con, rel)
	.dbfile E:\DMAVR-~3\TFTTEST\TFT.c
	.blkb 2
	.area idata
	.byte 64,64
	.area data(ram, con, rel)
	.dbfile E:\DMAVR-~3\TFTTEST\TFT.c
	.blkb 2
	.area idata
	.byte 64,64
	.area data(ram, con, rel)
	.dbfile E:\DMAVR-~3\TFTTEST\TFT.c
	.blkb 2
	.area idata
	.byte 224,0
	.area data(ram, con, rel)
	.dbfile E:\DMAVR-~3\TFTTEST\TFT.c
	.blkb 2
	.area idata
	.byte 0,0
	.area data(ram, con, rel)
	.dbfile E:\DMAVR-~3\TFTTEST\TFT.c
	.blkb 2
	.area idata
	.byte 0,0
	.area data(ram, con, rel)
	.dbfile E:\DMAVR-~3\TFTTEST\TFT.c
	.blkb 2
	.area idata
	.byte 56,'D
	.area data(ram, con, rel)
	.dbfile E:\DMAVR-~3\TFTTEST\TFT.c
	.blkb 2
	.area idata
	.byte 130,130
	.area data(ram, con, rel)
	.dbfile E:\DMAVR-~3\TFTTEST\TFT.c
	.blkb 2
	.area idata
	.byte 130,130
	.area data(ram, con, rel)
	.dbfile E:\DMAVR-~3\TFTTEST\TFT.c
	.blkb 2
	.area idata
	.byte 130,178
	.area data(ram, con, rel)
	.dbfile E:\DMAVR-~3\TFTTEST\TFT.c
	.blkb 2
	.area idata
	.byte 202,'L
	.area data(ram, con, rel)
	.dbfile E:\DMAVR-~3\TFTTEST\TFT.c
	.blkb 2
	.area idata
	.byte 56,6
	.area data(ram, con, rel)
	.dbfile E:\DMAVR-~3\TFTTEST\TFT.c
	.blkb 2
	.area idata
	.byte 0,0
	.area data(ram, con, rel)
	.dbfile E:\DMAVR-~3\TFTTEST\TFT.c
	.blkb 2
	.area idata
	.byte 0,0
	.area data(ram, con, rel)
	.dbfile E:\DMAVR-~3\TFTTEST\TFT.c
	.blkb 2
	.area idata
	.byte 252,'B
	.area data(ram, con, rel)
	.dbfile E:\DMAVR-~3\TFTTEST\TFT.c
	.blkb 2
	.area idata
	.byte 'B,'B
	.area data(ram, con, rel)
	.dbfile E:\DMAVR-~3\TFTTEST\TFT.c
	.blkb 2
	.area idata
	.byte 124,'H
	.area data(ram, con, rel)
	.dbfile E:\DMAVR-~3\TFTTEST\TFT.c
	.blkb 2
	.area idata
	.byte 'H,'D
	.area data(ram, con, rel)
	.dbfile E:\DMAVR-~3\TFTTEST\TFT.c
	.blkb 2
	.area idata
	.byte 'D,'B
	.area data(ram, con, rel)
	.dbfile E:\DMAVR-~3\TFTTEST\TFT.c
	.blkb 2
	.area idata
	.byte 227,0
	.area data(ram, con, rel)
	.dbfile E:\DMAVR-~3\TFTTEST\TFT.c
	.blkb 2
	.area idata
	.byte 0,0
	.area data(ram, con, rel)
	.dbfile E:\DMAVR-~3\TFTTEST\TFT.c
	.blkb 2
	.area idata
	.byte 0,0
	.area data(ram, con, rel)
	.dbfile E:\DMAVR-~3\TFTTEST\TFT.c
	.blkb 2
	.area idata
	.byte 62,'B
	.area data(ram, con, rel)
	.dbfile E:\DMAVR-~3\TFTTEST\TFT.c
	.blkb 2
	.area idata
	.byte 'B,64
	.area data(ram, con, rel)
	.dbfile E:\DMAVR-~3\TFTTEST\TFT.c
	.blkb 2
	.area idata
	.byte 32,24
	.area data(ram, con, rel)
	.dbfile E:\DMAVR-~3\TFTTEST\TFT.c
	.blkb 2
	.area idata
	.byte 4,2
	.area data(ram, con, rel)
	.dbfile E:\DMAVR-~3\TFTTEST\TFT.c
	.blkb 2
	.area idata
	.byte 'B,'B
	.area data(ram, con, rel)
	.dbfile E:\DMAVR-~3\TFTTEST\TFT.c
	.blkb 2
	.area idata
	.byte 124,0
	.area data(ram, con, rel)
	.dbfile E:\DMAVR-~3\TFTTEST\TFT.c
	.blkb 2
	.area idata
	.byte 0,0
	.area data(ram, con, rel)
	.dbfile E:\DMAVR-~3\TFTTEST\TFT.c
	.blkb 2
	.area idata
	.byte 0,0
	.area data(ram, con, rel)
	.dbfile E:\DMAVR-~3\TFTTEST\TFT.c
	.blkb 2
	.area idata
	.byte 254,146
	.area data(ram, con, rel)
	.dbfile E:\DMAVR-~3\TFTTEST\TFT.c
	.blkb 2
	.area idata
	.byte 16,16
	.area data(ram, con, rel)
	.dbfile E:\DMAVR-~3\TFTTEST\TFT.c
	.blkb 2
	.area idata
	.byte 16,16
	.area data(ram, con, rel)
	.dbfile E:\DMAVR-~3\TFTTEST\TFT.c
	.blkb 2
	.area idata
	.byte 16,16
	.area data(ram, con, rel)
	.dbfile E:\DMAVR-~3\TFTTEST\TFT.c
	.blkb 2
	.area idata
	.byte 16,16
	.area data(ram, con, rel)
	.dbfile E:\DMAVR-~3\TFTTEST\TFT.c
	.blkb 2
	.area idata
	.byte 56,0
	.area data(ram, con, rel)
	.dbfile E:\DMAVR-~3\TFTTEST\TFT.c
	.blkb 2
	.area idata
	.byte 0,0
	.area data(ram, con, rel)
	.dbfile E:\DMAVR-~3\TFTTEST\TFT.c
	.blkb 2
	.area idata
	.byte 0,0
	.area data(ram, con, rel)
	.dbfile E:\DMAVR-~3\TFTTEST\TFT.c
	.blkb 2
	.area idata
	.byte 231,'B
	.area data(ram, con, rel)
	.dbfile E:\DMAVR-~3\TFTTEST\TFT.c
	.blkb 2
	.area idata
	.byte 'B,'B
	.area data(ram, con, rel)
	.dbfile E:\DMAVR-~3\TFTTEST\TFT.c
	.blkb 2
	.area idata
	.byte 'B,'B
	.area data(ram, con, rel)
	.dbfile E:\DMAVR-~3\TFTTEST\TFT.c
	.blkb 2
	.area idata
	.byte 'B,'B
	.area data(ram, con, rel)
	.dbfile E:\DMAVR-~3\TFTTEST\TFT.c
	.blkb 2
	.area idata
	.byte 'B,'B
	.area data(ram, con, rel)
	.dbfile E:\DMAVR-~3\TFTTEST\TFT.c
	.blkb 2
	.area idata
	.byte 60,0
	.area data(ram, con, rel)
	.dbfile E:\DMAVR-~3\TFTTEST\TFT.c
	.blkb 2
	.area idata
	.byte 0,0
	.area data(ram, con, rel)
	.dbfile E:\DMAVR-~3\TFTTEST\TFT.c
	.blkb 2
	.area idata
	.byte 0,0
	.area data(ram, con, rel)
	.dbfile E:\DMAVR-~3\TFTTEST\TFT.c
	.blkb 2
	.area idata
	.byte 231,'B
	.area data(ram, con, rel)
	.dbfile E:\DMAVR-~3\TFTTEST\TFT.c
	.blkb 2
	.area idata
	.byte 'B,'D
	.area data(ram, con, rel)
	.dbfile E:\DMAVR-~3\TFTTEST\TFT.c
	.blkb 2
	.area idata
	.byte 36,36
	.area data(ram, con, rel)
	.dbfile E:\DMAVR-~3\TFTTEST\TFT.c
	.blkb 2
	.area idata
	.byte 40,40
	.area data(ram, con, rel)
	.dbfile E:\DMAVR-~3\TFTTEST\TFT.c
	.blkb 2
	.area idata
	.byte 24,16
	.area data(ram, con, rel)
	.dbfile E:\DMAVR-~3\TFTTEST\TFT.c
	.blkb 2
	.area idata
	.byte 16,0
	.area data(ram, con, rel)
	.dbfile E:\DMAVR-~3\TFTTEST\TFT.c
	.blkb 2
	.area idata
	.byte 0,0
	.area data(ram, con, rel)
	.dbfile E:\DMAVR-~3\TFTTEST\TFT.c
	.blkb 2
	.area idata
	.byte 0,0
	.area data(ram, con, rel)
	.dbfile E:\DMAVR-~3\TFTTEST\TFT.c
	.blkb 2
	.area idata
	.byte 214,146
	.area data(ram, con, rel)
	.dbfile E:\DMAVR-~3\TFTTEST\TFT.c
	.blkb 2
	.area idata
	.byte 146,146
	.area data(ram, con, rel)
	.dbfile E:\DMAVR-~3\TFTTEST\TFT.c
	.blkb 2
	.area idata
	.byte 146,170
	.area data(ram, con, rel)
	.dbfile E:\DMAVR-~3\TFTTEST\TFT.c
	.blkb 2
	.area idata
	.byte 170,'l
	.area data(ram, con, rel)
	.dbfile E:\DMAVR-~3\TFTTEST\TFT.c
	.blkb 2
	.area idata
	.byte 'D,'D
	.area data(ram, con, rel)
	.dbfile E:\DMAVR-~3\TFTTEST\TFT.c
	.blkb 2
	.area idata
	.byte 'D,0
	.area data(ram, con, rel)
	.dbfile E:\DMAVR-~3\TFTTEST\TFT.c
	.blkb 2
	.area idata
	.byte 0,0
	.area data(ram, con, rel)
	.dbfile E:\DMAVR-~3\TFTTEST\TFT.c
	.blkb 2
	.area idata
	.byte 0,0
	.area data(ram, con, rel)
	.dbfile E:\DMAVR-~3\TFTTEST\TFT.c
	.blkb 2
	.area idata
	.byte 231,'B
	.area data(ram, con, rel)
	.dbfile E:\DMAVR-~3\TFTTEST\TFT.c
	.blkb 2
	.area idata
	.byte 36,36
	.area data(ram, con, rel)
	.dbfile E:\DMAVR-~3\TFTTEST\TFT.c
	.blkb 2
	.area idata
	.byte 24,24
	.area data(ram, con, rel)
	.dbfile E:\DMAVR-~3\TFTTEST\TFT.c
	.blkb 2
	.area idata
	.byte 24,36
	.area data(ram, con, rel)
	.dbfile E:\DMAVR-~3\TFTTEST\TFT.c
	.blkb 2
	.area idata
	.byte 36,'B
	.area data(ram, con, rel)
	.dbfile E:\DMAVR-~3\TFTTEST\TFT.c
	.blkb 2
	.area idata
	.byte 231,0
	.area data(ram, con, rel)
	.dbfile E:\DMAVR-~3\TFTTEST\TFT.c
	.blkb 2
	.area idata
	.byte 0,0
	.area data(ram, con, rel)
	.dbfile E:\DMAVR-~3\TFTTEST\TFT.c
	.blkb 2
	.area idata
	.byte 0,0
	.area data(ram, con, rel)
	.dbfile E:\DMAVR-~3\TFTTEST\TFT.c
	.blkb 2
	.area idata
	.byte 238,'D
	.area data(ram, con, rel)
	.dbfile E:\DMAVR-~3\TFTTEST\TFT.c
	.blkb 2
	.area idata
	.byte 'D,40
	.area data(ram, con, rel)
	.dbfile E:\DMAVR-~3\TFTTEST\TFT.c
	.blkb 2
	.area idata
	.byte 40,16
	.area data(ram, con, rel)
	.dbfile E:\DMAVR-~3\TFTTEST\TFT.c
	.blkb 2
	.area idata
	.byte 16,16
	.area data(ram, con, rel)
	.dbfile E:\DMAVR-~3\TFTTEST\TFT.c
	.blkb 2
	.area idata
	.byte 16,16
	.area data(ram, con, rel)
	.dbfile E:\DMAVR-~3\TFTTEST\TFT.c
	.blkb 2
	.area idata
	.byte 56,0
	.area data(ram, con, rel)
	.dbfile E:\DMAVR-~3\TFTTEST\TFT.c
	.blkb 2
	.area idata
	.byte 0,0
	.area data(ram, con, rel)
	.dbfile E:\DMAVR-~3\TFTTEST\TFT.c
	.blkb 2
	.area idata
	.byte 0,0
	.area data(ram, con, rel)
	.dbfile E:\DMAVR-~3\TFTTEST\TFT.c
	.blkb 2
	.area idata
	.byte 126,132
	.area data(ram, con, rel)
	.dbfile E:\DMAVR-~3\TFTTEST\TFT.c
	.blkb 2
	.area idata
	.byte 4,8
	.area data(ram, con, rel)
	.dbfile E:\DMAVR-~3\TFTTEST\TFT.c
	.blkb 2
	.area idata
	.byte 8,16
	.area data(ram, con, rel)
	.dbfile E:\DMAVR-~3\TFTTEST\TFT.c
	.blkb 2
	.area idata
	.byte 32,32
	.area data(ram, con, rel)
	.dbfile E:\DMAVR-~3\TFTTEST\TFT.c
	.blkb 2
	.area idata
	.byte 'B,'B
	.area data(ram, con, rel)
	.dbfile E:\DMAVR-~3\TFTTEST\TFT.c
	.blkb 2
	.area idata
	.byte 252,0
	.area data(ram, con, rel)
	.dbfile E:\DMAVR-~3\TFTTEST\TFT.c
	.blkb 2
	.area idata
	.byte 0,0
	.area data(ram, con, rel)
	.dbfile E:\DMAVR-~3\TFTTEST\TFT.c
	.blkb 2
	.area idata
	.byte 30,16
	.area data(ram, con, rel)
	.dbfile E:\DMAVR-~3\TFTTEST\TFT.c
	.blkb 2
	.area idata
	.byte 16,16
	.area data(ram, con, rel)
	.dbfile E:\DMAVR-~3\TFTTEST\TFT.c
	.blkb 2
	.area idata
	.byte 16,16
	.area data(ram, con, rel)
	.dbfile E:\DMAVR-~3\TFTTEST\TFT.c
	.blkb 2
	.area idata
	.byte 16,16
	.area data(ram, con, rel)
	.dbfile E:\DMAVR-~3\TFTTEST\TFT.c
	.blkb 2
	.area idata
	.byte 16,16
	.area data(ram, con, rel)
	.dbfile E:\DMAVR-~3\TFTTEST\TFT.c
	.blkb 2
	.area idata
	.byte 16,16
	.area data(ram, con, rel)
	.dbfile E:\DMAVR-~3\TFTTEST\TFT.c
	.blkb 2
	.area idata
	.byte 16,30
	.area data(ram, con, rel)
	.dbfile E:\DMAVR-~3\TFTTEST\TFT.c
	.blkb 2
	.area idata
	.byte 0,0
	.area data(ram, con, rel)
	.dbfile E:\DMAVR-~3\TFTTEST\TFT.c
	.blkb 2
	.area idata
	.byte 0,64
	.area data(ram, con, rel)
	.dbfile E:\DMAVR-~3\TFTTEST\TFT.c
	.blkb 2
	.area idata
	.byte 64,32
	.area data(ram, con, rel)
	.dbfile E:\DMAVR-~3\TFTTEST\TFT.c
	.blkb 2
	.area idata
	.byte 32,16
	.area data(ram, con, rel)
	.dbfile E:\DMAVR-~3\TFTTEST\TFT.c
	.blkb 2
	.area idata
	.byte 16,16
	.area data(ram, con, rel)
	.dbfile E:\DMAVR-~3\TFTTEST\TFT.c
	.blkb 2
	.area idata
	.byte 8,8
	.area data(ram, con, rel)
	.dbfile E:\DMAVR-~3\TFTTEST\TFT.c
	.blkb 2
	.area idata
	.byte 4,4
	.area data(ram, con, rel)
	.dbfile E:\DMAVR-~3\TFTTEST\TFT.c
	.blkb 2
	.area idata
	.byte 4,2
	.area data(ram, con, rel)
	.dbfile E:\DMAVR-~3\TFTTEST\TFT.c
	.blkb 2
	.area idata
	.byte 2,0
	.area data(ram, con, rel)
	.dbfile E:\DMAVR-~3\TFTTEST\TFT.c
	.blkb 2
	.area idata
	.byte 'x,8
	.area data(ram, con, rel)
	.dbfile E:\DMAVR-~3\TFTTEST\TFT.c
	.blkb 2
	.area idata
	.byte 8,8
	.area data(ram, con, rel)
	.dbfile E:\DMAVR-~3\TFTTEST\TFT.c
	.blkb 2
	.area idata
	.byte 8,8
	.area data(ram, con, rel)
	.dbfile E:\DMAVR-~3\TFTTEST\TFT.c
	.blkb 2
	.area idata
	.byte 8,8
	.area data(ram, con, rel)
	.dbfile E:\DMAVR-~3\TFTTEST\TFT.c
	.blkb 2
	.area idata
	.byte 8,8
	.area data(ram, con, rel)
	.dbfile E:\DMAVR-~3\TFTTEST\TFT.c
	.blkb 2
	.area idata
	.byte 8,8
	.area data(ram, con, rel)
	.dbfile E:\DMAVR-~3\TFTTEST\TFT.c
	.blkb 2
	.area idata
	.byte 8,'x
	.area data(ram, con, rel)
	.dbfile E:\DMAVR-~3\TFTTEST\TFT.c
	.blkb 2
	.area idata
	.byte 0,0
	.area data(ram, con, rel)
	.dbfile E:\DMAVR-~3\TFTTEST\TFT.c
	.blkb 2
	.area idata
	.byte 28,34
	.area data(ram, con, rel)
	.dbfile E:\DMAVR-~3\TFTTEST\TFT.c
	.blkb 2
	.area idata
	.byte 0,0
	.area data(ram, con, rel)
	.dbfile E:\DMAVR-~3\TFTTEST\TFT.c
	.blkb 2
	.area idata
	.byte 0,0
	.area data(ram, con, rel)
	.dbfile E:\DMAVR-~3\TFTTEST\TFT.c
	.blkb 2
	.area idata
	.byte 0,0
	.area data(ram, con, rel)
	.dbfile E:\DMAVR-~3\TFTTEST\TFT.c
	.blkb 2
	.area idata
	.byte 0,0
	.area data(ram, con, rel)
	.dbfile E:\DMAVR-~3\TFTTEST\TFT.c
	.blkb 2
	.area idata
	.byte 0,0
	.area data(ram, con, rel)
	.dbfile E:\DMAVR-~3\TFTTEST\TFT.c
	.blkb 2
	.area idata
	.byte 0,0
	.area data(ram, con, rel)
	.dbfile E:\DMAVR-~3\TFTTEST\TFT.c
	.blkb 2
	.area idata
	.byte 0,0
	.area data(ram, con, rel)
	.dbfile E:\DMAVR-~3\TFTTEST\TFT.c
	.blkb 2
	.area idata
	.byte 0,0
	.area data(ram, con, rel)
	.dbfile E:\DMAVR-~3\TFTTEST\TFT.c
	.blkb 2
	.area idata
	.byte 0,0
	.area data(ram, con, rel)
	.dbfile E:\DMAVR-~3\TFTTEST\TFT.c
	.blkb 2
	.area idata
	.byte 0,0
	.area data(ram, con, rel)
	.dbfile E:\DMAVR-~3\TFTTEST\TFT.c
	.blkb 2
	.area idata
	.byte 0,0
	.area data(ram, con, rel)
	.dbfile E:\DMAVR-~3\TFTTEST\TFT.c
	.blkb 2
	.area idata
	.byte 0,0
	.area data(ram, con, rel)
	.dbfile E:\DMAVR-~3\TFTTEST\TFT.c
	.blkb 2
	.area idata
	.byte 0,0
	.area data(ram, con, rel)
	.dbfile E:\DMAVR-~3\TFTTEST\TFT.c
	.blkb 2
	.area idata
	.byte 0,0
	.area data(ram, con, rel)
	.dbfile E:\DMAVR-~3\TFTTEST\TFT.c
	.blkb 2
	.area idata
	.byte 255,0
	.area data(ram, con, rel)
	.dbfile E:\DMAVR-~3\TFTTEST\TFT.c
	.blkb 2
	.area idata
	.byte 96,16
	.area data(ram, con, rel)
	.dbfile E:\DMAVR-~3\TFTTEST\TFT.c
	.blkb 2
	.area idata
	.byte 0,0
	.area data(ram, con, rel)
	.dbfile E:\DMAVR-~3\TFTTEST\TFT.c
	.blkb 2
	.area idata
	.byte 0,0
	.area data(ram, con, rel)
	.dbfile E:\DMAVR-~3\TFTTEST\TFT.c
	.blkb 2
	.area idata
	.byte 0,0
	.area data(ram, con, rel)
	.dbfile E:\DMAVR-~3\TFTTEST\TFT.c
	.blkb 2
	.area idata
	.byte 0,0
	.area data(ram, con, rel)
	.dbfile E:\DMAVR-~3\TFTTEST\TFT.c
	.blkb 2
	.area idata
	.byte 0,0
	.area data(ram, con, rel)
	.dbfile E:\DMAVR-~3\TFTTEST\TFT.c
	.blkb 2
	.area idata
	.byte 0,0
	.area data(ram, con, rel)
	.dbfile E:\DMAVR-~3\TFTTEST\TFT.c
	.blkb 2
	.area idata
	.byte 0,0
	.area data(ram, con, rel)
	.dbfile E:\DMAVR-~3\TFTTEST\TFT.c
	.blkb 2
	.area idata
	.byte 0,0
	.area data(ram, con, rel)
	.dbfile E:\DMAVR-~3\TFTTEST\TFT.c
	.blkb 2
	.area idata
	.byte 0,0
	.area data(ram, con, rel)
	.dbfile E:\DMAVR-~3\TFTTEST\TFT.c
	.blkb 2
	.area idata
	.byte 0,0
	.area data(ram, con, rel)
	.dbfile E:\DMAVR-~3\TFTTEST\TFT.c
	.blkb 2
	.area idata
	.byte 60,'B
	.area data(ram, con, rel)
	.dbfile E:\DMAVR-~3\TFTTEST\TFT.c
	.blkb 2
	.area idata
	.byte 30,34
	.area data(ram, con, rel)
	.dbfile E:\DMAVR-~3\TFTTEST\TFT.c
	.blkb 2
	.area idata
	.byte 'B,'B
	.area data(ram, con, rel)
	.dbfile E:\DMAVR-~3\TFTTEST\TFT.c
	.blkb 2
	.area idata
	.byte 63,0
	.area data(ram, con, rel)
	.dbfile E:\DMAVR-~3\TFTTEST\TFT.c
	.blkb 2
	.area idata
	.byte 0,0
	.area data(ram, con, rel)
	.dbfile E:\DMAVR-~3\TFTTEST\TFT.c
	.blkb 2
	.area idata
	.byte 0,0
	.area data(ram, con, rel)
	.dbfile E:\DMAVR-~3\TFTTEST\TFT.c
	.blkb 2
	.area idata
	.byte 192,64
	.area data(ram, con, rel)
	.dbfile E:\DMAVR-~3\TFTTEST\TFT.c
	.blkb 2
	.area idata
	.byte 64,64
	.area data(ram, con, rel)
	.dbfile E:\DMAVR-~3\TFTTEST\TFT.c
	.blkb 2
	.area idata
	.byte 'X,'d
	.area data(ram, con, rel)
	.dbfile E:\DMAVR-~3\TFTTEST\TFT.c
	.blkb 2
	.area idata
	.byte 'B,'B
	.area data(ram, con, rel)
	.dbfile E:\DMAVR-~3\TFTTEST\TFT.c
	.blkb 2
	.area idata
	.byte 'B,'d
	.area data(ram, con, rel)
	.dbfile E:\DMAVR-~3\TFTTEST\TFT.c
	.blkb 2
	.area idata
	.byte 'X,0
	.area data(ram, con, rel)
	.dbfile E:\DMAVR-~3\TFTTEST\TFT.c
	.blkb 2
	.area idata
	.byte 0,0
	.area data(ram, con, rel)
	.dbfile E:\DMAVR-~3\TFTTEST\TFT.c
	.blkb 2
	.area idata
	.byte 0,0
	.area data(ram, con, rel)
	.dbfile E:\DMAVR-~3\TFTTEST\TFT.c
	.blkb 2
	.area idata
	.byte 0,0
	.area data(ram, con, rel)
	.dbfile E:\DMAVR-~3\TFTTEST\TFT.c
	.blkb 2
	.area idata
	.byte 0,0
	.area data(ram, con, rel)
	.dbfile E:\DMAVR-~3\TFTTEST\TFT.c
	.blkb 2
	.area idata
	.byte 28,34
	.area data(ram, con, rel)
	.dbfile E:\DMAVR-~3\TFTTEST\TFT.c
	.blkb 2
	.area idata
	.byte 64,64
	.area data(ram, con, rel)
	.dbfile E:\DMAVR-~3\TFTTEST\TFT.c
	.blkb 2
	.area idata
	.byte 64,34
	.area data(ram, con, rel)
	.dbfile E:\DMAVR-~3\TFTTEST\TFT.c
	.blkb 2
	.area idata
	.byte 28,0
	.area data(ram, con, rel)
	.dbfile E:\DMAVR-~3\TFTTEST\TFT.c
	.blkb 2
	.area idata
	.byte 0,0
	.area data(ram, con, rel)
	.dbfile E:\DMAVR-~3\TFTTEST\TFT.c
	.blkb 2
	.area idata
	.byte 0,0
	.area data(ram, con, rel)
	.dbfile E:\DMAVR-~3\TFTTEST\TFT.c
	.blkb 2
	.area idata
	.byte 6,2
	.area data(ram, con, rel)
	.dbfile E:\DMAVR-~3\TFTTEST\TFT.c
	.blkb 2
	.area idata
	.byte 2,2
	.area data(ram, con, rel)
	.dbfile E:\DMAVR-~3\TFTTEST\TFT.c
	.blkb 2
	.area idata
	.byte 30,34
	.area data(ram, con, rel)
	.dbfile E:\DMAVR-~3\TFTTEST\TFT.c
	.blkb 2
	.area idata
	.byte 'B,'B
	.area data(ram, con, rel)
	.dbfile E:\DMAVR-~3\TFTTEST\TFT.c
	.blkb 2
	.area idata
	.byte 'B,38
	.area data(ram, con, rel)
	.dbfile E:\DMAVR-~3\TFTTEST\TFT.c
	.blkb 2
	.area idata
	.byte 27,0
	.area data(ram, con, rel)
	.dbfile E:\DMAVR-~3\TFTTEST\TFT.c
	.blkb 2
	.area idata
	.byte 0,0
	.area data(ram, con, rel)
	.dbfile E:\DMAVR-~3\TFTTEST\TFT.c
	.blkb 2
	.area idata
	.byte 0,0
	.area data(ram, con, rel)
	.dbfile E:\DMAVR-~3\TFTTEST\TFT.c
	.blkb 2
	.area idata
	.byte 0,0
	.area data(ram, con, rel)
	.dbfile E:\DMAVR-~3\TFTTEST\TFT.c
	.blkb 2
	.area idata
	.byte 0,0
	.area data(ram, con, rel)
	.dbfile E:\DMAVR-~3\TFTTEST\TFT.c
	.blkb 2
	.area idata
	.byte 60,'B
	.area data(ram, con, rel)
	.dbfile E:\DMAVR-~3\TFTTEST\TFT.c
	.blkb 2
	.area idata
	.byte 126,64
	.area data(ram, con, rel)
	.dbfile E:\DMAVR-~3\TFTTEST\TFT.c
	.blkb 2
	.area idata
	.byte 64,'B
	.area data(ram, con, rel)
	.dbfile E:\DMAVR-~3\TFTTEST\TFT.c
	.blkb 2
	.area idata
	.byte 60,0
	.area data(ram, con, rel)
	.dbfile E:\DMAVR-~3\TFTTEST\TFT.c
	.blkb 2
	.area idata
	.byte 0,0
	.area data(ram, con, rel)
	.dbfile E:\DMAVR-~3\TFTTEST\TFT.c
	.blkb 2
	.area idata
	.byte 0,0
	.area data(ram, con, rel)
	.dbfile E:\DMAVR-~3\TFTTEST\TFT.c
	.blkb 2
	.area idata
	.byte 15,17
	.area data(ram, con, rel)
	.dbfile E:\DMAVR-~3\TFTTEST\TFT.c
	.blkb 2
	.area idata
	.byte 16,16
	.area data(ram, con, rel)
	.dbfile E:\DMAVR-~3\TFTTEST\TFT.c
	.blkb 2
	.area idata
	.byte 126,16
	.area data(ram, con, rel)
	.dbfile E:\DMAVR-~3\TFTTEST\TFT.c
	.blkb 2
	.area idata
	.byte 16,16
	.area data(ram, con, rel)
	.dbfile E:\DMAVR-~3\TFTTEST\TFT.c
	.blkb 2
	.area idata
	.byte 16,16
	.area data(ram, con, rel)
	.dbfile E:\DMAVR-~3\TFTTEST\TFT.c
	.blkb 2
	.area idata
	.byte 124,0
	.area data(ram, con, rel)
	.dbfile E:\DMAVR-~3\TFTTEST\TFT.c
	.blkb 2
	.area idata
	.byte 0,0
	.area data(ram, con, rel)
	.dbfile E:\DMAVR-~3\TFTTEST\TFT.c
	.blkb 2
	.area idata
	.byte 0,0
	.area data(ram, con, rel)
	.dbfile E:\DMAVR-~3\TFTTEST\TFT.c
	.blkb 2
	.area idata
	.byte 0,0
	.area data(ram, con, rel)
	.dbfile E:\DMAVR-~3\TFTTEST\TFT.c
	.blkb 2
	.area idata
	.byte 0,0
	.area data(ram, con, rel)
	.dbfile E:\DMAVR-~3\TFTTEST\TFT.c
	.blkb 2
	.area idata
	.byte 62,'D
	.area data(ram, con, rel)
	.dbfile E:\DMAVR-~3\TFTTEST\TFT.c
	.blkb 2
	.area idata
	.byte 'D,56
	.area data(ram, con, rel)
	.dbfile E:\DMAVR-~3\TFTTEST\TFT.c
	.blkb 2
	.area idata
	.byte 64,60
	.area data(ram, con, rel)
	.dbfile E:\DMAVR-~3\TFTTEST\TFT.c
	.blkb 2
	.area idata
	.byte 'B,'B
	.area data(ram, con, rel)
	.dbfile E:\DMAVR-~3\TFTTEST\TFT.c
	.blkb 2
	.area idata
	.byte 60,0
	.area data(ram, con, rel)
	.dbfile E:\DMAVR-~3\TFTTEST\TFT.c
	.blkb 2
	.area idata
	.byte 0,0
	.area data(ram, con, rel)
	.dbfile E:\DMAVR-~3\TFTTEST\TFT.c
	.blkb 2
	.area idata
	.byte 192,64
	.area data(ram, con, rel)
	.dbfile E:\DMAVR-~3\TFTTEST\TFT.c
	.blkb 2
	.area idata
	.byte 64,64
	.area data(ram, con, rel)
	.dbfile E:\DMAVR-~3\TFTTEST\TFT.c
	.blkb 2
	.area idata
	.byte 92,'b
	.area data(ram, con, rel)
	.dbfile E:\DMAVR-~3\TFTTEST\TFT.c
	.blkb 2
	.area idata
	.byte 'B,'B
	.area data(ram, con, rel)
	.dbfile E:\DMAVR-~3\TFTTEST\TFT.c
	.blkb 2
	.area idata
	.byte 'B,'B
	.area data(ram, con, rel)
	.dbfile E:\DMAVR-~3\TFTTEST\TFT.c
	.blkb 2
	.area idata
	.byte 231,0
	.area data(ram, con, rel)
	.dbfile E:\DMAVR-~3\TFTTEST\TFT.c
	.blkb 2
	.area idata
	.byte 0,0
	.area data(ram, con, rel)
	.dbfile E:\DMAVR-~3\TFTTEST\TFT.c
	.blkb 2
	.area idata
	.byte 0,0
	.area data(ram, con, rel)
	.dbfile E:\DMAVR-~3\TFTTEST\TFT.c
	.blkb 2
	.area idata
	.byte 48,48
	.area data(ram, con, rel)
	.dbfile E:\DMAVR-~3\TFTTEST\TFT.c
	.blkb 2
	.area idata
	.byte 0,0
	.area data(ram, con, rel)
	.dbfile E:\DMAVR-~3\TFTTEST\TFT.c
	.blkb 2
	.area idata
	.byte 'p,16
	.area data(ram, con, rel)
	.dbfile E:\DMAVR-~3\TFTTEST\TFT.c
	.blkb 2
	.area idata
	.byte 16,16
	.area data(ram, con, rel)
	.dbfile E:\DMAVR-~3\TFTTEST\TFT.c
	.blkb 2
	.area idata
	.byte 16,16
	.area data(ram, con, rel)
	.dbfile E:\DMAVR-~3\TFTTEST\TFT.c
	.blkb 2
	.area idata
	.byte 124,0
	.area data(ram, con, rel)
	.dbfile E:\DMAVR-~3\TFTTEST\TFT.c
	.blkb 2
	.area idata
	.byte 0,0
	.area data(ram, con, rel)
	.dbfile E:\DMAVR-~3\TFTTEST\TFT.c
	.blkb 2
	.area idata
	.byte 0,0
	.area data(ram, con, rel)
	.dbfile E:\DMAVR-~3\TFTTEST\TFT.c
	.blkb 2
	.area idata
	.byte 12,12
	.area data(ram, con, rel)
	.dbfile E:\DMAVR-~3\TFTTEST\TFT.c
	.blkb 2
	.area idata
	.byte 0,0
	.area data(ram, con, rel)
	.dbfile E:\DMAVR-~3\TFTTEST\TFT.c
	.blkb 2
	.area idata
	.byte 28,4
	.area data(ram, con, rel)
	.dbfile E:\DMAVR-~3\TFTTEST\TFT.c
	.blkb 2
	.area idata
	.byte 4,4
	.area data(ram, con, rel)
	.dbfile E:\DMAVR-~3\TFTTEST\TFT.c
	.blkb 2
	.area idata
	.byte 4,4
	.area data(ram, con, rel)
	.dbfile E:\DMAVR-~3\TFTTEST\TFT.c
	.blkb 2
	.area idata
	.byte 4,'D
	.area data(ram, con, rel)
	.dbfile E:\DMAVR-~3\TFTTEST\TFT.c
	.blkb 2
	.area idata
	.byte 'x,0
	.area data(ram, con, rel)
	.dbfile E:\DMAVR-~3\TFTTEST\TFT.c
	.blkb 2
	.area idata
	.byte 0,0
	.area data(ram, con, rel)
	.dbfile E:\DMAVR-~3\TFTTEST\TFT.c
	.blkb 2
	.area idata
	.byte 192,64
	.area data(ram, con, rel)
	.dbfile E:\DMAVR-~3\TFTTEST\TFT.c
	.blkb 2
	.area idata
	.byte 64,64
	.area data(ram, con, rel)
	.dbfile E:\DMAVR-~3\TFTTEST\TFT.c
	.blkb 2
	.area idata
	.byte 'N,'H
	.area data(ram, con, rel)
	.dbfile E:\DMAVR-~3\TFTTEST\TFT.c
	.blkb 2
	.area idata
	.byte 'P,'h
	.area data(ram, con, rel)
	.dbfile E:\DMAVR-~3\TFTTEST\TFT.c
	.blkb 2
	.area idata
	.byte 'H,'D
	.area data(ram, con, rel)
	.dbfile E:\DMAVR-~3\TFTTEST\TFT.c
	.blkb 2
	.area idata
	.byte 238,0
	.area data(ram, con, rel)
	.dbfile E:\DMAVR-~3\TFTTEST\TFT.c
	.blkb 2
	.area idata
	.byte 0,0
	.area data(ram, con, rel)
	.dbfile E:\DMAVR-~3\TFTTEST\TFT.c
	.blkb 2
	.area idata
	.byte 0,0
	.area data(ram, con, rel)
	.dbfile E:\DMAVR-~3\TFTTEST\TFT.c
	.blkb 2
	.area idata
	.byte 'p,16
	.area data(ram, con, rel)
	.dbfile E:\DMAVR-~3\TFTTEST\TFT.c
	.blkb 2
	.area idata
	.byte 16,16
	.area data(ram, con, rel)
	.dbfile E:\DMAVR-~3\TFTTEST\TFT.c
	.blkb 2
	.area idata
	.byte 16,16
	.area data(ram, con, rel)
	.dbfile E:\DMAVR-~3\TFTTEST\TFT.c
	.blkb 2
	.area idata
	.byte 16,16
	.area data(ram, con, rel)
	.dbfile E:\DMAVR-~3\TFTTEST\TFT.c
	.blkb 2
	.area idata
	.byte 16,16
	.area data(ram, con, rel)
	.dbfile E:\DMAVR-~3\TFTTEST\TFT.c
	.blkb 2
	.area idata
	.byte 124,0
	.area data(ram, con, rel)
	.dbfile E:\DMAVR-~3\TFTTEST\TFT.c
	.blkb 2
	.area idata
	.byte 0,0
	.area data(ram, con, rel)
	.dbfile E:\DMAVR-~3\TFTTEST\TFT.c
	.blkb 2
	.area idata
	.byte 0,0
	.area data(ram, con, rel)
	.dbfile E:\DMAVR-~3\TFTTEST\TFT.c
	.blkb 2
	.area idata
	.byte 0,0
	.area data(ram, con, rel)
	.dbfile E:\DMAVR-~3\TFTTEST\TFT.c
	.blkb 2
	.area idata
	.byte 0,0
	.area data(ram, con, rel)
	.dbfile E:\DMAVR-~3\TFTTEST\TFT.c
	.blkb 2
	.area idata
	.byte 254,'I
	.area data(ram, con, rel)
	.dbfile E:\DMAVR-~3\TFTTEST\TFT.c
	.blkb 2
	.area idata
	.byte 'I,'I
	.area data(ram, con, rel)
	.dbfile E:\DMAVR-~3\TFTTEST\TFT.c
	.blkb 2
	.area idata
	.byte 'I,'I
	.area data(ram, con, rel)
	.dbfile E:\DMAVR-~3\TFTTEST\TFT.c
	.blkb 2
	.area idata
	.byte 237,0
	.area data(ram, con, rel)
	.dbfile E:\DMAVR-~3\TFTTEST\TFT.c
	.blkb 2
	.area idata
	.byte 0,0
	.area data(ram, con, rel)
	.dbfile E:\DMAVR-~3\TFTTEST\TFT.c
	.blkb 2
	.area idata
	.byte 0,0
	.area data(ram, con, rel)
	.dbfile E:\DMAVR-~3\TFTTEST\TFT.c
	.blkb 2
	.area idata
	.byte 0,0
	.area data(ram, con, rel)
	.dbfile E:\DMAVR-~3\TFTTEST\TFT.c
	.blkb 2
	.area idata
	.byte 0,0
	.area data(ram, con, rel)
	.dbfile E:\DMAVR-~3\TFTTEST\TFT.c
	.blkb 2
	.area idata
	.byte 220,'b
	.area data(ram, con, rel)
	.dbfile E:\DMAVR-~3\TFTTEST\TFT.c
	.blkb 2
	.area idata
	.byte 'B,'B
	.area data(ram, con, rel)
	.dbfile E:\DMAVR-~3\TFTTEST\TFT.c
	.blkb 2
	.area idata
	.byte 'B,'B
	.area data(ram, con, rel)
	.dbfile E:\DMAVR-~3\TFTTEST\TFT.c
	.blkb 2
	.area idata
	.byte 231,0
	.area data(ram, con, rel)
	.dbfile E:\DMAVR-~3\TFTTEST\TFT.c
	.blkb 2
	.area idata
	.byte 0,0
	.area data(ram, con, rel)
	.dbfile E:\DMAVR-~3\TFTTEST\TFT.c
	.blkb 2
	.area idata
	.byte 0,0
	.area data(ram, con, rel)
	.dbfile E:\DMAVR-~3\TFTTEST\TFT.c
	.blkb 2
	.area idata
	.byte 0,0
	.area data(ram, con, rel)
	.dbfile E:\DMAVR-~3\TFTTEST\TFT.c
	.blkb 2
	.area idata
	.byte 0,0
	.area data(ram, con, rel)
	.dbfile E:\DMAVR-~3\TFTTEST\TFT.c
	.blkb 2
	.area idata
	.byte 60,'B
	.area data(ram, con, rel)
	.dbfile E:\DMAVR-~3\TFTTEST\TFT.c
	.blkb 2
	.area idata
	.byte 'B,'B
	.area data(ram, con, rel)
	.dbfile E:\DMAVR-~3\TFTTEST\TFT.c
	.blkb 2
	.area idata
	.byte 'B,'B
	.area data(ram, con, rel)
	.dbfile E:\DMAVR-~3\TFTTEST\TFT.c
	.blkb 2
	.area idata
	.byte 60,0
	.area data(ram, con, rel)
	.dbfile E:\DMAVR-~3\TFTTEST\TFT.c
	.blkb 2
	.area idata
	.byte 0,0
	.area data(ram, con, rel)
	.dbfile E:\DMAVR-~3\TFTTEST\TFT.c
	.blkb 2
	.area idata
	.byte 0,0
	.area data(ram, con, rel)
	.dbfile E:\DMAVR-~3\TFTTEST\TFT.c
	.blkb 2
	.area idata
	.byte 0,0
	.area data(ram, con, rel)
	.dbfile E:\DMAVR-~3\TFTTEST\TFT.c
	.blkb 2
	.area idata
	.byte 0,0
	.area data(ram, con, rel)
	.dbfile E:\DMAVR-~3\TFTTEST\TFT.c
	.blkb 2
	.area idata
	.byte 216,'d
	.area data(ram, con, rel)
	.dbfile E:\DMAVR-~3\TFTTEST\TFT.c
	.blkb 2
	.area idata
	.byte 'B,'B
	.area data(ram, con, rel)
	.dbfile E:\DMAVR-~3\TFTTEST\TFT.c
	.blkb 2
	.area idata
	.byte 'B,'D
	.area data(ram, con, rel)
	.dbfile E:\DMAVR-~3\TFTTEST\TFT.c
	.blkb 2
	.area idata
	.byte 'x,64
	.area data(ram, con, rel)
	.dbfile E:\DMAVR-~3\TFTTEST\TFT.c
	.blkb 2
	.area idata
	.byte 224,0
	.area data(ram, con, rel)
	.dbfile E:\DMAVR-~3\TFTTEST\TFT.c
	.blkb 2
	.area idata
	.byte 0,0
	.area data(ram, con, rel)
	.dbfile E:\DMAVR-~3\TFTTEST\TFT.c
	.blkb 2
	.area idata
	.byte 0,0
	.area data(ram, con, rel)
	.dbfile E:\DMAVR-~3\TFTTEST\TFT.c
	.blkb 2
	.area idata
	.byte 0,0
	.area data(ram, con, rel)
	.dbfile E:\DMAVR-~3\TFTTEST\TFT.c
	.blkb 2
	.area idata
	.byte 30,34
	.area data(ram, con, rel)
	.dbfile E:\DMAVR-~3\TFTTEST\TFT.c
	.blkb 2
	.area idata
	.byte 'B,'B
	.area data(ram, con, rel)
	.dbfile E:\DMAVR-~3\TFTTEST\TFT.c
	.blkb 2
	.area idata
	.byte 'B,34
	.area data(ram, con, rel)
	.dbfile E:\DMAVR-~3\TFTTEST\TFT.c
	.blkb 2
	.area idata
	.byte 30,2
	.area data(ram, con, rel)
	.dbfile E:\DMAVR-~3\TFTTEST\TFT.c
	.blkb 2
	.area idata
	.byte 7,0
	.area data(ram, con, rel)
	.dbfile E:\DMAVR-~3\TFTTEST\TFT.c
	.blkb 2
	.area idata
	.byte 0,0
	.area data(ram, con, rel)
	.dbfile E:\DMAVR-~3\TFTTEST\TFT.c
	.blkb 2
	.area idata
	.byte 0,0
	.area data(ram, con, rel)
	.dbfile E:\DMAVR-~3\TFTTEST\TFT.c
	.blkb 2
	.area idata
	.byte 0,0
	.area data(ram, con, rel)
	.dbfile E:\DMAVR-~3\TFTTEST\TFT.c
	.blkb 2
	.area idata
	.byte 238,50
	.area data(ram, con, rel)
	.dbfile E:\DMAVR-~3\TFTTEST\TFT.c
	.blkb 2
	.area idata
	.byte 32,32
	.area data(ram, con, rel)
	.dbfile E:\DMAVR-~3\TFTTEST\TFT.c
	.blkb 2
	.area idata
	.byte 32,32
	.area data(ram, con, rel)
	.dbfile E:\DMAVR-~3\TFTTEST\TFT.c
	.blkb 2
	.area idata
	.byte 248,0
	.area data(ram, con, rel)
	.dbfile E:\DMAVR-~3\TFTTEST\TFT.c
	.blkb 2
	.area idata
	.byte 0,0
	.area data(ram, con, rel)
	.dbfile E:\DMAVR-~3\TFTTEST\TFT.c
	.blkb 2
	.area idata
	.byte 0,0
	.area data(ram, con, rel)
	.dbfile E:\DMAVR-~3\TFTTEST\TFT.c
	.blkb 2
	.area idata
	.byte 0,0
	.area data(ram, con, rel)
	.dbfile E:\DMAVR-~3\TFTTEST\TFT.c
	.blkb 2
	.area idata
	.byte 0,0
	.area data(ram, con, rel)
	.dbfile E:\DMAVR-~3\TFTTEST\TFT.c
	.blkb 2
	.area idata
	.byte 62,'B
	.area data(ram, con, rel)
	.dbfile E:\DMAVR-~3\TFTTEST\TFT.c
	.blkb 2
	.area idata
	.byte 64,60
	.area data(ram, con, rel)
	.dbfile E:\DMAVR-~3\TFTTEST\TFT.c
	.blkb 2
	.area idata
	.byte 2,'B
	.area data(ram, con, rel)
	.dbfile E:\DMAVR-~3\TFTTEST\TFT.c
	.blkb 2
	.area idata
	.byte 124,0
	.area data(ram, con, rel)
	.dbfile E:\DMAVR-~3\TFTTEST\TFT.c
	.blkb 2
	.area idata
	.byte 0,0
	.area data(ram, con, rel)
	.dbfile E:\DMAVR-~3\TFTTEST\TFT.c
	.blkb 2
	.area idata
	.byte 0,0
	.area data(ram, con, rel)
	.dbfile E:\DMAVR-~3\TFTTEST\TFT.c
	.blkb 2
	.area idata
	.byte 0,0
	.area data(ram, con, rel)
	.dbfile E:\DMAVR-~3\TFTTEST\TFT.c
	.blkb 2
	.area idata
	.byte 16,16
	.area data(ram, con, rel)
	.dbfile E:\DMAVR-~3\TFTTEST\TFT.c
	.blkb 2
	.area idata
	.byte 124,16
	.area data(ram, con, rel)
	.dbfile E:\DMAVR-~3\TFTTEST\TFT.c
	.blkb 2
	.area idata
	.byte 16,16
	.area data(ram, con, rel)
	.dbfile E:\DMAVR-~3\TFTTEST\TFT.c
	.blkb 2
	.area idata
	.byte 16,16
	.area data(ram, con, rel)
	.dbfile E:\DMAVR-~3\TFTTEST\TFT.c
	.blkb 2
	.area idata
	.byte 12,0
	.area data(ram, con, rel)
	.dbfile E:\DMAVR-~3\TFTTEST\TFT.c
	.blkb 2
	.area idata
	.byte 0,0
	.area data(ram, con, rel)
	.dbfile E:\DMAVR-~3\TFTTEST\TFT.c
	.blkb 2
	.area idata
	.byte 0,0
	.area data(ram, con, rel)
	.dbfile E:\DMAVR-~3\TFTTEST\TFT.c
	.blkb 2
	.area idata
	.byte 0,0
	.area data(ram, con, rel)
	.dbfile E:\DMAVR-~3\TFTTEST\TFT.c
	.blkb 2
	.area idata
	.byte 0,0
	.area data(ram, con, rel)
	.dbfile E:\DMAVR-~3\TFTTEST\TFT.c
	.blkb 2
	.area idata
	.byte 198,'B
	.area data(ram, con, rel)
	.dbfile E:\DMAVR-~3\TFTTEST\TFT.c
	.blkb 2
	.area idata
	.byte 'B,'B
	.area data(ram, con, rel)
	.dbfile E:\DMAVR-~3\TFTTEST\TFT.c
	.blkb 2
	.area idata
	.byte 'B,'F
	.area data(ram, con, rel)
	.dbfile E:\DMAVR-~3\TFTTEST\TFT.c
	.blkb 2
	.area idata
	.byte 59,0
	.area data(ram, con, rel)
	.dbfile E:\DMAVR-~3\TFTTEST\TFT.c
	.blkb 2
	.area idata
	.byte 0,0
	.area data(ram, con, rel)
	.dbfile E:\DMAVR-~3\TFTTEST\TFT.c
	.blkb 2
	.area idata
	.byte 0,0
	.area data(ram, con, rel)
	.dbfile E:\DMAVR-~3\TFTTEST\TFT.c
	.blkb 2
	.area idata
	.byte 0,0
	.area data(ram, con, rel)
	.dbfile E:\DMAVR-~3\TFTTEST\TFT.c
	.blkb 2
	.area idata
	.byte 0,0
	.area data(ram, con, rel)
	.dbfile E:\DMAVR-~3\TFTTEST\TFT.c
	.blkb 2
	.area idata
	.byte 231,'B
	.area data(ram, con, rel)
	.dbfile E:\DMAVR-~3\TFTTEST\TFT.c
	.blkb 2
	.area idata
	.byte 36,36
	.area data(ram, con, rel)
	.dbfile E:\DMAVR-~3\TFTTEST\TFT.c
	.blkb 2
	.area idata
	.byte 40,16
	.area data(ram, con, rel)
	.dbfile E:\DMAVR-~3\TFTTEST\TFT.c
	.blkb 2
	.area idata
	.byte 16,0
	.area data(ram, con, rel)
	.dbfile E:\DMAVR-~3\TFTTEST\TFT.c
	.blkb 2
	.area idata
	.byte 0,0
	.area data(ram, con, rel)
	.dbfile E:\DMAVR-~3\TFTTEST\TFT.c
	.blkb 2
	.area idata
	.byte 0,0
	.area data(ram, con, rel)
	.dbfile E:\DMAVR-~3\TFTTEST\TFT.c
	.blkb 2
	.area idata
	.byte 0,0
	.area data(ram, con, rel)
	.dbfile E:\DMAVR-~3\TFTTEST\TFT.c
	.blkb 2
	.area idata
	.byte 0,0
	.area data(ram, con, rel)
	.dbfile E:\DMAVR-~3\TFTTEST\TFT.c
	.blkb 2
	.area idata
	.byte 215,146
	.area data(ram, con, rel)
	.dbfile E:\DMAVR-~3\TFTTEST\TFT.c
	.blkb 2
	.area idata
	.byte 146,170
	.area data(ram, con, rel)
	.dbfile E:\DMAVR-~3\TFTTEST\TFT.c
	.blkb 2
	.area idata
	.byte 170,'D
	.area data(ram, con, rel)
	.dbfile E:\DMAVR-~3\TFTTEST\TFT.c
	.blkb 2
	.area idata
	.byte 'D,0
	.area data(ram, con, rel)
	.dbfile E:\DMAVR-~3\TFTTEST\TFT.c
	.blkb 2
	.area idata
	.byte 0,0
	.area data(ram, con, rel)
	.dbfile E:\DMAVR-~3\TFTTEST\TFT.c
	.blkb 2
	.area idata
	.byte 0,0
	.area data(ram, con, rel)
	.dbfile E:\DMAVR-~3\TFTTEST\TFT.c
	.blkb 2
	.area idata
	.byte 0,0
	.area data(ram, con, rel)
	.dbfile E:\DMAVR-~3\TFTTEST\TFT.c
	.blkb 2
	.area idata
	.byte 0,0
	.area data(ram, con, rel)
	.dbfile E:\DMAVR-~3\TFTTEST\TFT.c
	.blkb 2
	.area idata
	.byte 'n,36
	.area data(ram, con, rel)
	.dbfile E:\DMAVR-~3\TFTTEST\TFT.c
	.blkb 2
	.area idata
	.byte 24,24
	.area data(ram, con, rel)
	.dbfile E:\DMAVR-~3\TFTTEST\TFT.c
	.blkb 2
	.area idata
	.byte 24,36
	.area data(ram, con, rel)
	.dbfile E:\DMAVR-~3\TFTTEST\TFT.c
	.blkb 2
	.area idata
	.byte 'v,0
	.area data(ram, con, rel)
	.dbfile E:\DMAVR-~3\TFTTEST\TFT.c
	.blkb 2
	.area idata
	.byte 0,0
	.area data(ram, con, rel)
	.dbfile E:\DMAVR-~3\TFTTEST\TFT.c
	.blkb 2
	.area idata
	.byte 0,0
	.area data(ram, con, rel)
	.dbfile E:\DMAVR-~3\TFTTEST\TFT.c
	.blkb 2
	.area idata
	.byte 0,0
	.area data(ram, con, rel)
	.dbfile E:\DMAVR-~3\TFTTEST\TFT.c
	.blkb 2
	.area idata
	.byte 0,0
	.area data(ram, con, rel)
	.dbfile E:\DMAVR-~3\TFTTEST\TFT.c
	.blkb 2
	.area idata
	.byte 231,'B
	.area data(ram, con, rel)
	.dbfile E:\DMAVR-~3\TFTTEST\TFT.c
	.blkb 2
	.area idata
	.byte 36,36
	.area data(ram, con, rel)
	.dbfile E:\DMAVR-~3\TFTTEST\TFT.c
	.blkb 2
	.area idata
	.byte 40,24
	.area data(ram, con, rel)
	.dbfile E:\DMAVR-~3\TFTTEST\TFT.c
	.blkb 2
	.area idata
	.byte 16,16
	.area data(ram, con, rel)
	.dbfile E:\DMAVR-~3\TFTTEST\TFT.c
	.blkb 2
	.area idata
	.byte 224,0
	.area data(ram, con, rel)
	.dbfile E:\DMAVR-~3\TFTTEST\TFT.c
	.blkb 2
	.area idata
	.byte 0,0
	.area data(ram, con, rel)
	.dbfile E:\DMAVR-~3\TFTTEST\TFT.c
	.blkb 2
	.area idata
	.byte 0,0
	.area data(ram, con, rel)
	.dbfile E:\DMAVR-~3\TFTTEST\TFT.c
	.blkb 2
	.area idata
	.byte 0,0
	.area data(ram, con, rel)
	.dbfile E:\DMAVR-~3\TFTTEST\TFT.c
	.blkb 2
	.area idata
	.byte 126,'D
	.area data(ram, con, rel)
	.dbfile E:\DMAVR-~3\TFTTEST\TFT.c
	.blkb 2
	.area idata
	.byte 8,16
	.area data(ram, con, rel)
	.dbfile E:\DMAVR-~3\TFTTEST\TFT.c
	.blkb 2
	.area idata
	.byte 16,34
	.area data(ram, con, rel)
	.dbfile E:\DMAVR-~3\TFTTEST\TFT.c
	.blkb 2
	.area idata
	.byte 126,0
	.area data(ram, con, rel)
	.dbfile E:\DMAVR-~3\TFTTEST\TFT.c
	.blkb 2
	.area idata
	.byte 0,0
	.area data(ram, con, rel)
	.dbfile E:\DMAVR-~3\TFTTEST\TFT.c
	.blkb 2
	.area idata
	.byte 3,4
	.area data(ram, con, rel)
	.dbfile E:\DMAVR-~3\TFTTEST\TFT.c
	.blkb 2
	.area idata
	.byte 4,4
	.area data(ram, con, rel)
	.dbfile E:\DMAVR-~3\TFTTEST\TFT.c
	.blkb 2
	.area idata
	.byte 4,4
	.area data(ram, con, rel)
	.dbfile E:\DMAVR-~3\TFTTEST\TFT.c
	.blkb 2
	.area idata
	.byte 8,4
	.area data(ram, con, rel)
	.dbfile E:\DMAVR-~3\TFTTEST\TFT.c
	.blkb 2
	.area idata
	.byte 4,4
	.area data(ram, con, rel)
	.dbfile E:\DMAVR-~3\TFTTEST\TFT.c
	.blkb 2
	.area idata
	.byte 4,4
	.area data(ram, con, rel)
	.dbfile E:\DMAVR-~3\TFTTEST\TFT.c
	.blkb 2
	.area idata
	.byte 4,3
	.area data(ram, con, rel)
	.dbfile E:\DMAVR-~3\TFTTEST\TFT.c
	.blkb 2
	.area idata
	.byte 0,0
	.area data(ram, con, rel)
	.dbfile E:\DMAVR-~3\TFTTEST\TFT.c
	.blkb 2
	.area idata
	.byte 8,8
	.area data(ram, con, rel)
	.dbfile E:\DMAVR-~3\TFTTEST\TFT.c
	.blkb 2
	.area idata
	.byte 8,8
	.area data(ram, con, rel)
	.dbfile E:\DMAVR-~3\TFTTEST\TFT.c
	.blkb 2
	.area idata
	.byte 8,8
	.area data(ram, con, rel)
	.dbfile E:\DMAVR-~3\TFTTEST\TFT.c
	.blkb 2
	.area idata
	.byte 8,8
	.area data(ram, con, rel)
	.dbfile E:\DMAVR-~3\TFTTEST\TFT.c
	.blkb 2
	.area idata
	.byte 8,8
	.area data(ram, con, rel)
	.dbfile E:\DMAVR-~3\TFTTEST\TFT.c
	.blkb 2
	.area idata
	.byte 8,8
	.area data(ram, con, rel)
	.dbfile E:\DMAVR-~3\TFTTEST\TFT.c
	.blkb 2
	.area idata
	.byte 8,8
	.area data(ram, con, rel)
	.dbfile E:\DMAVR-~3\TFTTEST\TFT.c
	.blkb 2
	.area idata
	.byte 8,0
	.area data(ram, con, rel)
	.dbfile E:\DMAVR-~3\TFTTEST\TFT.c
	.blkb 2
	.area idata
	.byte 96,16
	.area data(ram, con, rel)
	.dbfile E:\DMAVR-~3\TFTTEST\TFT.c
	.blkb 2
	.area idata
	.byte 16,16
	.area data(ram, con, rel)
	.dbfile E:\DMAVR-~3\TFTTEST\TFT.c
	.blkb 2
	.area idata
	.byte 16,16
	.area data(ram, con, rel)
	.dbfile E:\DMAVR-~3\TFTTEST\TFT.c
	.blkb 2
	.area idata
	.byte 8,16
	.area data(ram, con, rel)
	.dbfile E:\DMAVR-~3\TFTTEST\TFT.c
	.blkb 2
	.area idata
	.byte 16,16
	.area data(ram, con, rel)
	.dbfile E:\DMAVR-~3\TFTTEST\TFT.c
	.blkb 2
	.area idata
	.byte 16,16
	.area data(ram, con, rel)
	.dbfile E:\DMAVR-~3\TFTTEST\TFT.c
	.blkb 2
	.area idata
	.byte 16,96
	.area data(ram, con, rel)
	.dbfile E:\DMAVR-~3\TFTTEST\TFT.c
	.blkb 2
	.area idata
	.byte 0,0
	.area data(ram, con, rel)
	.dbfile E:\DMAVR-~3\TFTTEST\TFT.c
	.blkb 2
	.area idata
	.byte 'L,'C
	.area data(ram, con, rel)
	.dbfile E:\DMAVR-~3\TFTTEST\TFT.c
	.blkb 2
	.area idata
	.byte 0,0
	.area data(ram, con, rel)
	.dbfile E:\DMAVR-~3\TFTTEST\TFT.c
	.blkb 2
	.area idata
	.byte 0,0
	.area data(ram, con, rel)
	.dbfile E:\DMAVR-~3\TFTTEST\TFT.c
	.blkb 2
	.area idata
	.byte 0,0
	.area data(ram, con, rel)
	.dbfile E:\DMAVR-~3\TFTTEST\TFT.c
	.blkb 2
	.area idata
	.byte 0,0
	.area data(ram, con, rel)
	.dbfile E:\DMAVR-~3\TFTTEST\TFT.c
	.blkb 2
	.area idata
	.byte 0,0
	.area data(ram, con, rel)
	.dbfile E:\DMAVR-~3\TFTTEST\TFT.c
	.blkb 2
	.area idata
	.byte 0,0
	.area data(ram, con, rel)
	.dbfile E:\DMAVR-~3\TFTTEST\TFT.c
	.blkb 2
	.area idata
	.byte 0,0
	.area data(ram, con, rel)
	.dbfile E:\DMAVR-~3\TFTTEST\TFT.c
	.blkb 2
	.area idata
	.byte 0,0
	.area data(ram, con, rel)
	.dbfile E:\DMAVR-~3\TFTTEST\TFT.c
	.blkb 2
	.area idata
	.byte 0,0
	.area data(ram, con, rel)
	.dbfile E:\DMAVR-~3\TFTTEST\TFT.c
	.blkb 2
	.area idata
	.byte 0,0
	.area data(ram, con, rel)
	.dbfile E:\DMAVR-~3\TFTTEST\TFT.c
	.blkb 2
	.area idata
	.byte 0,0
	.area data(ram, con, rel)
	.dbfile E:\DMAVR-~3\TFTTEST\TFT.c
	.blkb 2
	.area idata
	.byte 0,0
	.area data(ram, con, rel)
	.dbfile E:\DMAVR-~3\TFTTEST\TFT.c
	.blkb 2
	.area idata
	.byte 0,0
	.area data(ram, con, rel)
	.dbfile E:\DMAVR-~3\TFTTEST\TFT.c
	.blkb 2
	.area idata
	.byte 0,0
	.area data(ram, con, rel)
	.dbfile E:\DMAVR-~3\TFTTEST\TFT.c
	.blkb 2
	.area idata
	.byte 0,0
	.area data(ram, con, rel)
	.dbfile E:\DMAVR-~3\TFTTEST\TFT.c
	.dbfile F:\PROGRA~1\iccavr\include\ascii8x16.h
	.dbsym e ascii _ascii A[2048:2048]c
_GB2312::
	.blkb 2
	.area idata
	.byte 8,0
	.area data(ram, con, rel)
	.dbfile F:\PROGRA~1\iccavr\include\ascii8x16.h
	.blkb 2
	.area idata
	.byte 15,252
	.area data(ram, con, rel)
	.dbfile F:\PROGRA~1\iccavr\include\ascii8x16.h
	.blkb 2
	.area idata
	.byte 16,128
	.area data(ram, con, rel)
	.dbfile F:\PROGRA~1\iccavr\include\ascii8x16.h
	.blkb 2
	.area idata
	.byte 16,128
	.area data(ram, con, rel)
	.dbfile F:\PROGRA~1\iccavr\include\ascii8x16.h
	.blkb 2
	.area idata
	.byte 32,128
	.area data(ram, con, rel)
	.dbfile F:\PROGRA~1\iccavr\include\ascii8x16.h
	.blkb 2
	.area idata
	.byte 'O,248
	.area data(ram, con, rel)
	.dbfile F:\PROGRA~1\iccavr\include\ascii8x16.h
	.blkb 2
	.area idata
	.byte 136,128
	.area data(ram, con, rel)
	.dbfile F:\PROGRA~1\iccavr\include\ascii8x16.h
	.blkb 2
	.area idata
	.byte 8,128
	.area data(ram, con, rel)
	.dbfile F:\PROGRA~1\iccavr\include\ascii8x16.h
	.blkb 2
	.area idata
	.byte 8,128
	.area data(ram, con, rel)
	.dbfile F:\PROGRA~1\iccavr\include\ascii8x16.h
	.blkb 2
	.area idata
	.byte 8,128
	.area data(ram, con, rel)
	.dbfile F:\PROGRA~1\iccavr\include\ascii8x16.h
	.blkb 2
	.area idata
	.byte 255,254
	.area data(ram, con, rel)
	.dbfile F:\PROGRA~1\iccavr\include\ascii8x16.h
	.blkb 2
	.area idata
	.byte 0,128
	.area data(ram, con, rel)
	.dbfile F:\PROGRA~1\iccavr\include\ascii8x16.h
	.blkb 2
	.area idata
	.byte 0,128
	.area data(ram, con, rel)
	.dbfile F:\PROGRA~1\iccavr\include\ascii8x16.h
	.blkb 2
	.area idata
	.byte 0,128
	.area data(ram, con, rel)
	.dbfile F:\PROGRA~1\iccavr\include\ascii8x16.h
	.blkb 2
	.area idata
	.byte 0,128
	.area data(ram, con, rel)
	.dbfile F:\PROGRA~1\iccavr\include\ascii8x16.h
	.blkb 2
	.area idata
	.byte 0,128
	.area data(ram, con, rel)
	.dbfile F:\PROGRA~1\iccavr\include\ascii8x16.h
	.blkb 2
	.area idata
	.byte 7,240
	.area data(ram, con, rel)
	.dbfile F:\PROGRA~1\iccavr\include\ascii8x16.h
	.blkb 2
	.area idata
	.byte 4,16
	.area data(ram, con, rel)
	.dbfile F:\PROGRA~1\iccavr\include\ascii8x16.h
	.blkb 2
	.area idata
	.byte 4,16
	.area data(ram, con, rel)
	.dbfile F:\PROGRA~1\iccavr\include\ascii8x16.h
	.blkb 2
	.area idata
	.byte 4,16
	.area data(ram, con, rel)
	.dbfile F:\PROGRA~1\iccavr\include\ascii8x16.h
	.blkb 2
	.area idata
	.byte 7,240
	.area data(ram, con, rel)
	.dbfile F:\PROGRA~1\iccavr\include\ascii8x16.h
	.blkb 2
	.area idata
	.byte 4,16
	.area data(ram, con, rel)
	.dbfile F:\PROGRA~1\iccavr\include\ascii8x16.h
	.blkb 2
	.area idata
	.byte 4,16
	.area data(ram, con, rel)
	.dbfile F:\PROGRA~1\iccavr\include\ascii8x16.h
	.blkb 2
	.area idata
	.byte 4,16
	.area data(ram, con, rel)
	.dbfile F:\PROGRA~1\iccavr\include\ascii8x16.h
	.blkb 2
	.area idata
	.byte 7,240
	.area data(ram, con, rel)
	.dbfile F:\PROGRA~1\iccavr\include\ascii8x16.h
	.blkb 2
	.area idata
	.byte 4,16
	.area data(ram, con, rel)
	.dbfile F:\PROGRA~1\iccavr\include\ascii8x16.h
	.blkb 2
	.area idata
	.byte 8,16
	.area data(ram, con, rel)
	.dbfile F:\PROGRA~1\iccavr\include\ascii8x16.h
	.blkb 2
	.area idata
	.byte 8,16
	.area data(ram, con, rel)
	.dbfile F:\PROGRA~1\iccavr\include\ascii8x16.h
	.blkb 2
	.area idata
	.byte 16,16
	.area data(ram, con, rel)
	.dbfile F:\PROGRA~1\iccavr\include\ascii8x16.h
	.blkb 2
	.area idata
	.byte 32,'P
	.area data(ram, con, rel)
	.dbfile F:\PROGRA~1\iccavr\include\ascii8x16.h
	.blkb 2
	.area idata
	.byte 64,32
	.area data(ram, con, rel)
	.dbfile F:\PROGRA~1\iccavr\include\ascii8x16.h
	.blkb 2
	.area idata
	.byte 0,0
	.area data(ram, con, rel)
	.dbfile F:\PROGRA~1\iccavr\include\ascii8x16.h
	.blkb 2
	.area idata
	.byte 0,0
	.area data(ram, con, rel)
	.dbfile F:\PROGRA~1\iccavr\include\ascii8x16.h
	.blkb 2
	.area idata
	.byte 31,240
	.area data(ram, con, rel)
	.dbfile F:\PROGRA~1\iccavr\include\ascii8x16.h
	.blkb 2
	.area idata
	.byte 16,16
	.area data(ram, con, rel)
	.dbfile F:\PROGRA~1\iccavr\include\ascii8x16.h
	.blkb 2
	.area idata
	.byte 16,16
	.area data(ram, con, rel)
	.dbfile F:\PROGRA~1\iccavr\include\ascii8x16.h
	.blkb 2
	.area idata
	.byte 16,16
	.area data(ram, con, rel)
	.dbfile F:\PROGRA~1\iccavr\include\ascii8x16.h
	.blkb 2
	.area idata
	.byte 16,16
	.area data(ram, con, rel)
	.dbfile F:\PROGRA~1\iccavr\include\ascii8x16.h
	.blkb 2
	.area idata
	.byte 31,240
	.area data(ram, con, rel)
	.dbfile F:\PROGRA~1\iccavr\include\ascii8x16.h
	.blkb 2
	.area idata
	.byte 16,16
	.area data(ram, con, rel)
	.dbfile F:\PROGRA~1\iccavr\include\ascii8x16.h
	.blkb 2
	.area idata
	.byte 16,16
	.area data(ram, con, rel)
	.dbfile F:\PROGRA~1\iccavr\include\ascii8x16.h
	.blkb 2
	.area idata
	.byte 16,16
	.area data(ram, con, rel)
	.dbfile F:\PROGRA~1\iccavr\include\ascii8x16.h
	.blkb 2
	.area idata
	.byte 16,16
	.area data(ram, con, rel)
	.dbfile F:\PROGRA~1\iccavr\include\ascii8x16.h
	.blkb 2
	.area idata
	.byte 16,16
	.area data(ram, con, rel)
	.dbfile F:\PROGRA~1\iccavr\include\ascii8x16.h
	.blkb 2
	.area idata
	.byte 31,240
	.area data(ram, con, rel)
	.dbfile F:\PROGRA~1\iccavr\include\ascii8x16.h
	.blkb 2
	.area idata
	.byte 16,16
	.area data(ram, con, rel)
	.dbfile F:\PROGRA~1\iccavr\include\ascii8x16.h
	.blkb 2
	.area idata
	.byte 0,0
	.area data(ram, con, rel)
	.dbfile F:\PROGRA~1\iccavr\include\ascii8x16.h
	.blkb 2
	.area idata
	.byte 0,0
	.area data(ram, con, rel)
	.dbfile F:\PROGRA~1\iccavr\include\ascii8x16.h
	.blkb 2
	.area idata
	.byte 0,16
	.area data(ram, con, rel)
	.dbfile F:\PROGRA~1\iccavr\include\ascii8x16.h
	.blkb 2
	.area idata
	.byte 0,16
	.area data(ram, con, rel)
	.dbfile F:\PROGRA~1\iccavr\include\ascii8x16.h
	.blkb 2
	.area idata
	.byte 124,16
	.area data(ram, con, rel)
	.dbfile F:\PROGRA~1\iccavr\include\ascii8x16.h
	.blkb 2
	.area idata
	.byte 'D,16
	.area data(ram, con, rel)
	.dbfile F:\PROGRA~1\iccavr\include\ascii8x16.h
	.blkb 2
	.area idata
	.byte 'G,254
	.area data(ram, con, rel)
	.dbfile F:\PROGRA~1\iccavr\include\ascii8x16.h
	.blkb 2
	.area idata
	.byte 'D,16
	.area data(ram, con, rel)
	.dbfile F:\PROGRA~1\iccavr\include\ascii8x16.h
	.blkb 2
	.area idata
	.byte 124,16
	.area data(ram, con, rel)
	.dbfile F:\PROGRA~1\iccavr\include\ascii8x16.h
	.blkb 2
	.area idata
	.byte 'E,16
	.area data(ram, con, rel)
	.dbfile F:\PROGRA~1\iccavr\include\ascii8x16.h
	.blkb 2
	.area idata
	.byte 'D,144
	.area data(ram, con, rel)
	.dbfile F:\PROGRA~1\iccavr\include\ascii8x16.h
	.blkb 2
	.area idata
	.byte 'D,144
	.area data(ram, con, rel)
	.dbfile F:\PROGRA~1\iccavr\include\ascii8x16.h
	.blkb 2
	.area idata
	.byte 124,16
	.area data(ram, con, rel)
	.dbfile F:\PROGRA~1\iccavr\include\ascii8x16.h
	.blkb 2
	.area idata
	.byte 0,16
	.area data(ram, con, rel)
	.dbfile F:\PROGRA~1\iccavr\include\ascii8x16.h
	.blkb 2
	.area idata
	.byte 0,16
	.area data(ram, con, rel)
	.dbfile F:\PROGRA~1\iccavr\include\ascii8x16.h
	.blkb 2
	.area idata
	.byte 0,16
	.area data(ram, con, rel)
	.dbfile F:\PROGRA~1\iccavr\include\ascii8x16.h
	.blkb 2
	.area idata
	.byte 0,'P
	.area data(ram, con, rel)
	.dbfile F:\PROGRA~1\iccavr\include\ascii8x16.h
	.blkb 2
	.area idata
	.byte 0,32
	.area data(ram, con, rel)
	.dbfile F:\PROGRA~1\iccavr\include\ascii8x16.h
	.blkb 2
	.area idata
	.byte 8,128
	.area data(ram, con, rel)
	.dbfile F:\PROGRA~1\iccavr\include\ascii8x16.h
	.blkb 2
	.area idata
	.byte 12,128
	.area data(ram, con, rel)
	.dbfile F:\PROGRA~1\iccavr\include\ascii8x16.h
	.blkb 2
	.area idata
	.byte 8,64
	.area data(ram, con, rel)
	.dbfile F:\PROGRA~1\iccavr\include\ascii8x16.h
	.blkb 2
	.area idata
	.byte 16,32
	.area data(ram, con, rel)
	.dbfile F:\PROGRA~1\iccavr\include\ascii8x16.h
	.blkb 2
	.area idata
	.byte 16,48
	.area data(ram, con, rel)
	.dbfile F:\PROGRA~1\iccavr\include\ascii8x16.h
	.blkb 2
	.area idata
	.byte 32,24
	.area data(ram, con, rel)
	.dbfile F:\PROGRA~1\iccavr\include\ascii8x16.h
	.blkb 2
	.area idata
	.byte 64,14
	.area data(ram, con, rel)
	.dbfile F:\PROGRA~1\iccavr\include\ascii8x16.h
	.blkb 2
	.area idata
	.byte 159,228
	.area data(ram, con, rel)
	.dbfile F:\PROGRA~1\iccavr\include\ascii8x16.h
	.blkb 2
	.area idata
	.byte 4,32
	.area data(ram, con, rel)
	.dbfile F:\PROGRA~1\iccavr\include\ascii8x16.h
	.blkb 2
	.area idata
	.byte 4,32
	.area data(ram, con, rel)
	.dbfile F:\PROGRA~1\iccavr\include\ascii8x16.h
	.blkb 2
	.area idata
	.byte 4,32
	.area data(ram, con, rel)
	.dbfile F:\PROGRA~1\iccavr\include\ascii8x16.h
	.blkb 2
	.area idata
	.byte 4,32
	.area data(ram, con, rel)
	.dbfile F:\PROGRA~1\iccavr\include\ascii8x16.h
	.blkb 2
	.area idata
	.byte 8,32
	.area data(ram, con, rel)
	.dbfile F:\PROGRA~1\iccavr\include\ascii8x16.h
	.blkb 2
	.area idata
	.byte 16,160
	.area data(ram, con, rel)
	.dbfile F:\PROGRA~1\iccavr\include\ascii8x16.h
	.blkb 2
	.area idata
	.byte 32,64
	.area data(ram, con, rel)
	.dbfile F:\PROGRA~1\iccavr\include\ascii8x16.h
	.blkb 2
	.area idata
	.byte 64,0
	.area data(ram, con, rel)
	.dbfile F:\PROGRA~1\iccavr\include\ascii8x16.h
	.blkb 2
	.area idata
	.byte 12,32
	.area data(ram, con, rel)
	.dbfile F:\PROGRA~1\iccavr\include\ascii8x16.h
	.blkb 2
	.area idata
	.byte 240,32
	.area data(ram, con, rel)
	.dbfile F:\PROGRA~1\iccavr\include\ascii8x16.h
	.blkb 2
	.area idata
	.byte 16,32
	.area data(ram, con, rel)
	.dbfile F:\PROGRA~1\iccavr\include\ascii8x16.h
	.blkb 2
	.area idata
	.byte 17,40
	.area data(ram, con, rel)
	.dbfile F:\PROGRA~1\iccavr\include\ascii8x16.h
	.blkb 2
	.area idata
	.byte 253,164
	.area data(ram, con, rel)
	.dbfile F:\PROGRA~1\iccavr\include\ascii8x16.h
	.blkb 2
	.area idata
	.byte 17,34
	.area data(ram, con, rel)
	.dbfile F:\PROGRA~1\iccavr\include\ascii8x16.h
	.blkb 2
	.area idata
	.byte 50,34
	.area data(ram, con, rel)
	.dbfile F:\PROGRA~1\iccavr\include\ascii8x16.h
	.blkb 2
	.area idata
	.byte 58,32
	.area data(ram, con, rel)
	.dbfile F:\PROGRA~1\iccavr\include\ascii8x16.h
	.blkb 2
	.area idata
	.byte 'T,34
	.area data(ram, con, rel)
	.dbfile F:\PROGRA~1\iccavr\include\ascii8x16.h
	.blkb 2
	.area idata
	.byte 'T,34
	.area data(ram, con, rel)
	.dbfile F:\PROGRA~1\iccavr\include\ascii8x16.h
	.blkb 2
	.area idata
	.byte 144,4
	.area data(ram, con, rel)
	.dbfile F:\PROGRA~1\iccavr\include\ascii8x16.h
	.blkb 2
	.area idata
	.byte 16,8
	.area data(ram, con, rel)
	.dbfile F:\PROGRA~1\iccavr\include\ascii8x16.h
	.blkb 2
	.area idata
	.byte 16,16
	.area data(ram, con, rel)
	.dbfile F:\PROGRA~1\iccavr\include\ascii8x16.h
	.blkb 2
	.area idata
	.byte 16,96
	.area data(ram, con, rel)
	.dbfile F:\PROGRA~1\iccavr\include\ascii8x16.h
	.blkb 2
	.area idata
	.byte 17,128
	.area data(ram, con, rel)
	.dbfile F:\PROGRA~1\iccavr\include\ascii8x16.h
	.blkb 2
	.area idata
	.byte 22,0
	.area data(ram, con, rel)
	.dbfile F:\PROGRA~1\iccavr\include\ascii8x16.h
	.blkb 2
	.area idata
	.byte 0,8
	.area data(ram, con, rel)
	.dbfile F:\PROGRA~1\iccavr\include\ascii8x16.h
	.blkb 2
	.area idata
	.byte 63,252
	.area data(ram, con, rel)
	.dbfile F:\PROGRA~1\iccavr\include\ascii8x16.h
	.blkb 2
	.area idata
	.byte 32,8
	.area data(ram, con, rel)
	.dbfile F:\PROGRA~1\iccavr\include\ascii8x16.h
	.blkb 2
	.area idata
	.byte 63,248
	.area data(ram, con, rel)
	.dbfile F:\PROGRA~1\iccavr\include\ascii8x16.h
	.blkb 2
	.area idata
	.byte 32,8
	.area data(ram, con, rel)
	.dbfile F:\PROGRA~1\iccavr\include\ascii8x16.h
	.blkb 2
	.area idata
	.byte 63,248
	.area data(ram, con, rel)
	.dbfile F:\PROGRA~1\iccavr\include\ascii8x16.h
	.blkb 2
	.area idata
	.byte 1,0
	.area data(ram, con, rel)
	.dbfile F:\PROGRA~1\iccavr\include\ascii8x16.h
	.blkb 2
	.area idata
	.byte 33,8
	.area data(ram, con, rel)
	.dbfile F:\PROGRA~1\iccavr\include\ascii8x16.h
	.blkb 2
	.area idata
	.byte 63,252
	.area data(ram, con, rel)
	.dbfile F:\PROGRA~1\iccavr\include\ascii8x16.h
	.blkb 2
	.area idata
	.byte 33,0
	.area data(ram, con, rel)
	.dbfile F:\PROGRA~1\iccavr\include\ascii8x16.h
	.blkb 2
	.area idata
	.byte 'A,16
	.area data(ram, con, rel)
	.dbfile F:\PROGRA~1\iccavr\include\ascii8x16.h
	.blkb 2
	.area idata
	.byte 191,248
	.area data(ram, con, rel)
	.dbfile F:\PROGRA~1\iccavr\include\ascii8x16.h
	.blkb 2
	.area idata
	.byte 1,0
	.area data(ram, con, rel)
	.dbfile F:\PROGRA~1\iccavr\include\ascii8x16.h
	.blkb 2
	.area idata
	.byte 1,4
	.area data(ram, con, rel)
	.dbfile F:\PROGRA~1\iccavr\include\ascii8x16.h
	.blkb 2
	.area idata
	.byte 255,254
	.area data(ram, con, rel)
	.dbfile F:\PROGRA~1\iccavr\include\ascii8x16.h
	.blkb 2
	.area idata
	.byte 0,0
	.area data(ram, con, rel)
	.dbfile F:\PROGRA~1\iccavr\include\ascii8x16.h
	.blkb 2
	.area idata
	.byte 34,4
	.area data(ram, con, rel)
	.dbfile F:\PROGRA~1\iccavr\include\ascii8x16.h
	.blkb 2
	.area idata
	.byte 34,126
	.area data(ram, con, rel)
	.dbfile F:\PROGRA~1\iccavr\include\ascii8x16.h
	.blkb 2
	.area idata
	.byte 34,'D
	.area data(ram, con, rel)
	.dbfile F:\PROGRA~1\iccavr\include\ascii8x16.h
	.blkb 2
	.area idata
	.byte 127,'D
	.area data(ram, con, rel)
	.dbfile F:\PROGRA~1\iccavr\include\ascii8x16.h
	.blkb 2
	.area idata
	.byte 34,'D
	.area data(ram, con, rel)
	.dbfile F:\PROGRA~1\iccavr\include\ascii8x16.h
	.blkb 2
	.area idata
	.byte 62,124
	.area data(ram, con, rel)
	.dbfile F:\PROGRA~1\iccavr\include\ascii8x16.h
	.blkb 2
	.area idata
	.byte 34,'D
	.area data(ram, con, rel)
	.dbfile F:\PROGRA~1\iccavr\include\ascii8x16.h
	.blkb 2
	.area idata
	.byte 62,'D
	.area data(ram, con, rel)
	.dbfile F:\PROGRA~1\iccavr\include\ascii8x16.h
	.blkb 2
	.area idata
	.byte 34,'D
	.area data(ram, con, rel)
	.dbfile F:\PROGRA~1\iccavr\include\ascii8x16.h
	.blkb 2
	.area idata
	.byte 34,124
	.area data(ram, con, rel)
	.dbfile F:\PROGRA~1\iccavr\include\ascii8x16.h
	.blkb 2
	.area idata
	.byte 255,196
	.area data(ram, con, rel)
	.dbfile F:\PROGRA~1\iccavr\include\ascii8x16.h
	.blkb 2
	.area idata
	.byte 0,'D
	.area data(ram, con, rel)
	.dbfile F:\PROGRA~1\iccavr\include\ascii8x16.h
	.blkb 2
	.area idata
	.byte 36,'D
	.area data(ram, con, rel)
	.dbfile F:\PROGRA~1\iccavr\include\ascii8x16.h
	.blkb 2
	.area idata
	.byte 34,132
	.area data(ram, con, rel)
	.dbfile F:\PROGRA~1\iccavr\include\ascii8x16.h
	.blkb 2
	.area idata
	.byte 'A,20
	.area data(ram, con, rel)
	.dbfile F:\PROGRA~1\iccavr\include\ascii8x16.h
	.blkb 2
	.area idata
	.byte 130,8
	.area data(ram, con, rel)
	.dbfile F:\PROGRA~1\iccavr\include\ascii8x16.h
	.blkb 2
	.area idata
	.byte 0,0
	.area data(ram, con, rel)
	.dbfile F:\PROGRA~1\iccavr\include\ascii8x16.h
	.blkb 2
	.area idata
	.byte 0,0
	.area data(ram, con, rel)
	.dbfile F:\PROGRA~1\iccavr\include\ascii8x16.h
	.blkb 2
	.area idata
	.byte 0,0
	.area data(ram, con, rel)
	.dbfile F:\PROGRA~1\iccavr\include\ascii8x16.h
	.blkb 2
	.area idata
	.byte 0,0
	.area data(ram, con, rel)
	.dbfile F:\PROGRA~1\iccavr\include\ascii8x16.h
	.blkb 2
	.area idata
	.byte 0,0
	.area data(ram, con, rel)
	.dbfile F:\PROGRA~1\iccavr\include\ascii8x16.h
	.blkb 2
	.area idata
	.byte 0,0
	.area data(ram, con, rel)
	.dbfile F:\PROGRA~1\iccavr\include\ascii8x16.h
	.blkb 2
	.area idata
	.byte 0,4
	.area data(ram, con, rel)
	.dbfile F:\PROGRA~1\iccavr\include\ascii8x16.h
	.blkb 2
	.area idata
	.byte 255,254
	.area data(ram, con, rel)
	.dbfile F:\PROGRA~1\iccavr\include\ascii8x16.h
	.blkb 2
	.area idata
	.byte 0,0
	.area data(ram, con, rel)
	.dbfile F:\PROGRA~1\iccavr\include\ascii8x16.h
	.blkb 2
	.area idata
	.byte 0,0
	.area data(ram, con, rel)
	.dbfile F:\PROGRA~1\iccavr\include\ascii8x16.h
	.blkb 2
	.area idata
	.byte 0,0
	.area data(ram, con, rel)
	.dbfile F:\PROGRA~1\iccavr\include\ascii8x16.h
	.blkb 2
	.area idata
	.byte 0,0
	.area data(ram, con, rel)
	.dbfile F:\PROGRA~1\iccavr\include\ascii8x16.h
	.blkb 2
	.area idata
	.byte 0,0
	.area data(ram, con, rel)
	.dbfile F:\PROGRA~1\iccavr\include\ascii8x16.h
	.blkb 2
	.area idata
	.byte 0,0
	.area data(ram, con, rel)
	.dbfile F:\PROGRA~1\iccavr\include\ascii8x16.h
	.blkb 2
	.area idata
	.byte 0,0
	.area data(ram, con, rel)
	.dbfile F:\PROGRA~1\iccavr\include\ascii8x16.h
	.blkb 2
	.area idata
	.byte 0,0
	.area data(ram, con, rel)
	.dbfile F:\PROGRA~1\iccavr\include\ascii8x16.h
	.blkb 2
	.area idata
	.byte 0,0
	.area data(ram, con, rel)
	.dbfile F:\PROGRA~1\iccavr\include\ascii8x16.h
	.blkb 2
	.area idata
	.byte 0,0
	.area data(ram, con, rel)
	.dbfile F:\PROGRA~1\iccavr\include\ascii8x16.h
	.blkb 2
	.area idata
	.byte 0,16
	.area data(ram, con, rel)
	.dbfile F:\PROGRA~1\iccavr\include\ascii8x16.h
	.blkb 2
	.area idata
	.byte 63,248
	.area data(ram, con, rel)
	.dbfile F:\PROGRA~1\iccavr\include\ascii8x16.h
	.blkb 2
	.area idata
	.byte 0,0
	.area data(ram, con, rel)
	.dbfile F:\PROGRA~1\iccavr\include\ascii8x16.h
	.blkb 2
	.area idata
	.byte 0,0
	.area data(ram, con, rel)
	.dbfile F:\PROGRA~1\iccavr\include\ascii8x16.h
	.blkb 2
	.area idata
	.byte 0,0
	.area data(ram, con, rel)
	.dbfile F:\PROGRA~1\iccavr\include\ascii8x16.h
	.blkb 2
	.area idata
	.byte 0,0
	.area data(ram, con, rel)
	.dbfile F:\PROGRA~1\iccavr\include\ascii8x16.h
	.blkb 2
	.area idata
	.byte 0,0
	.area data(ram, con, rel)
	.dbfile F:\PROGRA~1\iccavr\include\ascii8x16.h
	.blkb 2
	.area idata
	.byte 0,0
	.area data(ram, con, rel)
	.dbfile F:\PROGRA~1\iccavr\include\ascii8x16.h
	.blkb 2
	.area idata
	.byte 0,0
	.area data(ram, con, rel)
	.dbfile F:\PROGRA~1\iccavr\include\ascii8x16.h
	.blkb 2
	.area idata
	.byte 0,4
	.area data(ram, con, rel)
	.dbfile F:\PROGRA~1\iccavr\include\ascii8x16.h
	.blkb 2
	.area idata
	.byte 255,254
	.area data(ram, con, rel)
	.dbfile F:\PROGRA~1\iccavr\include\ascii8x16.h
	.blkb 2
	.area idata
	.byte 0,0
	.area data(ram, con, rel)
	.dbfile F:\PROGRA~1\iccavr\include\ascii8x16.h
	.blkb 2
	.area idata
	.byte 0,0
	.area data(ram, con, rel)
	.dbfile F:\PROGRA~1\iccavr\include\ascii8x16.h
	.blkb 2
	.area idata
	.byte 0,0
	.area data(ram, con, rel)
	.dbfile F:\PROGRA~1\iccavr\include\ascii8x16.h
	.blkb 2
	.area idata
	.byte 0,0
	.area data(ram, con, rel)
	.dbfile F:\PROGRA~1\iccavr\include\ascii8x16.h
	.blkb 2
	.area idata
	.byte 0,8
	.area data(ram, con, rel)
	.dbfile F:\PROGRA~1\iccavr\include\ascii8x16.h
	.blkb 2
	.area idata
	.byte 127,252
	.area data(ram, con, rel)
	.dbfile F:\PROGRA~1\iccavr\include\ascii8x16.h
	.blkb 2
	.area idata
	.byte 0,0
	.area data(ram, con, rel)
	.dbfile F:\PROGRA~1\iccavr\include\ascii8x16.h
	.blkb 2
	.area idata
	.byte 0,0
	.area data(ram, con, rel)
	.dbfile F:\PROGRA~1\iccavr\include\ascii8x16.h
	.blkb 2
	.area idata
	.byte 0,0
	.area data(ram, con, rel)
	.dbfile F:\PROGRA~1\iccavr\include\ascii8x16.h
	.blkb 2
	.area idata
	.byte 0,16
	.area data(ram, con, rel)
	.dbfile F:\PROGRA~1\iccavr\include\ascii8x16.h
	.blkb 2
	.area idata
	.byte 63,248
	.area data(ram, con, rel)
	.dbfile F:\PROGRA~1\iccavr\include\ascii8x16.h
	.blkb 2
	.area idata
	.byte 0,0
	.area data(ram, con, rel)
	.dbfile F:\PROGRA~1\iccavr\include\ascii8x16.h
	.blkb 2
	.area idata
	.byte 0,0
	.area data(ram, con, rel)
	.dbfile F:\PROGRA~1\iccavr\include\ascii8x16.h
	.blkb 2
	.area idata
	.byte 0,0
	.area data(ram, con, rel)
	.dbfile F:\PROGRA~1\iccavr\include\ascii8x16.h
	.blkb 2
	.area idata
	.byte 0,0
	.area data(ram, con, rel)
	.dbfile F:\PROGRA~1\iccavr\include\ascii8x16.h
	.blkb 2
	.area idata
	.byte 0,4
	.area data(ram, con, rel)
	.dbfile F:\PROGRA~1\iccavr\include\ascii8x16.h
	.blkb 2
	.area idata
	.byte 255,254
	.area data(ram, con, rel)
	.dbfile F:\PROGRA~1\iccavr\include\ascii8x16.h
	.blkb 2
	.area idata
	.byte 0,0
	.area data(ram, con, rel)
	.dbfile F:\PROGRA~1\iccavr\include\ascii8x16.h
	.blkb 2
	.area idata
	.byte 0,0
	.area data(ram, con, rel)
	.dbfile F:\PROGRA~1\iccavr\include\ascii8x16.h
	.blkb 2
	.area idata
	.byte 0,0
	.area data(ram, con, rel)
	.dbfile F:\PROGRA~1\iccavr\include\ascii8x16.h
	.blkb 2
	.area idata
	.byte 0,4
	.area data(ram, con, rel)
	.dbfile F:\PROGRA~1\iccavr\include\ascii8x16.h
	.blkb 2
	.area idata
	.byte 127,254
	.area data(ram, con, rel)
	.dbfile F:\PROGRA~1\iccavr\include\ascii8x16.h
	.blkb 2
	.area idata
	.byte 'D,'D
	.area data(ram, con, rel)
	.dbfile F:\PROGRA~1\iccavr\include\ascii8x16.h
	.blkb 2
	.area idata
	.byte 'D,'D
	.area data(ram, con, rel)
	.dbfile F:\PROGRA~1\iccavr\include\ascii8x16.h
	.blkb 2
	.area idata
	.byte 'D,'D
	.area data(ram, con, rel)
	.dbfile F:\PROGRA~1\iccavr\include\ascii8x16.h
	.blkb 2
	.area idata
	.byte 'D,'D
	.area data(ram, con, rel)
	.dbfile F:\PROGRA~1\iccavr\include\ascii8x16.h
	.blkb 2
	.area idata
	.byte 'D,'D
	.area data(ram, con, rel)
	.dbfile F:\PROGRA~1\iccavr\include\ascii8x16.h
	.blkb 2
	.area idata
	.byte 'D,'D
	.area data(ram, con, rel)
	.dbfile F:\PROGRA~1\iccavr\include\ascii8x16.h
	.blkb 2
	.area idata
	.byte 'D,60
	.area data(ram, con, rel)
	.dbfile F:\PROGRA~1\iccavr\include\ascii8x16.h
	.blkb 2
	.area idata
	.byte 'H,4
	.area data(ram, con, rel)
	.dbfile F:\PROGRA~1\iccavr\include\ascii8x16.h
	.blkb 2
	.area idata
	.byte 'P,4
	.area data(ram, con, rel)
	.dbfile F:\PROGRA~1\iccavr\include\ascii8x16.h
	.blkb 2
	.area idata
	.byte 64,4
	.area data(ram, con, rel)
	.dbfile F:\PROGRA~1\iccavr\include\ascii8x16.h
	.blkb 2
	.area idata
	.byte 127,252
	.area data(ram, con, rel)
	.dbfile F:\PROGRA~1\iccavr\include\ascii8x16.h
	.blkb 2
	.area idata
	.byte 64,4
	.area data(ram, con, rel)
	.dbfile F:\PROGRA~1\iccavr\include\ascii8x16.h
	.blkb 2
	.area idata
	.byte 0,0
	.area data(ram, con, rel)
	.dbfile F:\PROGRA~1\iccavr\include\ascii8x16.h
	.blkb 2
	.area idata
	.byte 0,0
	.area data(ram, con, rel)
	.dbfile F:\PROGRA~1\iccavr\include\ascii8x16.h
	.blkb 2
	.area idata
	.byte 0,8
	.area data(ram, con, rel)
	.dbfile F:\PROGRA~1\iccavr\include\ascii8x16.h
	.blkb 2
	.area idata
	.byte 127,252
	.area data(ram, con, rel)
	.dbfile F:\PROGRA~1\iccavr\include\ascii8x16.h
	.blkb 2
	.area idata
	.byte 2,0
	.area data(ram, con, rel)
	.dbfile F:\PROGRA~1\iccavr\include\ascii8x16.h
	.blkb 2
	.area idata
	.byte 2,0
	.area data(ram, con, rel)
	.dbfile F:\PROGRA~1\iccavr\include\ascii8x16.h
	.blkb 2
	.area idata
	.byte 2,0
	.area data(ram, con, rel)
	.dbfile F:\PROGRA~1\iccavr\include\ascii8x16.h
	.blkb 2
	.area idata
	.byte 2,16
	.area data(ram, con, rel)
	.dbfile F:\PROGRA~1\iccavr\include\ascii8x16.h
	.blkb 2
	.area idata
	.byte 63,252
	.area data(ram, con, rel)
	.dbfile F:\PROGRA~1\iccavr\include\ascii8x16.h
	.blkb 2
	.area idata
	.byte 4,16
	.area data(ram, con, rel)
	.dbfile F:\PROGRA~1\iccavr\include\ascii8x16.h
	.blkb 2
	.area idata
	.byte 4,16
	.area data(ram, con, rel)
	.dbfile F:\PROGRA~1\iccavr\include\ascii8x16.h
	.blkb 2
	.area idata
	.byte 4,16
	.area data(ram, con, rel)
	.dbfile F:\PROGRA~1\iccavr\include\ascii8x16.h
	.blkb 2
	.area idata
	.byte 8,16
	.area data(ram, con, rel)
	.dbfile F:\PROGRA~1\iccavr\include\ascii8x16.h
	.blkb 2
	.area idata
	.byte 8,16
	.area data(ram, con, rel)
	.dbfile F:\PROGRA~1\iccavr\include\ascii8x16.h
	.blkb 2
	.area idata
	.byte 8,20
	.area data(ram, con, rel)
	.dbfile F:\PROGRA~1\iccavr\include\ascii8x16.h
	.blkb 2
	.area idata
	.byte 255,254
	.area data(ram, con, rel)
	.dbfile F:\PROGRA~1\iccavr\include\ascii8x16.h
	.blkb 2
	.area idata
	.byte 0,0
	.area data(ram, con, rel)
	.dbfile F:\PROGRA~1\iccavr\include\ascii8x16.h
	.blkb 2
	.area idata
	.byte 0,0
	.area data(ram, con, rel)
	.dbfile F:\PROGRA~1\iccavr\include\ascii8x16.h
	.blkb 2
	.area idata
	.byte 4,0
	.area data(ram, con, rel)
	.dbfile F:\PROGRA~1\iccavr\include\ascii8x16.h
	.blkb 2
	.area idata
	.byte 2,0
	.area data(ram, con, rel)
	.dbfile F:\PROGRA~1\iccavr\include\ascii8x16.h
	.blkb 2
	.area idata
	.byte 3,0
	.area data(ram, con, rel)
	.dbfile F:\PROGRA~1\iccavr\include\ascii8x16.h
	.blkb 2
	.area idata
	.byte 1,4
	.area data(ram, con, rel)
	.dbfile F:\PROGRA~1\iccavr\include\ascii8x16.h
	.blkb 2
	.area idata
	.byte 255,254
	.area data(ram, con, rel)
	.dbfile F:\PROGRA~1\iccavr\include\ascii8x16.h
	.blkb 2
	.area idata
	.byte 0,0
	.area data(ram, con, rel)
	.dbfile F:\PROGRA~1\iccavr\include\ascii8x16.h
	.blkb 2
	.area idata
	.byte 0,0
	.area data(ram, con, rel)
	.dbfile F:\PROGRA~1\iccavr\include\ascii8x16.h
	.blkb 2
	.area idata
	.byte 4,64
	.area data(ram, con, rel)
	.dbfile F:\PROGRA~1\iccavr\include\ascii8x16.h
	.blkb 2
	.area idata
	.byte 12,32
	.area data(ram, con, rel)
	.dbfile F:\PROGRA~1\iccavr\include\ascii8x16.h
	.blkb 2
	.area idata
	.byte 8,16
	.area data(ram, con, rel)
	.dbfile F:\PROGRA~1\iccavr\include\ascii8x16.h
	.blkb 2
	.area idata
	.byte 16,24
	.area data(ram, con, rel)
	.dbfile F:\PROGRA~1\iccavr\include\ascii8x16.h
	.blkb 2
	.area idata
	.byte 16,12
	.area data(ram, con, rel)
	.dbfile F:\PROGRA~1\iccavr\include\ascii8x16.h
	.blkb 2
	.area idata
	.byte 32,12
	.area data(ram, con, rel)
	.dbfile F:\PROGRA~1\iccavr\include\ascii8x16.h
	.blkb 2
	.area idata
	.byte 64,4
	.area data(ram, con, rel)
	.dbfile F:\PROGRA~1\iccavr\include\ascii8x16.h
	.blkb 2
	.area idata
	.byte 0,0
	.area data(ram, con, rel)
	.dbfile F:\PROGRA~1\iccavr\include\ascii8x16.h
	.blkb 2
	.area idata
	.byte 0,16
	.area data(ram, con, rel)
	.dbfile F:\PROGRA~1\iccavr\include\ascii8x16.h
	.blkb 2
	.area idata
	.byte 31,248
	.area data(ram, con, rel)
	.dbfile F:\PROGRA~1\iccavr\include\ascii8x16.h
	.blkb 2
	.area idata
	.byte 16,16
	.area data(ram, con, rel)
	.dbfile F:\PROGRA~1\iccavr\include\ascii8x16.h
	.blkb 2
	.area idata
	.byte 16,16
	.area data(ram, con, rel)
	.dbfile F:\PROGRA~1\iccavr\include\ascii8x16.h
	.blkb 2
	.area idata
	.byte 16,16
	.area data(ram, con, rel)
	.dbfile F:\PROGRA~1\iccavr\include\ascii8x16.h
	.blkb 2
	.area idata
	.byte 16,16
	.area data(ram, con, rel)
	.dbfile F:\PROGRA~1\iccavr\include\ascii8x16.h
	.blkb 2
	.area idata
	.byte 16,16
	.area data(ram, con, rel)
	.dbfile F:\PROGRA~1\iccavr\include\ascii8x16.h
	.blkb 2
	.area idata
	.byte 31,240
	.area data(ram, con, rel)
	.dbfile F:\PROGRA~1\iccavr\include\ascii8x16.h
	.blkb 2
	.area idata
	.byte 16,16
	.area data(ram, con, rel)
	.dbfile F:\PROGRA~1\iccavr\include\ascii8x16.h
	.blkb 2
	.area idata
	.byte 16,16
	.area data(ram, con, rel)
	.dbfile F:\PROGRA~1\iccavr\include\ascii8x16.h
	.blkb 2
	.area idata
	.byte 16,16
	.area data(ram, con, rel)
	.dbfile F:\PROGRA~1\iccavr\include\ascii8x16.h
	.blkb 2
	.area idata
	.byte 16,16
	.area data(ram, con, rel)
	.dbfile F:\PROGRA~1\iccavr\include\ascii8x16.h
	.blkb 2
	.area idata
	.byte 16,16
	.area data(ram, con, rel)
	.dbfile F:\PROGRA~1\iccavr\include\ascii8x16.h
	.blkb 2
	.area idata
	.byte 31,240
	.area data(ram, con, rel)
	.dbfile F:\PROGRA~1\iccavr\include\ascii8x16.h
	.blkb 2
	.area idata
	.byte 16,16
	.area data(ram, con, rel)
	.dbfile F:\PROGRA~1\iccavr\include\ascii8x16.h
	.blkb 2
	.area idata
	.byte 0,0
	.area data(ram, con, rel)
	.dbfile F:\PROGRA~1\iccavr\include\ascii8x16.h
	.blkb 2
	.area idata
	.byte 1,0
	.area data(ram, con, rel)
	.dbfile F:\PROGRA~1\iccavr\include\ascii8x16.h
	.blkb 2
	.area idata
	.byte 1,0
	.area data(ram, con, rel)
	.dbfile F:\PROGRA~1\iccavr\include\ascii8x16.h
	.blkb 2
	.area idata
	.byte 1,0
	.area data(ram, con, rel)
	.dbfile F:\PROGRA~1\iccavr\include\ascii8x16.h
	.blkb 2
	.area idata
	.byte 1,0
	.area data(ram, con, rel)
	.dbfile F:\PROGRA~1\iccavr\include\ascii8x16.h
	.blkb 2
	.area idata
	.byte 1,16
	.area data(ram, con, rel)
	.dbfile F:\PROGRA~1\iccavr\include\ascii8x16.h
	.blkb 2
	.area idata
	.byte 1,248
	.area data(ram, con, rel)
	.dbfile F:\PROGRA~1\iccavr\include\ascii8x16.h
	.blkb 2
	.area idata
	.byte 1,0
	.area data(ram, con, rel)
	.dbfile F:\PROGRA~1\iccavr\include\ascii8x16.h
	.blkb 2
	.area idata
	.byte 1,0
	.area data(ram, con, rel)
	.dbfile F:\PROGRA~1\iccavr\include\ascii8x16.h
	.blkb 2
	.area idata
	.byte 1,0
	.area data(ram, con, rel)
	.dbfile F:\PROGRA~1\iccavr\include\ascii8x16.h
	.blkb 2
	.area idata
	.byte 1,0
	.area data(ram, con, rel)
	.dbfile F:\PROGRA~1\iccavr\include\ascii8x16.h
	.blkb 2
	.area idata
	.byte 1,0
	.area data(ram, con, rel)
	.dbfile F:\PROGRA~1\iccavr\include\ascii8x16.h
	.blkb 2
	.area idata
	.byte 1,0
	.area data(ram, con, rel)
	.dbfile F:\PROGRA~1\iccavr\include\ascii8x16.h
	.blkb 2
	.area idata
	.byte 1,0
	.area data(ram, con, rel)
	.dbfile F:\PROGRA~1\iccavr\include\ascii8x16.h
	.blkb 2
	.area idata
	.byte 1,4
	.area data(ram, con, rel)
	.dbfile F:\PROGRA~1\iccavr\include\ascii8x16.h
	.blkb 2
	.area idata
	.byte 255,254
	.area data(ram, con, rel)
	.dbfile F:\PROGRA~1\iccavr\include\ascii8x16.h
	.blkb 2
	.area idata
	.byte 0,0
	.area data(ram, con, rel)
	.dbfile F:\PROGRA~1\iccavr\include\ascii8x16.h
	.blkb 2
	.area idata
	.byte 0,4
	.area data(ram, con, rel)
	.dbfile F:\PROGRA~1\iccavr\include\ascii8x16.h
	.blkb 2
	.area idata
	.byte 255,254
	.area data(ram, con, rel)
	.dbfile F:\PROGRA~1\iccavr\include\ascii8x16.h
	.blkb 2
	.area idata
	.byte 2,0
	.area data(ram, con, rel)
	.dbfile F:\PROGRA~1\iccavr\include\ascii8x16.h
	.blkb 2
	.area idata
	.byte 2,0
	.area data(ram, con, rel)
	.dbfile F:\PROGRA~1\iccavr\include\ascii8x16.h
	.blkb 2
	.area idata
	.byte 2,0
	.area data(ram, con, rel)
	.dbfile F:\PROGRA~1\iccavr\include\ascii8x16.h
	.blkb 2
	.area idata
	.byte 2,128
	.area data(ram, con, rel)
	.dbfile F:\PROGRA~1\iccavr\include\ascii8x16.h
	.blkb 2
	.area idata
	.byte 2,64
	.area data(ram, con, rel)
	.dbfile F:\PROGRA~1\iccavr\include\ascii8x16.h
	.blkb 2
	.area idata
	.byte 2,48
	.area data(ram, con, rel)
	.dbfile F:\PROGRA~1\iccavr\include\ascii8x16.h
	.blkb 2
	.area idata
	.byte 2,16
	.area data(ram, con, rel)
	.dbfile F:\PROGRA~1\iccavr\include\ascii8x16.h
	.blkb 2
	.area idata
	.byte 2,0
	.area data(ram, con, rel)
	.dbfile F:\PROGRA~1\iccavr\include\ascii8x16.h
	.blkb 2
	.area idata
	.byte 2,0
	.area data(ram, con, rel)
	.dbfile F:\PROGRA~1\iccavr\include\ascii8x16.h
	.blkb 2
	.area idata
	.byte 2,0
	.area data(ram, con, rel)
	.dbfile F:\PROGRA~1\iccavr\include\ascii8x16.h
	.blkb 2
	.area idata
	.byte 2,0
	.area data(ram, con, rel)
	.dbfile F:\PROGRA~1\iccavr\include\ascii8x16.h
	.blkb 2
	.area idata
	.byte 2,0
	.area data(ram, con, rel)
	.dbfile F:\PROGRA~1\iccavr\include\ascii8x16.h
	.blkb 2
	.area idata
	.byte 2,0
	.area data(ram, con, rel)
	.dbfile F:\PROGRA~1\iccavr\include\ascii8x16.h
	.blkb 2
	.area idata
	.byte 2,0
	.area data(ram, con, rel)
	.dbfile F:\PROGRA~1\iccavr\include\ascii8x16.h
	.blkb 2
	.area idata
	.byte 8,0
	.area data(ram, con, rel)
	.dbfile F:\PROGRA~1\iccavr\include\ascii8x16.h
	.blkb 2
	.area idata
	.byte 8,16
	.area data(ram, con, rel)
	.dbfile F:\PROGRA~1\iccavr\include\ascii8x16.h
	.blkb 2
	.area idata
	.byte 15,248
	.area data(ram, con, rel)
	.dbfile F:\PROGRA~1\iccavr\include\ascii8x16.h
	.blkb 2
	.area idata
	.byte 17,0
	.area data(ram, con, rel)
	.dbfile F:\PROGRA~1\iccavr\include\ascii8x16.h
	.blkb 2
	.area idata
	.byte 17,0
	.area data(ram, con, rel)
	.dbfile F:\PROGRA~1\iccavr\include\ascii8x16.h
	.blkb 2
	.area idata
	.byte 33,0
	.area data(ram, con, rel)
	.dbfile F:\PROGRA~1\iccavr\include\ascii8x16.h
	.blkb 2
	.area idata
	.byte 'A,0
	.area data(ram, con, rel)
	.dbfile F:\PROGRA~1\iccavr\include\ascii8x16.h
	.blkb 2
	.area idata
	.byte 1,4
	.area data(ram, con, rel)
	.dbfile F:\PROGRA~1\iccavr\include\ascii8x16.h
	.blkb 2
	.area idata
	.byte 255,254
	.area data(ram, con, rel)
	.dbfile F:\PROGRA~1\iccavr\include\ascii8x16.h
	.blkb 2
	.area idata
	.byte 1,0
	.area data(ram, con, rel)
	.dbfile F:\PROGRA~1\iccavr\include\ascii8x16.h
	.blkb 2
	.area idata
	.byte 1,0
	.area data(ram, con, rel)
	.dbfile F:\PROGRA~1\iccavr\include\ascii8x16.h
	.blkb 2
	.area idata
	.byte 1,0
	.area data(ram, con, rel)
	.dbfile F:\PROGRA~1\iccavr\include\ascii8x16.h
	.blkb 2
	.area idata
	.byte 1,0
	.area data(ram, con, rel)
	.dbfile F:\PROGRA~1\iccavr\include\ascii8x16.h
	.blkb 2
	.area idata
	.byte 1,0
	.area data(ram, con, rel)
	.dbfile F:\PROGRA~1\iccavr\include\ascii8x16.h
	.blkb 2
	.area idata
	.byte 1,0
	.area data(ram, con, rel)
	.dbfile F:\PROGRA~1\iccavr\include\ascii8x16.h
	.blkb 2
	.area idata
	.byte 1,0
	.area data(ram, con, rel)
	.dbfile F:\PROGRA~1\iccavr\include\ascii8x16.h
	.blkb 2
	.area idata
	.byte 2,64
	.area data(ram, con, rel)
	.dbfile F:\PROGRA~1\iccavr\include\ascii8x16.h
	.blkb 2
	.area idata
	.byte 7,64
	.area data(ram, con, rel)
	.dbfile F:\PROGRA~1\iccavr\include\ascii8x16.h
	.blkb 2
	.area idata
	.byte 56,64
	.area data(ram, con, rel)
	.dbfile F:\PROGRA~1\iccavr\include\ascii8x16.h
	.blkb 2
	.area idata
	.byte 32,64
	.area data(ram, con, rel)
	.dbfile F:\PROGRA~1\iccavr\include\ascii8x16.h
	.blkb 2
	.area idata
	.byte 32,126
	.area data(ram, con, rel)
	.dbfile F:\PROGRA~1\iccavr\include\ascii8x16.h
	.blkb 2
	.area idata
	.byte 32,130
	.area data(ram, con, rel)
	.dbfile F:\PROGRA~1\iccavr\include\ascii8x16.h
	.blkb 2
	.area idata
	.byte 63,36
	.area data(ram, con, rel)
	.dbfile F:\PROGRA~1\iccavr\include\ascii8x16.h
	.blkb 2
	.area idata
	.byte 36,32
	.area data(ram, con, rel)
	.dbfile F:\PROGRA~1\iccavr\include\ascii8x16.h
	.blkb 2
	.area idata
	.byte 36,32
	.area data(ram, con, rel)
	.dbfile F:\PROGRA~1\iccavr\include\ascii8x16.h
	.blkb 2
	.area idata
	.byte 36,32
	.area data(ram, con, rel)
	.dbfile F:\PROGRA~1\iccavr\include\ascii8x16.h
	.blkb 2
	.area idata
	.byte 36,'P
	.area data(ram, con, rel)
	.dbfile F:\PROGRA~1\iccavr\include\ascii8x16.h
	.blkb 2
	.area idata
	.byte 36,'P
	.area data(ram, con, rel)
	.dbfile F:\PROGRA~1\iccavr\include\ascii8x16.h
	.blkb 2
	.area idata
	.byte 'D,136
	.area data(ram, con, rel)
	.dbfile F:\PROGRA~1\iccavr\include\ascii8x16.h
	.blkb 2
	.area idata
	.byte 'D,136
	.area data(ram, con, rel)
	.dbfile F:\PROGRA~1\iccavr\include\ascii8x16.h
	.blkb 2
	.area idata
	.byte 133,6
	.area data(ram, con, rel)
	.dbfile F:\PROGRA~1\iccavr\include\ascii8x16.h
	.blkb 2
	.area idata
	.byte 2,4
	.area data(ram, con, rel)
	.dbfile F:\PROGRA~1\iccavr\include\ascii8x16.h
	.blkb 2
	.area idata
	.byte 1,16
	.area data(ram, con, rel)
	.dbfile F:\PROGRA~1\iccavr\include\ascii8x16.h
	.blkb 2
	.area idata
	.byte 17,16
	.area data(ram, con, rel)
	.dbfile F:\PROGRA~1\iccavr\include\ascii8x16.h
	.blkb 2
	.area idata
	.byte 17,16
	.area data(ram, con, rel)
	.dbfile F:\PROGRA~1\iccavr\include\ascii8x16.h
	.blkb 2
	.area idata
	.byte 17,16
	.area data(ram, con, rel)
	.dbfile F:\PROGRA~1\iccavr\include\ascii8x16.h
	.blkb 2
	.area idata
	.byte 17,20
	.area data(ram, con, rel)
	.dbfile F:\PROGRA~1\iccavr\include\ascii8x16.h
	.blkb 2
	.area idata
	.byte 255,254
	.area data(ram, con, rel)
	.dbfile F:\PROGRA~1\iccavr\include\ascii8x16.h
	.blkb 2
	.area idata
	.byte 17,16
	.area data(ram, con, rel)
	.dbfile F:\PROGRA~1\iccavr\include\ascii8x16.h
	.blkb 2
	.area idata
	.byte 17,16
	.area data(ram, con, rel)
	.dbfile F:\PROGRA~1\iccavr\include\ascii8x16.h
	.blkb 2
	.area idata
	.byte 17,16
	.area data(ram, con, rel)
	.dbfile F:\PROGRA~1\iccavr\include\ascii8x16.h
	.blkb 2
	.area idata
	.byte 17,16
	.area data(ram, con, rel)
	.dbfile F:\PROGRA~1\iccavr\include\ascii8x16.h
	.blkb 2
	.area idata
	.byte 17,240
	.area data(ram, con, rel)
	.dbfile F:\PROGRA~1\iccavr\include\ascii8x16.h
	.blkb 2
	.area idata
	.byte 17,16
	.area data(ram, con, rel)
	.dbfile F:\PROGRA~1\iccavr\include\ascii8x16.h
	.blkb 2
	.area idata
	.byte 16,0
	.area data(ram, con, rel)
	.dbfile F:\PROGRA~1\iccavr\include\ascii8x16.h
	.blkb 2
	.area idata
	.byte 16,8
	.area data(ram, con, rel)
	.dbfile F:\PROGRA~1\iccavr\include\ascii8x16.h
	.blkb 2
	.area idata
	.byte 31,252
	.area data(ram, con, rel)
	.dbfile F:\PROGRA~1\iccavr\include\ascii8x16.h
	.blkb 2
	.area idata
	.byte 0,0
	.area data(ram, con, rel)
	.dbfile F:\PROGRA~1\iccavr\include\ascii8x16.h
	.blkb 2
	.area idata
	.byte 8,0
	.area data(ram, con, rel)
	.dbfile F:\PROGRA~1\iccavr\include\ascii8x16.h
	.blkb 2
	.area idata
	.byte 8,4
	.area data(ram, con, rel)
	.dbfile F:\PROGRA~1\iccavr\include\ascii8x16.h
	.blkb 2
	.area idata
	.byte 19,254
	.area data(ram, con, rel)
	.dbfile F:\PROGRA~1\iccavr\include\ascii8x16.h
	.blkb 2
	.area idata
	.byte 16,4
	.area data(ram, con, rel)
	.dbfile F:\PROGRA~1\iccavr\include\ascii8x16.h
	.blkb 2
	.area idata
	.byte 36,4
	.area data(ram, con, rel)
	.dbfile F:\PROGRA~1\iccavr\include\ascii8x16.h
	.blkb 2
	.area idata
	.byte 252,4
	.area data(ram, con, rel)
	.dbfile F:\PROGRA~1\iccavr\include\ascii8x16.h
	.blkb 2
	.area idata
	.byte 8,4
	.area data(ram, con, rel)
	.dbfile F:\PROGRA~1\iccavr\include\ascii8x16.h
	.blkb 2
	.area idata
	.byte 17,252
	.area data(ram, con, rel)
	.dbfile F:\PROGRA~1\iccavr\include\ascii8x16.h
	.blkb 2
	.area idata
	.byte 33,4
	.area data(ram, con, rel)
	.dbfile F:\PROGRA~1\iccavr\include\ascii8x16.h
	.blkb 2
	.area idata
	.byte 253,0
	.area data(ram, con, rel)
	.dbfile F:\PROGRA~1\iccavr\include\ascii8x16.h
	.blkb 2
	.area idata
	.byte 'A,0
	.area data(ram, con, rel)
	.dbfile F:\PROGRA~1\iccavr\include\ascii8x16.h
	.blkb 2
	.area idata
	.byte 1,0
	.area data(ram, con, rel)
	.dbfile F:\PROGRA~1\iccavr\include\ascii8x16.h
	.blkb 2
	.area idata
	.byte 29,2
	.area data(ram, con, rel)
	.dbfile F:\PROGRA~1\iccavr\include\ascii8x16.h
	.blkb 2
	.area idata
	.byte 225,2
	.area data(ram, con, rel)
	.dbfile F:\PROGRA~1\iccavr\include\ascii8x16.h
	.blkb 2
	.area idata
	.byte 64,254
	.area data(ram, con, rel)
	.dbfile F:\PROGRA~1\iccavr\include\ascii8x16.h
	.blkb 2
	.area idata
	.byte 0,0
	.area data(ram, con, rel)
	.dbfile F:\PROGRA~1\iccavr\include\ascii8x16.h
	.blkb 2
	.area idata
	.byte 2,0
	.area data(ram, con, rel)
	.dbfile F:\PROGRA~1\iccavr\include\ascii8x16.h
	.blkb 2
	.area idata
	.byte 2,0
	.area data(ram, con, rel)
	.dbfile F:\PROGRA~1\iccavr\include\ascii8x16.h
	.blkb 2
	.area idata
	.byte 2,16
	.area data(ram, con, rel)
	.dbfile F:\PROGRA~1\iccavr\include\ascii8x16.h
	.blkb 2
	.area idata
	.byte 127,248
	.area data(ram, con, rel)
	.dbfile F:\PROGRA~1\iccavr\include\ascii8x16.h
	.blkb 2
	.area idata
	.byte 'B,16
	.area data(ram, con, rel)
	.dbfile F:\PROGRA~1\iccavr\include\ascii8x16.h
	.blkb 2
	.area idata
	.byte 'B,16
	.area data(ram, con, rel)
	.dbfile F:\PROGRA~1\iccavr\include\ascii8x16.h
	.blkb 2
	.area idata
	.byte 127,240
	.area data(ram, con, rel)
	.dbfile F:\PROGRA~1\iccavr\include\ascii8x16.h
	.blkb 2
	.area idata
	.byte 'B,16
	.area data(ram, con, rel)
	.dbfile F:\PROGRA~1\iccavr\include\ascii8x16.h
	.blkb 2
	.area idata
	.byte 'B,16
	.area data(ram, con, rel)
	.dbfile F:\PROGRA~1\iccavr\include\ascii8x16.h
	.blkb 2
	.area idata
	.byte 127,240
	.area data(ram, con, rel)
	.dbfile F:\PROGRA~1\iccavr\include\ascii8x16.h
	.blkb 2
	.area idata
	.byte 'B,16
	.area data(ram, con, rel)
	.dbfile F:\PROGRA~1\iccavr\include\ascii8x16.h
	.blkb 2
	.area idata
	.byte 2,0
	.area data(ram, con, rel)
	.dbfile F:\PROGRA~1\iccavr\include\ascii8x16.h
	.blkb 2
	.area idata
	.byte 2,4
	.area data(ram, con, rel)
	.dbfile F:\PROGRA~1\iccavr\include\ascii8x16.h
	.blkb 2
	.area idata
	.byte 2,4
	.area data(ram, con, rel)
	.dbfile F:\PROGRA~1\iccavr\include\ascii8x16.h
	.blkb 2
	.area idata
	.byte 1,252
	.area data(ram, con, rel)
	.dbfile F:\PROGRA~1\iccavr\include\ascii8x16.h
	.blkb 2
	.area idata
	.byte 0,0
	.area data(ram, con, rel)
	.dbfile F:\PROGRA~1\iccavr\include\ascii8x16.h
	.blkb 2
	.area idata
	.byte 0,0
	.area data(ram, con, rel)
	.dbfile F:\PROGRA~1\iccavr\include\ascii8x16.h
	.blkb 2
	.area idata
	.byte 63,240
	.area data(ram, con, rel)
	.dbfile F:\PROGRA~1\iccavr\include\ascii8x16.h
	.blkb 2
	.area idata
	.byte 0,16
	.area data(ram, con, rel)
	.dbfile F:\PROGRA~1\iccavr\include\ascii8x16.h
	.blkb 2
	.area idata
	.byte 0,32
	.area data(ram, con, rel)
	.dbfile F:\PROGRA~1\iccavr\include\ascii8x16.h
	.blkb 2
	.area idata
	.byte 0,64
	.area data(ram, con, rel)
	.dbfile F:\PROGRA~1\iccavr\include\ascii8x16.h
	.blkb 2
	.area idata
	.byte 1,128
	.area data(ram, con, rel)
	.dbfile F:\PROGRA~1\iccavr\include\ascii8x16.h
	.blkb 2
	.area idata
	.byte 1,4
	.area data(ram, con, rel)
	.dbfile F:\PROGRA~1\iccavr\include\ascii8x16.h
	.blkb 2
	.area idata
	.byte 255,254
	.area data(ram, con, rel)
	.dbfile F:\PROGRA~1\iccavr\include\ascii8x16.h
	.blkb 2
	.area idata
	.byte 1,0
	.area data(ram, con, rel)
	.dbfile F:\PROGRA~1\iccavr\include\ascii8x16.h
	.blkb 2
	.area idata
	.byte 1,0
	.area data(ram, con, rel)
	.dbfile F:\PROGRA~1\iccavr\include\ascii8x16.h
	.blkb 2
	.area idata
	.byte 1,0
	.area data(ram, con, rel)
	.dbfile F:\PROGRA~1\iccavr\include\ascii8x16.h
	.blkb 2
	.area idata
	.byte 1,0
	.area data(ram, con, rel)
	.dbfile F:\PROGRA~1\iccavr\include\ascii8x16.h
	.blkb 2
	.area idata
	.byte 1,0
	.area data(ram, con, rel)
	.dbfile F:\PROGRA~1\iccavr\include\ascii8x16.h
	.blkb 2
	.area idata
	.byte 1,0
	.area data(ram, con, rel)
	.dbfile F:\PROGRA~1\iccavr\include\ascii8x16.h
	.blkb 2
	.area idata
	.byte 5,0
	.area data(ram, con, rel)
	.dbfile F:\PROGRA~1\iccavr\include\ascii8x16.h
	.blkb 2
	.area idata
	.byte 2,0
	.area data(ram, con, rel)
	.dbfile F:\PROGRA~1\iccavr\include\ascii8x16.h
	.dbfile F:\PROGRA~1\iccavr\include\GB2312.h
	.dbsym e GB2312 _GB2312 A[736:736]c
_color::
	.blkb 2
	.area idata
	.word 63488
	.area data(ram, con, rel)
	.dbfile F:\PROGRA~1\iccavr\include\GB2312.h
	.blkb 2
	.area idata
	.word 2016
	.area data(ram, con, rel)
	.dbfile F:\PROGRA~1\iccavr\include\GB2312.h
	.blkb 2
	.area idata
	.word 31
	.area data(ram, con, rel)
	.dbfile F:\PROGRA~1\iccavr\include\GB2312.h
	.blkb 2
	.area idata
	.word 65504
	.area data(ram, con, rel)
	.dbfile F:\PROGRA~1\iccavr\include\GB2312.h
	.blkb 2
	.area idata
	.word 0
	.area data(ram, con, rel)
	.dbfile F:\PROGRA~1\iccavr\include\GB2312.h
	.blkb 2
	.area idata
	.word 65535
	.area data(ram, con, rel)
	.dbfile F:\PROGRA~1\iccavr\include\GB2312.h
	.blkb 2
	.area idata
	.word 2047
	.area data(ram, con, rel)
	.dbfile F:\PROGRA~1\iccavr\include\GB2312.h
	.blkb 2
	.area idata
	.word 63519
	.area data(ram, con, rel)
	.dbfile F:\PROGRA~1\iccavr\include\GB2312.h
	.dbfile E:\DMAVR-~3\TFTTEST\TFT.c
	.dbsym e color _color A[16:8]i
	.area text(rom, con, rel)
	.dbfile E:\DMAVR-~3\TFTTEST\TFT.c
	.dbfunc e McuInit _McuInit fV
	.even
_McuInit::
	.dbline -1
	.dbline 16
; //TFT
; // TFT.h
; 
; 
; #include  <TFTtest.h>
; //#include  <delay.h>
; 
; uint color[]={0xf800,0x07e0,0x001f,0xffe0,0x0000,0xffff,0x07ff,0xf81f}; //
; unsigned char RamVar_1[512];            				//(Ram)
; 
; //***********************************************************************
; //	  IO
; //***********************************************************************
; 
; void McuInit()
; {
	.dbline 17
; 	LCD_Data=0xFF;                     //IO
	ldi R24,255
	out 0x1b,R24
	.dbline 18
; 	DDR_Data=0xFF;
	out 0x1a,R24
	.dbline 20
; 
; 	PORTF=0xFF;
	sts 98,R24
	.dbline 21
; 	DDRF=0xFF;
	sts 97,R24
	.dbline 23
; 
; 	PORTG=0x0F;                        
	ldi R24,15
	sts 101,R24
	.dbline 24
; 	DDRG=0x0F;
	sts 100,R24
	.dbline 26
; 
; 	PORTD=0xFF;
	ldi R24,255
	out 0x12,R24
	.dbline 27
; 	DDRD=0xFF;
	out 0x11,R24
	.dbline 29
;   	
; 	D_LE1;                             //PA                   
	sbi 0x12,4
	.dbline 30
;     W_LE1;                     
	sbi 0x12,5
	.dbline 31
;     LCD_Data=0xFF;                      //            
	out 0x1b,R24
	.dbline 32
;     W_LE0; 
	cbi 0x12,5
	.dbline 34
; 
;     PORTB=0xFF;
	out 0x18,R24
	.dbline 35
; 	DDRB=0xFF;
	out 0x17,R24
	.dbline 37
; 
; 	LCD_BL0;
	lds R24,101
	andi R24,251
	sts 101,R24
	.dbline -2
L1:
	.dbline 0 ; func end
	ret
	.dbend
	.dbfunc e LCD_WR_REG _LCD_WR_REG fV
;          index -> R16
	.even
_LCD_WR_REG::
	.dbline -1
	.dbline 46
; }
; 
; 
; //***********************************************************************
; //	   0x22
; //***********************************************************************
; 
; void LCD_WR_REG(uchar index)           
; {
	.dbline 47
; 	LCD_RS0;                            //datasheetRS0
	lds R24,98
	andi R24,253
	sts 98,R24
	.dbline 48
; 	LCD_EC0;
	lds R24,98
	andi R24,247
	sts 98,R24
	.dbline 49
; 	LCD_Data = 0x00;
	clr R2
	out 0x1b,R2
	.dbline 50
; 	LCD_WR0;
	lds R24,98
	andi R24,251
	sts 98,R24
	.dbline 51
; 	LCD_WR1;
	lds R24,98
	ori R24,4
	sts 98,R24
	.dbline 52
; 	LCD_Data = index;
	out 0x1b,R16
	.dbline 53
; 	LCD_WR0;
	lds R24,98
	andi R24,251
	sts 98,R24
	.dbline 54
; 	LCD_WR1;
	lds R24,98
	ori R24,4
	sts 98,R24
	.dbline 55
; 	LCD_EC1;
	lds R24,98
	ori R24,8
	sts 98,R24
	.dbline 56
; 	LCD_RS0;
	lds R24,98
	andi R24,253
	sts 98,R24
	.dbline -2
L2:
	.dbline 0 ; func end
	ret
	.dbsym r index 16 c
	.dbend
	.dbfunc e LCD_RD_REG16 _LCD_RD_REG16 fi
;             pd -> R10,R11
;          index -> R10
	.even
_LCD_RD_REG16::
	st -y,R10
	st -y,R11
	mov R10,R16
	.dbline -1
	.dbline 64
; }
; 
; //***********************************************************************
; //	   GRAM
; //***********************************************************************
; 
; unsigned int LCD_RD_REG16(uchar index)
; {
	.dbline 67
; 	unsigned int pd;
; 
; 	LCD_RS0;
	lds R24,98
	andi R24,253
	sts 98,R24
	.dbline 68
; 	LCD_EC0;
	lds R24,98
	andi R24,247
	sts 98,R24
	.dbline 70
; 	
; 	delay_3us();
	xcall _delay_3us
	.dbline 72
; 	
; 	LCD_Data = 0x00;
	clr R2
	out 0x1b,R2
	.dbline 73
; 	delay_3us();
	xcall _delay_3us
	.dbline 75
; 
; 	LCD_WR0;
	lds R24,98
	andi R24,251
	sts 98,R24
	.dbline 76
; 	delay_3us();
	xcall _delay_3us
	.dbline 78
; 
; 	LCD_WR1;
	lds R24,98
	ori R24,4
	sts 98,R24
	.dbline 79
; 	delay_3us();
	xcall _delay_3us
	.dbline 81
; 
; 	LCD_Data = index;
	out 0x1b,R10
	.dbline 82
; 	delay_3us();
	xcall _delay_3us
	.dbline 84
; 
; 	LCD_WR0;
	lds R24,98
	andi R24,251
	sts 98,R24
	.dbline 85
; 	delay_3us();
	xcall _delay_3us
	.dbline 87
; 
; 	LCD_WR1;
	lds R24,98
	ori R24,4
	sts 98,R24
	.dbline 88
; 	delay_3us();
	xcall _delay_3us
	.dbline 90
; 
; 	LCD_RS1;
	lds R24,98
	ori R24,2
	sts 98,R24
	.dbline 91
; 	delay_3us();
	xcall _delay_3us
	.dbline 93
; 
; 	LCD_Data = 0xFF;
	ldi R24,255
	out 0x1b,R24
	.dbline 94
; 	delay_3us();
	xcall _delay_3us
	.dbline 96
; 
; 	LCD_RD0;
	lds R24,101
	andi R24,239
	sts 101,R24
	.dbline 97
; 	delay_3us();
	xcall _delay_3us
	.dbline 100
; 
;     //DDR_IN;  //
; 	delay_3us();
	xcall _delay_3us
	.dbline 102
; 
; 	LCD_RD1;
	lds R24,101
	ori R24,16
	sts 101,R24
	.dbline 103
; 	pd = LCD_Data;
	in R10,0x1b
	clr R11
	.dbline 104
; 	delay_3us();
	xcall _delay_3us
	.dbline 106
; 
; 	LCD_Data = 0xFF;
	ldi R24,255
	out 0x1b,R24
	.dbline 107
; 	LCD_RD0;
	lds R24,101
	andi R24,239
	sts 101,R24
	.dbline 108
; 	delay_3us();
	xcall _delay_3us
	.dbline 110
; 
; 	LCD_RD1;
	lds R24,101
	ori R24,16
	sts 101,R24
	.dbline 111
; 	pd = pd + LCD_Data*256;
	in R18,0x1b
	clr R19
	ldi R16,256
	ldi R17,1
	xcall empy16s
	add R10,R16
	adc R11,R17
	.dbline 112
; 	LCD_EC1;
	lds R24,98
	ori R24,8
	sts 98,R24
	.dbline 113
; 	LCD_RS0;
	lds R24,98
	andi R24,253
	sts 98,R24
	.dbline 114
; 	return pd;
	movw R16,R10
	.dbline -2
L3:
	.dbline 0 ; func end
	ld R11,y+
	ld R10,y+
	ret
	.dbsym r pd 10 i
	.dbsym r index 10 c
	.dbend
	.dbfunc e LCD_WR_CMD _LCD_WR_CMD fV
;            val -> R18,R19
;          index -> R16
	.even
_LCD_WR_CMD::
	.dbline -1
	.dbline 122
; }
; 
; //***********************************************************************
; //	   indexval16
; //***********************************************************************
; 
; void LCD_WR_CMD(uchar index,uint val)
; {
	.dbline 123
; 	LCD_RS0;
	lds R24,98
	andi R24,253
	sts 98,R24
	.dbline 124
; 	LCD_EC0;
	lds R24,98
	andi R24,247
	sts 98,R24
	.dbline 125
; 	LCD_Data = 0x00;
	clr R2
	out 0x1b,R2
	.dbline 126
; 	LCD_WR0;
	lds R24,98
	andi R24,251
	sts 98,R24
	.dbline 127
; 	LCD_WR1;
	lds R24,98
	ori R24,4
	sts 98,R24
	.dbline 128
; 	LCD_Data = index;
	out 0x1b,R16
	.dbline 129
; 	LCD_WR0;
	lds R24,98
	andi R24,251
	sts 98,R24
	.dbline 130
; 	LCD_WR1;
	lds R24,98
	ori R24,4
	sts 98,R24
	.dbline 131
; 	LCD_EC1;
	lds R24,98
	ori R24,8
	sts 98,R24
	.dbline 132
; 	LCD_RS0;
	lds R24,98
	andi R24,253
	sts 98,R24
	.dbline 134
; 
; 	LCD_RS1;                             //datasheetRS1GRAM
	lds R24,98
	ori R24,2
	sts 98,R24
	.dbline 135
; 	LCD_EC0;
	lds R24,98
	andi R24,247
	sts 98,R24
	.dbline 136
; 	LCD_Data = (uchar)(val>>8);
	movw R2,R18
	mov R2,R3
	clr R3
	out 0x1b,R2
	.dbline 137
; 	LCD_WR0;
	lds R24,98
	andi R24,251
	sts 98,R24
	.dbline 138
; 	LCD_WR1;
	lds R24,98
	ori R24,4
	sts 98,R24
	.dbline 139
; 	LCD_EC1;
	lds R24,98
	ori R24,8
	sts 98,R24
	.dbline 140
; 	LCD_RS0;
	lds R24,98
	andi R24,253
	sts 98,R24
	.dbline 141
; 	LCD_RS1;
	lds R24,98
	ori R24,2
	sts 98,R24
	.dbline 142
; 	LCD_EC0;
	lds R24,98
	andi R24,247
	sts 98,R24
	.dbline 143
; 	LCD_Data = (uchar)val;
	out 0x1b,R18
	.dbline 144
; 	LCD_WR0;
	lds R24,98
	andi R24,251
	sts 98,R24
	.dbline 145
; 	LCD_WR1;
	lds R24,98
	ori R24,4
	sts 98,R24
	.dbline 146
; 	LCD_EC1;
	lds R24,98
	ori R24,8
	sts 98,R24
	.dbline 147
; 	LCD_RS0;
	lds R24,98
	andi R24,253
	sts 98,R24
	.dbline -2
L4:
	.dbline 0 ; func end
	ret
	.dbsym r val 18 i
	.dbsym r index 16 c
	.dbend
	.dbfunc e LCD_WR_Data _LCD_WR_Data fV
;            val -> R16,R17
	.even
_LCD_WR_Data::
	.dbline -1
	.dbline 155
; }
; 
; //***********************************************************************
; //	   GRAM16
; //***********************************************************************
; 
; void LCD_WR_Data(uint val)
; {
	.dbline 157
; 
; 	LCD_Data = (uchar)(val>>8);
	movw R2,R16
	mov R2,R3
	clr R3
	out 0x1b,R2
	.dbline 158
; 	LCD_WR0;
	lds R24,98
	andi R24,251
	sts 98,R24
	.dbline 159
; 	LCD_WR1;
	lds R24,98
	ori R24,4
	sts 98,R24
	.dbline 161
; 	//LCD_RS1;
; 	LCD_Data = (uchar)val;
	out 0x1b,R16
	.dbline 162
; 	LCD_WR0;
	lds R24,98
	andi R24,251
	sts 98,R24
	.dbline 163
; 	LCD_WR1;
	lds R24,98
	ori R24,4
	sts 98,R24
	.dbline -2
L5:
	.dbline 0 ; func end
	ret
	.dbsym r val 16 i
	.dbend
	.dbfunc e LCD_WR_DataP _LCD_WR_DataP fV
;            val -> R16,R17
	.even
_LCD_WR_DataP::
	.dbline -1
	.dbline 171
; 
; }
; 
; //***********************************************************************
; //	   GRAM8
; //***********************************************************************
; void LCD_WR_DataP(uint val)
; {
	.dbline 173
; 
; 	LCD_Data = (uchar)val;
	out 0x1b,R16
	.dbline 174
; 	LCD_WR0;
	lds R24,98
	andi R24,251
	sts 98,R24
	.dbline 175
; 	LCD_WR1;
	lds R24,98
	ori R24,4
	sts 98,R24
	.dbline -2
L6:
	.dbline 0 ; func end
	ret
	.dbsym r val 16 i
	.dbend
	.dbfunc e LCD_Init _LCD_Init fV
	.even
_LCD_Init::
	.dbline -1
	.dbline 179
; }
; 
; void LCD_Init()
; {
	.dbline 180
; 	LCD_RST0;                      //2ms
	cbi 0x12,7
	.dbline 181
; 	delay_nms(2);
	ldi R16,2
	ldi R17,0
	xcall _delay_nms
	.dbline 182
; 	LCD_RST1;                      //
	sbi 0x12,7
	.dbline 183
; 	delay_nms(2);
	ldi R16,2
	ldi R17,0
	xcall _delay_nms
	.dbline 185
; 
;     LCD_WR_CMD(0x00,0x0001);		//10ms
	ldi R18,1
	ldi R19,0
	clr R16
	xcall _LCD_WR_CMD
	.dbline 186
;     delay_nms(10);
	ldi R16,10
	ldi R17,0
	xcall _delay_nms
	.dbline 187
;     LCD_WR_CMD(0x03,0x0030);        //
	ldi R18,48
	ldi R19,0
	ldi R16,3
	xcall _LCD_WR_CMD
	.dbline 189
;     //LCD_WR_CMD(0x03,0x0230);      //HWM=1
;     LCD_WR_CMD(0x01,0x011D);
	ldi R18,285
	ldi R19,1
	ldi R16,1
	xcall _LCD_WR_CMD
	.dbline 191
;     //delay_us(1000);
;     LCD_WR_CMD(0x0a,0x0106); 
	ldi R18,262
	ldi R19,1
	ldi R16,10
	xcall _LCD_WR_CMD
	.dbline 193
;     //delay_us(1000);
;     LCD_WR_CMD(0x07,0x0037);        //8,
	ldi R18,55
	ldi R19,0
	ldi R16,7
	xcall _LCD_WR_CMD
	.dbline 195
; 
;     LCD_WR_CMD(0x08,0x0707);        //70
	ldi R18,1799
	ldi R19,7
	ldi R16,8
	xcall _LCD_WR_CMD
	.dbline 196
;     LCD_WR_CMD(0x0c,0x01);
	ldi R18,1
	ldi R19,0
	ldi R16,12
	xcall _LCD_WR_CMD
	.dbline 197
;     LCD_WR_CMD(0x02,0x0400);        //
	ldi R18,1024
	ldi R19,4
	ldi R16,2
	xcall _LCD_WR_CMD
	.dbline 199
;     //delay_us(1000);
;     LCD_WR_CMD(0x0a,0x0107);        //IC
	ldi R18,263
	ldi R19,1
	ldi R16,10
	xcall _LCD_WR_CMD
	.dbline 202
;  //   delay_us(1000);
; 
;     LCD_WR_CMD(0x12,0x0001);        //VciOUT = 3V  0.83 = 2.49V
	ldi R18,1
	ldi R19,0
	ldi R16,18
	xcall _LCD_WR_CMD
	.dbline 205
;     // only 100(=VCI), 000(.92 VCI),001(.83),010(.73VCI) is valid. other is inhibited
;   //  delay_us(1000);
;     LCD_WR_CMD(0x0a,0x0101); 
	ldi R18,257
	ldi R19,1
	ldi R16,10
	xcall _LCD_WR_CMD
	.dbline 211
;    // delay_us(1000);
;    
;    // LCD_WR_CMD(0x13,0x404);
;    // delay_us(1);LCD_WR_CMD(0x0a,0x0101); delay_us(1);
; 
;     LCD_WR_CMD(0x11,0x0505);   //CAD=0
	ldi R18,1285
	ldi R19,5
	ldi R16,17
	xcall _LCD_WR_CMD
	.dbline 216
;    // delay_us(1);LCD_WR_CMD(0x0a,0x0101); delay_us(1);
; 
; 
; 
;     LCD_WR_CMD(0x14,0x2c0f); // last 4 bit must be 1!!! vcomg = 1, 
	ldi R18,11279
	ldi R19,44
	ldi R16,20
	xcall _LCD_WR_CMD
	.dbline 218
;     // VDV4-0 == 09-0e,10-12 // other is inhibited.!!! 
;     delay_3us();
	xcall _delay_3us
	.dbline 219
;     LCD_WR_CMD(0x0a,0x0102); 
	ldi R18,258
	ldi R19,1
	ldi R16,10
	xcall _LCD_WR_CMD
	.dbline 222
;    // delay_us(1);
; 
;     LCD_WR_CMD(0x10,0x1a10);// if Vci > 3.0V, use 0x1a10.
	ldi R18,6672
	ldi R19,26
	ldi R16,16
	xcall _LCD_WR_CMD
	.dbline 223
;     delay_3us();
	xcall _delay_3us
	.dbline 224
;     LCD_WR_CMD(0x0a,0x0100); 
	ldi R18,256
	ldi R19,1
	ldi R16,10
	xcall _LCD_WR_CMD
	.dbline 227
;   //  delay_us(1);
; 
;     LCD_WR_CMD(0x13,0x0616); //////////!!!!!!!!!!!!! VERY IMPORTANT!!!
	ldi R18,1558
	ldi R19,6
	ldi R16,19
	xcall _LCD_WR_CMD
	.dbline 229
;     //set VRH3-0 to fit REG1out= 3 to DDVDH-0.5
;     delay_3us();
	xcall _delay_3us
	.dbline 230
;     LCD_WR_CMD(0x0a,0x0101); 
	ldi R18,257
	ldi R19,1
	ldi R16,10
	xcall _LCD_WR_CMD
	.dbline 233
;   //  delay_nms(1);
; 
;     LCD_WR_CMD(0x30,0x0003);
	ldi R18,3
	ldi R19,0
	ldi R16,48
	xcall _LCD_WR_CMD
	.dbline 234
;     LCD_WR_CMD(0x31,0x0404);
	ldi R18,1028
	ldi R19,4
	ldi R16,49
	xcall _LCD_WR_CMD
	.dbline 235
;     LCD_WR_CMD(0x32,0x0303);
	ldi R18,771
	ldi R19,3
	ldi R16,50
	xcall _LCD_WR_CMD
	.dbline 236
;     LCD_WR_CMD(0x33,0x0406);
	ldi R18,1030
	ldi R19,4
	ldi R16,51
	xcall _LCD_WR_CMD
	.dbline 237
;     LCD_WR_CMD(0x34,0x0404);
	ldi R18,1028
	ldi R19,4
	ldi R16,52
	xcall _LCD_WR_CMD
	.dbline 238
;     LCD_WR_CMD(0x35,0x0303);
	ldi R18,771
	ldi R19,3
	ldi R16,53
	xcall _LCD_WR_CMD
	.dbline 239
;     LCD_WR_CMD(0x36,0x0407);
	ldi R18,1031
	ldi R19,4
	ldi R16,54
	xcall _LCD_WR_CMD
	.dbline 240
;     LCD_WR_CMD(0x37,0x0604);
	ldi R18,1540
	ldi R19,6
	ldi R16,55
	xcall _LCD_WR_CMD
	.dbline 242
;     
;     delay_3us();
	xcall _delay_3us
	.dbline 247
;   //  LCD_WR_CMD(0x0a,0x0100);
;    // delay_nms(1); 
;     
;     //*********** SAP, AP set****************	
;     LCD_WR_CMD(0x10,0x1a10);//BT2-0 Ok,and...
	ldi R18,6672
	ldi R19,26
	ldi R16,16
	xcall _LCD_WR_CMD
	.dbline 248
;     delay_3us();
	xcall _delay_3us
	.dbline 249
;     LCD_WR_CMD(0x0a,0x0100); 
	ldi R18,256
	ldi R19,1
	ldi R16,10
	xcall _LCD_WR_CMD
	.dbline 252
;   //  delay_us(100);	
; 	//*********** PON  set********************
; 	LCD_WR_CMD(0x13,0x0616); //////////
	ldi R18,1558
	ldi R19,6
	ldi R16,19
	.dbline -2
L7:
	.dbline 0 ; func end
	xjmp _LCD_WR_CMD
	.dbend
	.dbfunc e LCD_test _LCD_test fV
;              n -> R20
;           temp -> R10,R11
;            num -> R22,R23
	.even
_LCD_test::
	xcall push_xgsetF00C
	.dbline -1
	.dbline 272
;     
;  //   delay_us(1);
;   //  LCD_WR_CMD(0x0a,0x0101); 
;    // delay_us(100);
;     
;     //***********Display ON set*****************
;  //   LCD_WR_CMD(0x07,0x0037);
;   //  delay_us(1);
;   //  LCD_WR_CMD(0x0a,0x0100); 
;    // delay_us(100); 
;      
; }
; 
; 
; //***********************************************************************
; //	   TFT
; //***********************************************************************
; 
; void LCD_test()
; {
	.dbline 276
; 	uint temp,num;
; 	uchar n;
; 
; 	LCD_WR_CMD(0x44,127*256+0);               //
	ldi R18,32512
	ldi R19,127
	ldi R16,68
	xcall _LCD_WR_CMD
	.dbline 277
; 	LCD_WR_CMD(0x45,239*256+80);              //
	ldi R18,61264
	ldi R19,239
	ldi R16,69
	xcall _LCD_WR_CMD
	.dbline 278
; 	LCD_WR_CMD(0x21,80*256+0);	              //RAMAC,0x5000
	ldi R18,20480
	ldi R19,80
	ldi R16,33
	xcall _LCD_WR_CMD
	.dbline 279
; 	LCD_WR_REG(0x22);                         //GRAM
	ldi R16,34
	xcall _LCD_WR_REG
	.dbline 280
; 	LCD_EC0;
	lds R24,98
	andi R24,247
	sts 98,R24
	.dbline 281
; 	LCD_RS1;
	lds R24,98
	ori R24,2
	sts 98,R24
	.dbline 282
; 	for(n=0;n<8;n++)						  //128X20
	clr R20
	xjmp L12
L9:
	.dbline 283
; 	{
	.dbline 284
; 	    temp=color[n];
	ldi R24,<_color
	ldi R25,>_color
	mov R30,R20
	clr R31
	lsl R30
	rol R31
	add R30,R24
	adc R31,R25
	ldd R10,z+0
	ldd R11,z+1
	.dbline 285
; 		for(num=20*128;num>0;num--)
	ldi R22,2560
	ldi R23,10
	xjmp L16
L13:
	.dbline 286
; 		  LCD_WR_Data(temp);
	movw R16,R10
	xcall _LCD_WR_Data
L14:
	.dbline 285
	subi R22,1
	sbci R23,0
L16:
	.dbline 285
	cpi R22,0
	cpc R22,R23
	brne L13
X0:
	.dbline 287
; 	}
L10:
	.dbline 282
	inc R20
L12:
	.dbline 282
	cpi R20,8
	brlo L9
X1:
	.dbline 288
; 	LCD_EC1;
	lds R24,98
	ori R24,8
	sts 98,R24
	.dbline 289
; 	delay_nms(200);
	ldi R16,200
	ldi R17,0
	xcall _delay_nms
	.dbline 292
; 	
; 	
; 	LCD_WR_CMD(0x44,95*256+0); 					//
	ldi R18,24320
	ldi R19,95
	ldi R16,68
	xcall _LCD_WR_CMD
	.dbline 293
; 	LCD_WR_CMD(0x45,79*256+16);					//
	ldi R18,20240
	ldi R19,79
	ldi R16,69
	xcall _LCD_WR_CMD
	.dbline 294
; 	LCD_WR_CMD(0x21,16*256+0);					//RAMAC,0x5000
	ldi R18,4096
	ldi R19,16
	ldi R16,33
	xcall _LCD_WR_CMD
	.dbline 295
; 	LCD_WR_REG(0x22);							//GRAM
	ldi R16,34
	xcall _LCD_WR_REG
	.dbline 296
; 	LCD_EC0;
	lds R24,98
	andi R24,247
	sts 98,R24
	.dbline 297
; 	LCD_RS1;
	lds R24,98
	ori R24,2
	sts 98,R24
	.dbline 298
; 	for(n=0;n<8;n++)							//
	clr R20
	xjmp L20
L17:
	.dbline 299
; 	{
	.dbline 300
; 	    temp=color[n];
	ldi R24,<_color
	ldi R25,>_color
	mov R30,R20
	clr R31
	lsl R30
	rol R31
	add R30,R24
	adc R31,R25
	ldd R10,z+0
	ldd R11,z+1
	.dbline 301
; 		for(num=8*96;num>0;num--)               //96X8
	ldi R22,768
	ldi R23,3
	xjmp L24
L21:
	.dbline 302
; 		{
	.dbline 303
; 			LCD_WR_Data(temp);
	movw R16,R10
	xcall _LCD_WR_Data
	.dbline 304
; 		}
L22:
	.dbline 301
	subi R22,1
	sbci R23,0
L24:
	.dbline 301
	cpi R22,0
	cpc R22,R23
	brne L21
X2:
	.dbline 305
; 	}
L18:
	.dbline 298
	inc R20
L20:
	.dbline 298
	cpi R20,8
	brlo L17
X3:
	.dbline 306
; 	LCD_EC1;
	lds R24,98
	ori R24,8
	sts 98,R24
	.dbline 307
; 	delay_nms(200);
	ldi R16,200
	ldi R17,0
	xcall _delay_nms
	.dbline 311
; 
; 	
; 	
; 	for(n=0;n<8;n++)                 			//8
	clr R20
	xjmp L28
L25:
	.dbline 312
; 	{
	.dbline 313
; 		LCD_WR_CMD(0x44,127*256+0);
	ldi R18,32512
	ldi R19,127
	ldi R16,68
	xcall _LCD_WR_CMD
	.dbline 314
; 		LCD_WR_CMD(0x45,239*256+80);
	ldi R18,61264
	ldi R19,239
	ldi R16,69
	xcall _LCD_WR_CMD
	.dbline 315
; 		LCD_WR_CMD(0x21,0x5000+127);	
	ldi R18,20607
	ldi R19,80
	ldi R16,33
	xcall _LCD_WR_CMD
	.dbline 316
; 		LCD_WR_REG(0x22);
	ldi R16,34
	xcall _LCD_WR_REG
	.dbline 317
; 		LCD_EC0;
	lds R24,98
	andi R24,247
	sts 98,R24
	.dbline 318
; 		LCD_RS1;
	lds R24,98
	ori R24,2
	sts 98,R24
	.dbline 319
; 	    temp=color[n];
	ldi R24,<_color
	ldi R25,>_color
	mov R30,R20
	clr R31
	lsl R30
	rol R31
	add R30,R24
	adc R31,R25
	ldd R10,z+0
	ldd R11,z+1
	.dbline 320
; 		for(num=128*160;num>0;num--)
	ldi R22,20480
	ldi R23,80
	xjmp L32
L29:
	.dbline 321
; 		{
	.dbline 322
; 			LCD_WR_Data(temp);
	movw R16,R10
	xcall _LCD_WR_Data
	.dbline 323
; 		}
L30:
	.dbline 320
	subi R22,1
	sbci R23,0
L32:
	.dbline 320
	cpi R22,0
	cpc R22,R23
	brne L29
X4:
	.dbline 324
; 		delay_nms(100);
	ldi R16,100
	ldi R17,0
	xcall _delay_nms
	.dbline 325
; 	}
L26:
	.dbline 311
	inc R20
L28:
	.dbline 311
	cpi R20,8
	brlo L25
X5:
	.dbline 326
; 	LCD_EC1;
	lds R24,98
	ori R24,8
	sts 98,R24
	.dbline 330
; 	
; 	
; 
; 	for(n=0;n<8;n++)                           //8
	clr R20
	xjmp L36
L33:
	.dbline 331
; 	{
	.dbline 332
; 		LCD_WR_CMD(0x44,95*256+0);
	ldi R18,24320
	ldi R19,95
	ldi R16,68
	xcall _LCD_WR_CMD
	.dbline 333
; 		LCD_WR_CMD(0x45,79*256+16);
	ldi R18,20240
	ldi R19,79
	ldi R16,69
	xcall _LCD_WR_CMD
	.dbline 334
; 		LCD_WR_CMD(0x21,16*256+0);	
	ldi R18,4096
	ldi R19,16
	ldi R16,33
	xcall _LCD_WR_CMD
	.dbline 335
; 		LCD_WR_REG(0x22);
	ldi R16,34
	xcall _LCD_WR_REG
	.dbline 336
; 		LCD_EC0;
	lds R24,98
	andi R24,247
	sts 98,R24
	.dbline 337
; 		LCD_RS1;
	lds R24,98
	ori R24,2
	sts 98,R24
	.dbline 338
; 	    temp=color[n];
	ldi R24,<_color
	ldi R25,>_color
	mov R30,R20
	clr R31
	lsl R30
	rol R31
	add R30,R24
	adc R31,R25
	ldd R10,z+0
	ldd R11,z+1
	.dbline 339
; 		for(num=64*96;num>0;num--)
	ldi R22,6144
	ldi R23,24
	xjmp L40
L37:
	.dbline 340
; 		{
	.dbline 341
; 			LCD_WR_Data(temp);
	movw R16,R10
	xcall _LCD_WR_Data
	.dbline 342
; 		}
L38:
	.dbline 339
	subi R22,1
	sbci R23,0
L40:
	.dbline 339
	cpi R22,0
	cpc R22,R23
	brne L37
X6:
	.dbline 343
; 		delay_nms(50);
	ldi R16,50
	ldi R17,0
	xcall _delay_nms
	.dbline 344
; 	}
L34:
	.dbline 330
	inc R20
L36:
	.dbline 330
	cpi R20,8
	brlo L33
X7:
	.dbline 345
; 	LCD_EC1;
	lds R24,98
	ori R24,8
	sts 98,R24
	.dbline -2
L8:
	.dbline 0 ; func end
	xjmp pop_xgsetF00C
	.dbsym r n 20 c
	.dbsym r temp 10 i
	.dbsym r num 22 i
	.dbend
	.dbfunc e LCD_MM _LCD_MM fV
;            num -> <dead>
;              p -> R22,R23
;          count -> R20,R21
	.even
_LCD_MM::
	xcall push_xgsetF000
	.dbline -1
	.dbline 354
; }
; 
; 
; //***********************************************************************
; //	   96x64
; //***********************************************************************
; 
; void LCD_MM()
; {
	.dbline 357
; 	uint num,count;
; 	const unsigned char *p; 
; 	LCD_WR_CMD(0x44,95*256+0);
	ldi R18,24320
	ldi R19,95
	ldi R16,68
	xcall _LCD_WR_CMD
	.dbline 358
; 	LCD_WR_CMD(0x45,79*256+16);
	ldi R18,20240
	ldi R19,79
	ldi R16,69
	xcall _LCD_WR_CMD
	.dbline 359
; 	LCD_WR_CMD(0x21,16*256+0);	
	ldi R18,4096
	ldi R19,16
	ldi R16,33
	xcall _LCD_WR_CMD
	.dbline 360
; 	LCD_WR_REG(0x22);
	ldi R16,34
	xcall _LCD_WR_REG
	.dbline 361
; 	LCD_EC0;
	lds R24,98
	andi R24,247
	sts 98,R24
	.dbline 362
; 	LCD_RS1;
	lds R24,98
	ori R24,2
	sts 98,R24
	.dbline 363
; 	p = gImage_mmp;
	ldi R22,<_gImage_mmp
	ldi R23,>_gImage_mmp
	.dbline 364
;   for(count=0;count<12288;count++)		
	clr R20
	clr R21
	xjmp L45
L42:
	.dbline 365
;    		{			
	.dbline 366
; 		  LCD_WR_DataP(*p++);
	movw R2,R22
	subi R22,255  ; offset = 1
	sbci R23,255
	movw R30,R2
	elpm R16,Z
	clr R17
	xcall _LCD_WR_DataP
	.dbline 367
; 		}	
L43:
	.dbline 364
	subi R20,255  ; offset = 1
	sbci R21,255
L45:
	.dbline 364
	cpi R20,0
	ldi R30,48
	cpc R21,R30
	brlo L42
X8:
	.dbline 368
; 	LCD_EC1;
	lds R24,98
	ori R24,8
	sts 98,R24
	.dbline -2
L41:
	.dbline 0 ; func end
	xjmp pop_xgsetF000
	.dbsym l num 1 i
	.dbsym r p 22 pkc
	.dbsym r count 20 i
	.dbend
	.dbfunc e LCD_ph _LCD_ph fV
;            num -> <dead>
;              p -> R22,R23
;          count -> R20,R21
	.even
_LCD_ph::
	xcall push_xgsetF000
	.dbline -1
	.dbline 377
; }
; 
; 
; //***********************************************************************
; //	   128X160
; //***********************************************************************
; 
; void LCD_ph()
; {
	.dbline 381
; 	uint num,count;
; 	const unsigned char *p; 
; 
; 	LCD_WR_CMD(0x44,127*256+0);              //
	ldi R18,32512
	ldi R19,127
	ldi R16,68
	xcall _LCD_WR_CMD
	.dbline 382
; 	LCD_WR_CMD(0x45,239*256+80);			 //
	ldi R18,61264
	ldi R19,239
	ldi R16,69
	xcall _LCD_WR_CMD
	.dbline 383
; 	LCD_WR_CMD(0x21,80*256);				 //RAM0x5000
	ldi R18,20480
	ldi R19,80
	ldi R16,33
	xcall _LCD_WR_CMD
	.dbline 384
; 	LCD_WR_REG(0x22);                     	 //GRAM
	ldi R16,34
	xcall _LCD_WR_REG
	.dbline 385
; 	LCD_EC0;
	lds R24,98
	andi R24,247
	sts 98,R24
	.dbline 386
; 	LCD_RS1;
	lds R24,98
	ori R24,2
	sts 98,R24
	.dbline 387
; 	p = gImage_ph1;
	ldi R22,<_gImage_ph1
	ldi R23,>_gImage_ph1
	.dbline 388
; 	for(count=0;count<20480;count++)		
	clr R20
	clr R21
	xjmp L50
L47:
	.dbline 389
;    		{					
	.dbline 390
; 			LCD_WR_DataP(*p++);
	movw R2,R22
	subi R22,255  ; offset = 1
	sbci R23,255
	movw R30,R2
	elpm R16,Z
	clr R17
	xcall _LCD_WR_DataP
	.dbline 391
; 		 }
L48:
	.dbline 388
	subi R20,255  ; offset = 1
	sbci R21,255
L50:
	.dbline 388
	cpi R20,0
	ldi R30,80
	cpc R21,R30
	brlo L47
X9:
	.dbline 393
;            
;     p = gImage_ph2;	
	ldi R22,<_gImage_ph2
	ldi R23,>_gImage_ph2
	.dbline 394
; 	for(count=0;count<20480;count++)		
	clr R20
	clr R21
	xjmp L54
L51:
	.dbline 395
;    		{
	.dbline 397
; 			
; 			LCD_WR_DataP(*p++);
	movw R2,R22
	subi R22,255  ; offset = 1
	sbci R23,255
	movw R30,R2
	elpm R16,Z
	clr R17
	xcall _LCD_WR_DataP
	.dbline 398
; 		 }
L52:
	.dbline 394
	subi R20,255  ; offset = 1
	sbci R21,255
L54:
	.dbline 394
	cpi R20,0
	ldi R30,80
	cpc R21,R30
	brlo L51
X10:
	.dbline -2
L46:
	.dbline 0 ; func end
	xjmp pop_xgsetF000
	.dbsym l num 1 i
	.dbsym r p 22 pkc
	.dbsym r count 20 i
	.dbend
	.dbfunc e LCD_clear _LCD_clear fV
;            num -> R20,R21
;              p -> R10,R11
	.even
_LCD_clear::
	xcall push_xgset300C
	movw R10,R16
	.dbline -1
	.dbline 411
; 		 
; 		 	
; 
; }
; 
; 
; //***********************************************************************
; //	   
; //***********************************************************************
; 
; 
; void LCD_clear(uint p)
; {
	.dbline 414
; 	uint num;
; 	
; 	LCD_WR_CMD(0x44,127*256+0);
	ldi R18,32512
	ldi R19,127
	ldi R16,68
	xcall _LCD_WR_CMD
	.dbline 415
; 	LCD_WR_CMD(0x45,239*256+80);
	ldi R18,61264
	ldi R19,239
	ldi R16,69
	xcall _LCD_WR_CMD
	.dbline 416
; 	LCD_WR_CMD(0x21,80*256+0);	
	ldi R18,20480
	ldi R19,80
	ldi R16,33
	xcall _LCD_WR_CMD
	.dbline 417
; 	LCD_WR_REG(0x22);
	ldi R16,34
	xcall _LCD_WR_REG
	.dbline 418
; 	LCD_EC0;
	lds R24,98
	andi R24,247
	sts 98,R24
	.dbline 419
; 	LCD_RS1;
	lds R24,98
	ori R24,2
	sts 98,R24
	.dbline 420
; 	for(num=160*128;num>0;num--)
	ldi R20,20480
	ldi R21,80
	xjmp L59
L56:
	.dbline 421
; 	{
	.dbline 422
; 		LCD_WR_Data(p);
	movw R16,R10
	xcall _LCD_WR_Data
	.dbline 423
; 	}
L57:
	.dbline 420
	subi R20,1
	sbci R21,0
L59:
	.dbline 420
	cpi R20,0
	cpc R20,R21
	brne L56
X11:
	.dbline 424
; 	LCD_WR_CMD(0x44,95*256+0);
	ldi R18,24320
	ldi R19,95
	ldi R16,68
	xcall _LCD_WR_CMD
	.dbline 425
; 	LCD_WR_CMD(0x45,79*256+16);
	ldi R18,20240
	ldi R19,79
	ldi R16,69
	xcall _LCD_WR_CMD
	.dbline 426
; 	LCD_WR_CMD(0x21,16*256+0);	
	ldi R18,4096
	ldi R19,16
	ldi R16,33
	xcall _LCD_WR_CMD
	.dbline 427
; 	LCD_WR_REG(0x22);
	ldi R16,34
	xcall _LCD_WR_REG
	.dbline 428
; 	LCD_EC0;
	lds R24,98
	andi R24,247
	sts 98,R24
	.dbline 429
; 	LCD_RS1;
	lds R24,98
	ori R24,2
	sts 98,R24
	.dbline 430
; 	for(num=64*96;num>0;num--)
	ldi R20,6144
	ldi R21,24
	xjmp L63
L60:
	.dbline 431
; 	{
	.dbline 432
; 		LCD_WR_Data(p);
	movw R16,R10
	xcall _LCD_WR_Data
	.dbline 433
; 	}
L61:
	.dbline 430
	subi R20,1
	sbci R21,0
L63:
	.dbline 430
	cpi R20,0
	cpc R20,R21
	brne L60
X12:
	.dbline 434
; 	LCD_EC1;
	lds R24,98
	ori R24,8
	sts 98,R24
	.dbline -2
L55:
	.dbline 0 ; func end
	xjmp pop_xgset300C
	.dbsym r num 20 i
	.dbsym r p 10 i
	.dbend
	.dbfunc e DisplayChar _DisplayChar fV
;              p -> R22,R23
;              j -> R20
;              i -> R12
;              b -> R10
;     char_color -> y+12
;      postion_y -> R14
;      postion_x -> R12
;           casc -> R10
	.even
_DisplayChar::
	xcall push_xgsetF0FC
	mov R12,R18
	mov R10,R16
	ldd R14,y+10
	.dbline -1
	.dbline 446
; }
; 
; //***********************************************************************
; //	   8X16
; //	   casc:
; //     x:,128/8 ==16
; //     y:,160/16==10
; //     char_color:
; //***********************************************************************
; 
; void DisplayChar(uchar casc,uchar postion_x,uchar postion_y,uint char_color)
; {
	.dbline 451
; 
; 	uchar i,j,b;
; 	uchar *p;
; 	
; 	LCD_WR_CMD(0x44,(postion_x*8+7)*256+(postion_x*8));	            //x end point
	mov R2,R12
	clr R3
	lsl R2
	rol R3
	lsl R2
	rol R3
	lsl R2
	rol R3
	ldi R16,256
	ldi R17,1
	movw R18,R2
	xcall empy16s
	movw R18,R16
	subi R18,0  ; offset = 1792
	sbci R19,249
	add R18,R2
	adc R19,R3
	ldi R16,68
	xcall _LCD_WR_CMD
	.dbline 452
; 	LCD_WR_CMD(0x45,(postion_y*16+15+80)*256+(postion_y*16+80));	//y end point
	ldi R24,16
	mul R24,R14
	movw R2,R0
	ldi R16,256
	ldi R17,1
	movw R18,R2
	xcall empy16s
	movw R18,R16
	subi R18,0  ; offset = 24320
	sbci R19,161
	movw R24,R2
	subi R24,176  ; offset = 80
	sbci R25,255
	add R18,R24
	adc R19,R25
	ldi R16,69
	xcall _LCD_WR_CMD
	.dbline 453
; 	LCD_WR_CMD(0x21,(postion_y*16+80)*256+(postion_x*8));	
	ldi R24,16
	mul R24,R14
	movw R18,R0
	ldi R16,256
	ldi R17,1
	xcall empy16s
	movw R18,R16
	subi R18,0  ; offset = 20480
	sbci R19,176
	mov R2,R12
	clr R3
	lsl R2
	rol R3
	lsl R2
	rol R3
	lsl R2
	rol R3
	add R18,R2
	adc R19,R3
	ldi R16,33
	xcall _LCD_WR_CMD
	.dbline 454
; 	LCD_WR_REG(0x22);
	ldi R16,34
	xcall _LCD_WR_REG
	.dbline 455
; 	LCD_EC0;
	lds R24,98
	andi R24,247
	sts 98,R24
	.dbline 456
; 	LCD_RS1;
	lds R24,98
	ori R24,2
	sts 98,R24
	.dbline 457
; 	p=ascii;
	ldi R22,<_ascii
	ldi R23,>_ascii
	.dbline 458
; 	p+=casc*16;
	ldi R24,16
	mul R24,R10
	add R22,R0
	adc R23,R1
	.dbline 459
; 	for(j=0;j<16;j++)
	clr R20
	xjmp L68
L65:
	.dbline 460
; 	{
	.dbline 461
; 		b=*(p+j);
	mov R30,R20
	clr R31
	add R30,R22
	adc R31,R23
	ldd R10,z+0
	.dbline 462
; 		for(i=0;i<8;i++)
	clr R12
	xjmp L72
L69:
	.dbline 463
; 		{
	.dbline 464
; 			if(b&0x80)
	sbrs R10,7
	rjmp L73
X13:
	.dbline 465
; 			{
	.dbline 466
; 				LCD_WR_Data(char_color);                //
	ldd R16,y+12
	ldd R17,y+13
	xcall _LCD_WR_Data
	.dbline 467
; 			}
	xjmp L74
L73:
	.dbline 469
; 			else
; 			{
	.dbline 470
; 				LCD_WR_Data(0x0000);       				//
	clr R16
	clr R17
	xcall _LCD_WR_Data
	.dbline 471
; 			}
L74:
	.dbline 472
; 			b=b<<1;
	lsl R10
	.dbline 474
; 			
; 		}	
L70:
	.dbline 462
	inc R12
L72:
	.dbline 462
	mov R24,R12
	cpi R24,8
	brlo L69
X14:
	.dbline 475
; 	}
L66:
	.dbline 459
	inc R20
L68:
	.dbline 459
	cpi R20,16
	brlo L65
X15:
	.dbline 476
; 	LCD_EC1;
	lds R24,98
	ori R24,8
	sts 98,R24
	.dbline -2
L64:
	.dbline 0 ; func end
	xjmp pop_xgsetF0FC
	.dbsym r p 22 pc
	.dbsym r j 20 c
	.dbsym r i 12 c
	.dbsym r b 10 c
	.dbsym l char_color 12 i
	.dbsym r postion_y 14 c
	.dbsym r postion_x 12 c
	.dbsym r casc 10 c
	.dbend
	.dbfunc e DisplayGB2312 _DisplayGB2312 fV
;              p -> R22,R23
;              j -> R20
;              i -> R12
;              b -> R10
;       gb_color -> y+12
;      postion_y -> R14
;      postion_x -> R12
;             gb -> R10
	.even
_DisplayGB2312::
	xcall push_xgsetF0FC
	mov R12,R18
	mov R10,R16
	ldd R14,y+10
	.dbline -1
	.dbline 487
; }
; //***********************************************************************
; //        16X16
; //		  gb:
; //         x:
; //         y:
; //		  color:
; //***********************************************************************
; 
; void DisplayGB2312(uchar gb,uchar postion_x,uchar postion_y,uint gb_color)
; {
	.dbline 492
; 
; 	uchar i,j,b;
; 	uchar *p;
; 	
; 	LCD_WR_CMD(0x44,(postion_x*16+15)*256+(postion_x*16));	        //x end point
	ldi R24,16
	mul R24,R12
	movw R2,R0
	ldi R16,256
	ldi R17,1
	movw R18,R2
	xcall empy16s
	movw R18,R16
	subi R18,0  ; offset = 3840
	sbci R19,241
	add R18,R2
	adc R19,R3
	ldi R16,68
	xcall _LCD_WR_CMD
	.dbline 493
; 	LCD_WR_CMD(0x45,(postion_y*16+15+80)*256+(postion_y*16+80));	//y end point
	ldi R24,16
	mul R24,R14
	movw R2,R0
	ldi R16,256
	ldi R17,1
	movw R18,R2
	xcall empy16s
	movw R18,R16
	subi R18,0  ; offset = 24320
	sbci R19,161
	movw R24,R2
	subi R24,176  ; offset = 80
	sbci R25,255
	add R18,R24
	adc R19,R25
	ldi R16,69
	xcall _LCD_WR_CMD
	.dbline 494
; 	LCD_WR_CMD(0x21,(postion_y*16+80)*256+(postion_x*16));	
	ldi R24,16
	mul R24,R14
	movw R18,R0
	ldi R16,256
	ldi R17,1
	xcall empy16s
	movw R18,R16
	subi R18,0  ; offset = 20480
	sbci R19,176
	ldi R24,16
	mul R24,R12
	add R18,R0
	adc R19,R1
	ldi R16,33
	xcall _LCD_WR_CMD
	.dbline 495
; 	LCD_WR_REG(0x22);
	ldi R16,34
	xcall _LCD_WR_REG
	.dbline 496
; 	LCD_EC0;
	lds R24,98
	andi R24,247
	sts 98,R24
	.dbline 497
; 	LCD_RS1;
	lds R24,98
	ori R24,2
	sts 98,R24
	.dbline 498
; 	p=GB2312;
	ldi R22,<_GB2312
	ldi R23,>_GB2312
	.dbline 499
; 	p+=gb*32;
	ldi R24,32
	mul R24,R10
	add R22,R0
	adc R23,R1
	.dbline 500
; 	for(j=0;j<32;j++)
	clr R20
	xjmp L79
L76:
	.dbline 501
; 	{
	.dbline 502
; 		b=*(p+j);
	mov R30,R20
	clr R31
	add R30,R22
	adc R31,R23
	ldd R10,z+0
	.dbline 503
; 		for(i=0;i<8;i++)
	clr R12
	xjmp L83
L80:
	.dbline 504
; 		{
	.dbline 505
; 			if(b&0x80)
	sbrs R10,7
	rjmp L84
X16:
	.dbline 506
; 			{
	.dbline 507
; 				LCD_WR_Data(gb_color);          //
	ldd R16,y+12
	ldd R17,y+13
	xcall _LCD_WR_Data
	.dbline 508
; 			}
	xjmp L85
L84:
	.dbline 510
; 			else
; 			{
	.dbline 511
; 				LCD_WR_Data(0x0000);         //
	clr R16
	clr R17
	xcall _LCD_WR_Data
	.dbline 512
; 			}
L85:
	.dbline 513
; 			b=b<<1;
	lsl R10
	.dbline 515
; 			
; 		}	
L81:
	.dbline 503
	inc R12
L83:
	.dbline 503
	mov R24,R12
	cpi R24,8
	brlo L80
X17:
	.dbline 516
; 	}
L77:
	.dbline 500
	inc R20
L79:
	.dbline 500
	cpi R20,32
	brlo L76
X18:
	.dbline 517
; 	LCD_EC1;
	lds R24,98
	ori R24,8
	sts 98,R24
	.dbline -2
L75:
	.dbline 0 ; func end
	xjmp pop_xgsetF0FC
	.dbsym r p 22 pc
	.dbsym r j 20 c
	.dbsym r i 12 c
	.dbsym r b 10 c
	.dbsym l gb_color 12 i
	.dbsym r postion_y 14 c
	.dbsym r postion_x 12 c
	.dbsym r gb 10 c
	.dbend
	.dbfunc e DisplayString _DisplayString fV
;        s_color -> y+12
;              y -> R22
;              x -> R10
;              s -> R20,R21
	.even
_DisplayString::
	xcall push_xgsetF00C
	mov R10,R18
	movw R20,R16
	sbiw R28,4
	ldd R22,y+10
	.dbline -1
	.dbline 528
; }
; 
; //***********************************************************************
; //         
; //		   s:ASCII
; //         x:
; //         y:
; //***********************************************************************
; 
; void DisplayString(uchar *s,uchar x,uchar y,uint s_color)                      //.
; {
	xjmp L88
L87:
	.dbline 530
; 	while (*s) 
; 	{ 
	.dbline 531
; 		DisplayChar(*s,x,y,s_color);
	ldd R0,y+12
	ldd R1,y+13
	std y+3,R1
	std y+2,R0
	std y+0,R22
	mov R18,R10
	movw R30,R20
	ldd R16,z+0
	xcall _DisplayChar
	.dbline 532
; 		if(++x>=16)
	mov R24,R10
	subi R24,255    ; addi 1
	mov R10,R24
	cpi R24,16
	brlo L90
X19:
	.dbline 533
; 		{
	.dbline 534
; 			x=0;
	clr R10
	.dbline 535
; 			if(++y>=10)
	mov R24,R22
	subi R24,255    ; addi 1
	mov R22,R24
	cpi R22,10
	brlo L92
X20:
	.dbline 536
; 			{
	.dbline 537
; 				y=0;
	clr R22
	.dbline 538
; 			}
L92:
	.dbline 539
; 		}
L90:
	.dbline 540
; 		s++;
	subi R20,255  ; offset = 1
	sbci R21,255
	.dbline 541
;     }
L88:
	.dbline 529
	movw R30,R20
	ldd R2,z+0
	tst R2
	brne L87
X21:
	.dbline -2
L86:
	.dbline 0 ; func end
	adiw R28,4
	xjmp pop_xgsetF00C
	.dbsym l s_color 12 i
	.dbsym r y 22 c
	.dbsym r x 10 c
	.dbsym r s 20 pc
	.dbend
	.dbfunc e GUIback _GUIback fV
;            num -> R20,R21
;     back_color -> R10,R11
	.even
_GUIback::
	xcall push_xgset300C
	movw R10,R16
	.dbline -1
	.dbline 549
; }
; 
; //***********************************************************************
; //          ,
; //***********************************************************************
; 
; void GUIback(uint back_color)                 //
;   {
	.dbline 551
;   	uint num;
; 	LCD_WR_CMD(0x44,127*256+0);              //
	ldi R18,32512
	ldi R19,127
	ldi R16,68
	xcall _LCD_WR_CMD
	.dbline 552
; 	LCD_WR_CMD(0x45,239*256+80);			 //
	ldi R18,61264
	ldi R19,239
	ldi R16,69
	xcall _LCD_WR_CMD
	.dbline 553
; 	LCD_WR_CMD(0x21,80*256);				 //RAM0x5000
	ldi R18,20480
	ldi R19,80
	ldi R16,33
	xcall _LCD_WR_CMD
	.dbline 554
; 	LCD_WR_REG(0x22);                     	 //GRAM
	ldi R16,34
	xcall _LCD_WR_REG
	.dbline 555
;     LCD_EC0;
	lds R24,98
	andi R24,247
	sts 98,R24
	.dbline 556
; 	LCD_RS1;
	lds R24,98
	ori R24,2
	sts 98,R24
	.dbline 557
; 	for(num=160*128;num>0;num--)
	ldi R20,20480
	ldi R21,80
	xjmp L98
L95:
	.dbline 558
; 	{
	.dbline 559
; 		LCD_WR_Data(back_color);
	movw R16,R10
	xcall _LCD_WR_Data
	.dbline 560
; 	}
L96:
	.dbline 557
	subi R20,1
	sbci R21,0
L98:
	.dbline 557
	cpi R20,0
	cpc R20,R21
	brne L95
X22:
	.dbline 561
; 	LCD_EC1;
	lds R24,98
	ori R24,8
	sts 98,R24
	.dbline -2
L94:
	.dbline 0 ; func end
	xjmp pop_xgset300C
	.dbsym r num 20 i
	.dbsym r back_color 10 i
	.dbend
	.dbfunc e GUIpoint _GUIpoint fV
;    point_color -> y+2
;              y -> R12
;              x -> R10
	.even
_GUIpoint::
	st -y,R10
	st -y,R12
	mov R12,R18
	mov R10,R16
	.dbline -1
	.dbline 569
;   }
; 
; //***********************************************************************
; //         GUIx,y
; //***********************************************************************
; 
; void GUIpoint(uchar x,uchar y,uint point_color)                      //
; {
	.dbline 571
; 	
; 	LCD_WR_CMD(0x44,127*256+0);              //
	ldi R18,32512
	ldi R19,127
	ldi R16,68
	xcall _LCD_WR_CMD
	.dbline 572
; 	LCD_WR_CMD(0x45,239*256+80);			 //
	ldi R18,61264
	ldi R19,239
	ldi R16,69
	xcall _LCD_WR_CMD
	.dbline 573
; 	LCD_WR_CMD(0x21,(y+80)*256+x);			 //RAM0x5000
	mov R18,R12
	clr R19
	ldi R16,256
	ldi R17,1
	xcall empy16s
	movw R18,R16
	subi R18,0  ; offset = 20480
	sbci R19,176
	mov R2,R10
	clr R3
	add R18,R2
	adc R19,R3
	ldi R16,33
	xcall _LCD_WR_CMD
	.dbline 574
; 	LCD_WR_REG(0x22);                     	 //GRAM
	ldi R16,34
	xcall _LCD_WR_REG
	.dbline 575
; 	LCD_EC0;
	lds R24,98
	andi R24,247
	sts 98,R24
	.dbline 576
; 	LCD_RS1;
	lds R24,98
	ori R24,2
	sts 98,R24
	.dbline 578
; 	
; 	LCD_WR_Data(point_color);               //	
	ldd R16,y+2
	ldd R17,y+3
	xcall _LCD_WR_Data
	.dbline 580
; 	
; 	LCD_EC1;	
	lds R24,98
	ori R24,8
	sts 98,R24
	.dbline -2
L99:
	.dbline 0 ; func end
	ld R12,y+
	ld R10,y+
	ret
	.dbsym l point_color 2 i
	.dbsym r y 12 c
	.dbsym r x 10 c
	.dbend
	.dbfunc e GUIline _GUIline fV
;           temp -> R14,R15
;             dy -> R20,R21
;             dx -> R20,R21
;             s2 -> y+4
;             s1 -> y+2
;         status -> R20,R21
;              i -> R14,R15
;             Dx -> R10,R11
;             Dy -> R12,R13
;            sub -> R22,R23
;     line_color -> y+24
;             y1 -> R12
;             x1 -> R10
;             y0 -> y+18
;             x0 -> y+16
	.even
_GUIline::
	xcall push_arg4
	xcall push_xgsetF0FC
	sbiw R28,6
	ldd R10,y+20
	ldd R12,y+22
	.dbline -1
	.dbline 591
; }
; 
; 
; 
; //***********************************************************************
; //         GUIx0,y0,x1,y1
; //		   line_color 
; //***********************************************************************
; 
; void GUIline(uchar x0,uchar y0,uchar x1,uchar y1,uint line_color)   //
; {
	.dbline 597
;   	int temp; 
;     int dx,dy;               	// 
;     int s1,s2,status,i; 
;     int Dx,Dy,sub; 
; 	
; 	dx = x1 - x0; 
	ldd R2,y+16
	clr R3
	mov R20,R10
	clr R21
	sub R20,R2
	sbc R21,R3
	.dbline 598
;     if(dx >= 0)                 //X 
	cpi R20,0
	ldi R30,0
	cpc R21,R30
	brlt L101
X23:
	.dbline 599
;         s1 = 1; 
	ldi R24,1
	ldi R25,0
	std y+3,R25
	std y+2,R24
	xjmp L102
L101:
	.dbline 601
;     else                     	//X 
;         s1 = -1;      
	ldi R24,-1
	ldi R25,-1
	std y+3,R25
	std y+2,R24
L102:
	.dbline 602
;     dy = y1 - y0;                 //Y 
	ldd R2,y+18
	clr R3
	mov R20,R12
	clr R21
	sub R20,R2
	sbc R21,R3
	.dbline 603
;     if(dy >= 0) 
	cpi R20,0
	ldi R30,0
	cpc R21,R30
	brlt L103
X24:
	.dbline 604
;         s2 = 1; 
	ldi R24,1
	ldi R25,0
	std y+5,R25
	std y+4,R24
	xjmp L104
L103:
	.dbline 606
;     else 
;         s2 =- 1; 
	ldi R24,-1
	ldi R25,-1
	std y+5,R25
	std y+4,R24
L104:
	.dbline 608
;    
;     Dx = abs(x1-x0);             // 
	ldd R2,y+16
	clr R3
	mov R16,R10
	clr R17
	sub R16,R2
	sbc R17,R3
	xcall _abs
	movw R10,R16
	.dbline 609
;     Dy = abs(y1-y0); 
	ldd R2,y+18
	clr R3
	mov R16,R12
	clr R17
	sub R16,R2
	sbc R17,R3
	xcall _abs
	movw R12,R16
	.dbline 611
;         
;     if(Dy > Dx)                               
	cp R10,R16
	cpc R11,R17
	brge L105
X25:
	.dbline 612
;     {                     		//45Ystatus=1,Xstatus=0  
	.dbline 613
;         temp = Dx; 
	movw R14,R10
	.dbline 614
;         Dx = Dy; 
	movw R10,R12
	.dbline 615
;         Dy = temp; 
	movw R12,R14
	.dbline 616
;     status = 1; 
	ldi R20,1
	ldi R21,0
	.dbline 617
;     }  
	xjmp L106
L105:
	.dbline 619
;     else 
;         status = 0; 
	clr R20
	clr R21
L106:
	.dbline 622
; 
; /*********Bresenham********/  
;     sub = Dy + Dy - Dx;                 //1 
	movw R22,R12
	add R22,R12
	adc R23,R13
	sub R22,R10
	sbc R23,R11
	.dbline 623
;     for(i = 0;i < Dx;i ++) 
	clr R14
	clr R15
	xjmp L110
L107:
	.dbline 624
;     {  
	.dbline 625
;         GUIpoint(x0,y0,line_color);           //  
	ldd R0,y+24
	ldd R1,y+25
	std y+1,R1
	std y+0,R0
	ldd R18,y+18
	ldd R16,y+16
	xcall _GUIpoint
	.dbline 626
;         if(sub >= 0)                                
	cpi R22,0
	ldi R30,0
	cpc R23,R30
	brlt L111
X26:
	.dbline 627
;         {  
	.dbline 628
;             if(status == 1)               //Yx1 
	cpi R20,1
	ldi R30,0
	cpc R21,R30
	brne L113
X27:
	.dbline 629
;                 x0 += s1;  
	ldd R2,y+16
	clr R3
	ldd R0,y+2
	ldd R1,y+3
	add R2,R0
	adc R3,R1
	std y+16,R2
	xjmp L114
L113:
	.dbline 631
;             else                     //Xy1                
;                 y0 += s2;  
	ldd R2,y+18
	clr R3
	ldd R0,y+4
	ldd R1,y+5
	add R2,R0
	adc R3,R1
	std y+18,R2
L114:
	.dbline 632
;             sub -= (Dx + Dx);                 //  
	movw R2,R10
	add R2,R10
	adc R3,R11
	sub R22,R2
	sbc R23,R3
	.dbline 633
;         }  
L111:
	.dbline 634
;         if(status == 1) 
	cpi R20,1
	ldi R30,0
	cpc R21,R30
	brne L115
X28:
	.dbline 635
;             y0 += s2;  
	ldd R2,y+18
	clr R3
	ldd R0,y+4
	ldd R1,y+5
	add R2,R0
	adc R3,R1
	std y+18,R2
	xjmp L116
L115:
	.dbline 637
;         else        
;             x0 += s1;  
	ldd R2,y+16
	clr R3
	ldd R0,y+2
	ldd R1,y+3
	add R2,R0
	adc R3,R1
	std y+16,R2
L116:
	.dbline 638
;         sub += Dy + Dy;  
	movw R2,R12
	add R2,R12
	adc R3,R13
	add R22,R2
	adc R23,R3
	.dbline 640
;          
;     }  
L108:
	.dbline 623
	movw R24,R14
	adiw R24,1
	movw R14,R24
L110:
	.dbline 623
	cp R14,R10
	cpc R15,R11
	brge X30
	xjmp L107
X30:
X29:
	.dbline -2
L100:
	.dbline 0 ; func end
	adiw R28,6
	xcall pop_xgsetF0FC
	adiw R28,4
	ret
	.dbsym r temp 14 I
	.dbsym r dy 20 I
	.dbsym r dx 20 I
	.dbsym l s2 4 I
	.dbsym l s1 2 I
	.dbsym r status 20 I
	.dbsym r i 14 I
	.dbsym r Dx 10 I
	.dbsym r Dy 12 I
	.dbsym r sub 22 I
	.dbsym l line_color 24 i
	.dbsym r y1 12 c
	.dbsym r x1 10 c
	.dbsym l y0 18 c
	.dbsym l x0 16 c
	.dbend
	.dbfunc e GUIfull _GUIfull fV
;              j -> R10
;              i -> R14
;    full_colour -> y+12
;             y1 -> y+10
;             x1 -> y+8
;             y0 -> R14
;             x0 -> R12
	.even
_GUIfull::
	xcall push_xgset00FC
	mov R14,R18
	mov R12,R16
	sbiw R28,2
	.dbline -1
	.dbline 654
; } 
; 
; /**************************************************************************** 
; * GUI_Full(unsigned char x0,unsigned char y0,unsigned char x1,unsigned char y1,unsigned char full_colour) 
; *  
; * x0 			 
; *           y0    		 
; *           x1 			 
; *           y1      	 
; *          full_color      	 
; *  
; ****************************************************************************/ 
; void GUIfull(uchar x0,uchar y0,uchar x1,uchar y1,uint full_colour) 
; { 
	.dbline 656
;     unsigned char i,j; 
; for(j = y0;j <= y1;j ++) 
	mov R10,R14
	xjmp L121
L118:
	.dbline 657
;     for(i = x0;i <= x1;i ++) 
	mov R14,R12
	xjmp L125
L122:
	.dbline 658
;     GUIpoint(i,j,full_colour); 
	ldd R0,y+12
	ldd R1,y+13
	std y+1,R1
	std y+0,R0
	mov R18,R10
	mov R16,R14
	xcall _GUIpoint
L123:
	.dbline 657
	inc R14
L125:
	.dbline 657
	ldd R2,y+8
	clr R3
	mov R4,R14
	clr R5
	cp R2,R4
	cpc R3,R5
	brge L122
X31:
L119:
	.dbline 656
	inc R10
L121:
	.dbline 656
	ldd R2,y+10
	clr R3
	mov R4,R10
	clr R5
	cp R2,R4
	cpc R3,R5
	brge L118
X32:
	.dbline -2
L117:
	.dbline 0 ; func end
	adiw R28,2
	xjmp pop_xgset00FC
	.dbsym r j 10 c
	.dbsym r i 14 c
	.dbsym l full_colour 12 i
	.dbsym l y1 10 c
	.dbsym l x1 8 c
	.dbsym r y0 14 c
	.dbsym r x0 12 c
	.dbend
	.dbfunc e plotC _plotC fV
;      yc_colour -> R22,R23
;             yc -> R14,R15
;             xc -> R12
;              y -> R10
;              x -> R20
	.even
_plotC::
	xcall push_xgsetF0FC
	mov R10,R18
	mov R20,R16
	sbiw R28,2
	ldd R12,y+12
	ldd R14,y+14
	ldd R15,y+15
	ldd R22,y+16
	ldd R23,y+17
	.dbline -1
	.dbline 671
; } 
; 
; 
; /**************************************************************************** 
; * plotC(int x,int y,int xc,int yc,unsigned char yc_colour) 
; *  
; * x    		 
; *           y    		 
; *          yc_color 	, 
; *  
; ****************************************************************************/ 
; void plotC(uchar x,uchar y,uchar xc,int yc,uint yc_colour) 
; { 
	.dbline 672
;     GUIpoint(xc+x,yc+y,yc_colour); 
	std y+1,R23
	std y+0,R22
	mov R2,R10
	clr R3
	movw R18,R14
	add R18,R2
	adc R19,R3
	mov R16,R12
	add R16,R20
	xcall _GUIpoint
	.dbline 673
;     GUIpoint(xc+x,yc-y,yc_colour); 
	std y+1,R23
	std y+0,R22
	mov R2,R10
	clr R3
	movw R18,R14
	sub R18,R2
	sbc R19,R3
	mov R16,R12
	add R16,R20
	xcall _GUIpoint
	.dbline 674
;     GUIpoint(xc-x,yc+y,yc_colour); 
	std y+1,R23
	std y+0,R22
	mov R2,R10
	clr R3
	movw R18,R14
	add R18,R2
	adc R19,R3
	mov R16,R12
	sub R16,R20
	xcall _GUIpoint
	.dbline 675
;     GUIpoint(xc-x,yc-y,yc_colour); 
	std y+1,R23
	std y+0,R22
	mov R2,R10
	clr R3
	movw R18,R14
	sub R18,R2
	sbc R19,R3
	mov R16,R12
	sub R16,R20
	xcall _GUIpoint
	.dbline 676
;     GUIpoint(xc+y,yc+x,yc_colour); 
	std y+1,R23
	std y+0,R22
	mov R2,R20
	clr R3
	movw R18,R14
	add R18,R2
	adc R19,R3
	mov R16,R12
	add R16,R10
	xcall _GUIpoint
	.dbline 677
;     GUIpoint(xc+y,yc-x,yc_colour); 
	std y+1,R23
	std y+0,R22
	mov R2,R20
	clr R3
	movw R18,R14
	sub R18,R2
	sbc R19,R3
	mov R16,R12
	add R16,R10
	xcall _GUIpoint
	.dbline 678
;     GUIpoint(xc-y,yc+x,yc_colour); 
	std y+1,R23
	std y+0,R22
	mov R2,R20
	clr R3
	movw R18,R14
	add R18,R2
	adc R19,R3
	mov R16,R12
	sub R16,R10
	xcall _GUIpoint
	.dbline 679
;     GUIpoint(xc-y,yc-x,yc_colour); 
	std y+1,R23
	std y+0,R22
	mov R2,R20
	clr R3
	movw R18,R14
	sub R18,R2
	sbc R19,R3
	mov R16,R12
	sub R16,R10
	xcall _GUIpoint
	.dbline -2
L126:
	.dbline 0 ; func end
	adiw R28,2
	xjmp pop_xgsetF0FC
	.dbsym r yc_colour 22 i
	.dbsym r yc 14 I
	.dbsym r xc 12 c
	.dbsym r y 10 c
	.dbsym r x 20 c
	.dbend
	.dbfunc e GUIcircle _GUIcircle fV
;              d -> R10,R11
;              y -> R22,R23
;              x -> R20,R21
;  circle_colour -> y+18
;              r -> R10
;             yc -> R12
;             xc -> R14
	.even
_GUIcircle::
	xcall push_xgsetF0FC
	mov R12,R18
	mov R14,R16
	sbiw R28,6
	ldd R10,y+16
	.dbline -1
	.dbline 692
; } 
; 
; /**************************************************************************** 
; * GUI_Circle(int xc,int yc,int r,unsigned char circle_colour) 
; *  
; * xc 				 
; *           yc    			 
; *           r 				 
; *          circle_color      
; *  
; ****************************************************************************/ 
; void GUIcircle(uchar xc,uchar yc,uchar r,uint circle_colour) 
; { 
	.dbline 694
;     int x,y,d; 
;     y = r; 
	mov R22,R10
	clr R23
	.dbline 695
;     d = 3 - (r + r); 
	mov R2,R10
	clr R3
	mov R4,R2
	clr R5
	add R4,R2
	adc R5,R3
	ldi R24,3
	ldi R25,0
	movw R10,R24
	sub R10,R4
	sbc R11,R5
	.dbline 696
;     x = 0; 
	clr R20
	clr R21
	xjmp L129
L128:
	.dbline 698
;     while(x <= y) 
;     { 
	.dbline 699
;         plotC(x,y,xc,yc,circle_colour); 
	ldd R0,y+18
	ldd R1,y+19
	std y+5,R1
	std y+4,R0
	mov R2,R12
	clr R3
	std y+3,R3
	std y+2,R2
	std y+0,R14
	mov R18,R22
	mov R16,R20
	xcall _plotC
	.dbline 700
;         if(d < 0) 
	movw R24,R10
	cpi R24,0
	ldi R30,0
	cpc R25,R30
	brge L131
X33:
	.dbline 701
;             d += (x + x + x + x) + 6; 
	movw R24,R20
	add R24,R20
	adc R25,R21
	add R24,R20
	adc R25,R21
	add R24,R20
	adc R25,R21
	adiw R24,6
	add R10,R24
	adc R11,R25
	xjmp L132
L131:
	.dbline 703
;         else 
;         { 
	.dbline 704
;             d+=((x - y) + (x - y) + (x - y) + (x - y)) + 10; 
	movw R2,R20
	sub R2,R22
	sbc R3,R23
	movw R24,R2
	add R24,R2
	adc R25,R3
	add R24,R2
	adc R25,R3
	add R24,R2
	adc R25,R3
	adiw R24,10
	add R10,R24
	adc R11,R25
	.dbline 705
;             y = y - 1; 
	subi R22,1
	sbci R23,0
	.dbline 706
;         } 
L132:
	.dbline 707
;         x = x + 1; 
	subi R20,255  ; offset = 1
	sbci R21,255
	.dbline 708
;     } 
L129:
	.dbline 697
	cp R22,R20
	cpc R23,R21
	brge L128
X34:
	.dbline -2
L127:
	.dbline 0 ; func end
	adiw R28,6
	xjmp pop_xgsetF0FC
	.dbsym r d 10 I
	.dbsym r y 22 I
	.dbsym r x 20 I
	.dbsym l circle_colour 18 i
	.dbsym r r 10 c
	.dbsym r yc 12 c
	.dbsym r xc 14 c
	.dbend
	.area bss(ram, con, rel)
	.dbfile E:\DMAVR-~3\TFTTEST\TFT.c
_RamVar_1::
	.blkb 512
	.dbsym e RamVar_1 _RamVar_1 A[512:512]c
; }
