

HI-TECH Software PICC Macro Assembler V9.60
                                                      Thu Dec 13 10:03:28 2012


     1                           	processor	16F877A
     2                           	opt	pw 79
     3                           	psect	text2,local,class=CODE,delta=2
     4                           	psect	text6,local,class=CODE,delta=2
     5                           	psect	strings,global,class=STRING,delta=2
     6                           	psect	text10,local,class=CODE,delta=2
     7                           	psect	text12,local,class=CODE,delta=2
     8                           	psect	text13,local,class=CODE,delta=2
     9                           	psect	temp,global,ovrld,class=BANK0,space=1,de
      +                          lta=1
    10  0000                     
    11  0000                     
    12  0000                     
    13  0000                     
    14  0000                     
    15  0000                     
    16  0000                     
    17  0000                     
    18  0000                     
    19  0000                     
    20  0000                     _delayms$count	set	?_delayms
    21                           
    22                           	psect	text2
    23  0955                     _Write_Data
    24                           ;	_DH assigned to ?a_Write_Data+0
    25  0000                     _Write_Data$DH	set	?a_Write_Data
    26                           ;_DH stored from w
    27  0955  0183               	clrf	3	;select bank 0
    28  0956  00D4               	movwf	?a_Write_Data
    29                           ;NBCTFT.C: 70: void Write_Data(unsigned char DH
      +                          ,unsigned char DL)
    30  0957  1108               	bcf	8,2
    31                           ;NBCTFT.C: 73: RD5=1;
    32  0958  1688               	bsf	8,5
    33                           ;NBCTFT.C: 76: PORTB=DL;
    34  0959  0853               	movf	?_Write_Data,w
    35  095A  0086               	movwf	6	;volatile
    36                           ;NBCTFT.C: 77: RD0=1;
    37  095B  1408               	bsf	8,0
    38                           ;NBCTFT.C: 78: RD0=0;
    39  095C  1008               	bcf	8,0
    40                           ;NBCTFT.C: 80: PORTB=DH;
    41  095D  0854               	movf	?a_Write_Data,w
    42  095E  0086               	movwf	6	;volatile
    43                           ;NBCTFT.C: 88: RD4=0;
    44  095F  1208               	bcf	8,4
    45                           ;NBCTFT.C: 89: RD4=1;
    46  0960  1608               	bsf	8,4
    47                           ;NBCTFT.C: 90: RD2=1;
    48  0961  1508               	bsf	8,2
    49                           ;NBCTFT.C: 91: }
    50  0962  0008               	return	;W free
    51  0963                     _Write_Data_U16
    52                           ;	_n assigned to ?a_Write_Data_U16+0
    53  0000                     _Write_Data_U16$n	set	?a_Write_Data_U16
    54                           ;	_m assigned to ?a_Write_Data_U16+1
    55  0000                     _Write_Data_U16$m	set	?a_Write_Data_U16+1
    56                           ;NBCTFT.C: 97: void Write_Data_U16(unsigned int
      +                           y)
    57  0963  0183               	clrf	3	;select bank 0
    58  0964  0847               	movf	?_Write_Data_U16+1,w
    59  0965  00C9               	movwf	?a_Write_Data_U16+1
    60                           ;NBCTFT.C: 101: n=y;
    61  0966  0846               	movf	?_Write_Data_U16,w
    62  0967  00C8               	movwf	?a_Write_Data_U16
    63                           ;NBCTFT.C: 102: Write_Data(m,n);
    64  0968  00D3               	movwf	?_Write_Data
    65  0969  0849               	movf	?a_Write_Data_U16+1,w
    66  096A  2955               	ljmp	_Write_Data
    67  096B                     _Write_Cmd
    68                           ;	_DH assigned to ?a_Write_Cmd+0
    69  0000                     _Write_Cmd$DH	set	?a_Write_Cmd
    70                           ;_DH stored from w
    71  096B  0183               	clrf	3	;select bank 0
    72  096C  00D4               	movwf	?a_Write_Cmd
    73                           ;NBCTFT.C: 41: void Write_Cmd(unsigned char DH,
      +                          unsigned char DL)
    74  096D  1108               	bcf	8,2
    75                           ;NBCTFT.C: 44: RD5=0;
    76  096E  1288               	bcf	8,5
    77                           ;NBCTFT.C: 45: RD3=1;
    78  096F  1588               	bsf	8,3
    79                           ;NBCTFT.C: 46: RD4=0;
    80  0970  1208               	bcf	8,4
    81                           ;NBCTFT.C: 49: PORTB=DL;
    82  0971  0853               	movf	?_Write_Cmd,w
    83  0972  0086               	movwf	6	;volatile
    84                           ;NBCTFT.C: 50: RD0=1;
    85  0973  1408               	bsf	8,0
    86                           ;NBCTFT.C: 51: RD0=0;
    87  0974  1008               	bcf	8,0
    88                           ;NBCTFT.C: 53: PORTB=DH;
    89  0975  0854               	movf	?a_Write_Cmd,w
    90  0976  0086               	movwf	6	;volatile
    91                           ;NBCTFT.C: 61: RD4=1;
    92  0977  1608               	bsf	8,4
    93                           ;NBCTFT.C: 62: RD2=1;
    94  0978  1508               	bsf	8,2
    95                           ;NBCTFT.C: 63: }
    96  0979  0008               	return	;W free
    97  097A                     _Write_Cmd_Data
    98                           ;	_x assigned to ?a_Write_Cmd_Data+0
    99  0000                     _Write_Cmd_Data$x	set	?a_Write_Cmd_Data
   100                           ;	_n assigned to ?a_Write_Cmd_Data+1
   101  0000                     _Write_Cmd_Data$n	set	?a_Write_Cmd_Data+1
   102                           ;	_m assigned to ?a_Write_Cmd_Data+2
   103  0000                     _Write_Cmd_Data$m	set	?a_Write_Cmd_Data+2
   104                           ;_x stored from w
   105  097A  0183               	clrf	3	;select bank 0
   106  097B  00D0               	movwf	?a_Write_Cmd_Data
   107                           ;NBCTFT.C: 110: void Write_Cmd_Data (unsigned c
      +                          har x,unsigned int y)
   108  097C  084F               	movf	?_Write_Cmd_Data+1,w
   109  097D  00D2               	movwf	?a_Write_Cmd_Data+2
   110                           ;NBCTFT.C: 114: n=y;
   111  097E  084E               	movf	?_Write_Cmd_Data,w
   112  097F  00D1               	movwf	?a_Write_Cmd_Data+1
   113                           ;NBCTFT.C: 115: Write_Cmd(0x00,x);
   114  0980  0850               	movf	?a_Write_Cmd_Data,w
   115  0981  00D3               	movwf	?_Write_Cmd
   116  0982  3000               	movlw	0
   117  0983  216B               	fcall	_Write_Cmd
   118                           ;NBCTFT.C: 116: Write_Data(m,n);
   119  0984  0851               	movf	?a_Write_Cmd_Data+1,w
   120  0985  00D3               	movwf	?_Write_Data
   121  0986  0852               	movf	?a_Write_Cmd_Data+2,w
   122  0987  2955               	ljmp	_Write_Data
   123  0988                     _LCD_SetPos
   124                           ;NBCTFT.C: 125: void LCD_SetPos(unsigned int x0
      +                          ,unsigned int x1,unsigned int y0,unsigned int y
      +                          1)
   125  0988  0183               	clrf	3	;select bank 0
   126  0989  0846               	movf	?_LCD_SetPos,w
   127  098A  00CE               	movwf	?_Write_Cmd_Data
   128  098B  0847               	movf	?_LCD_SetPos+1,w
   129  098C  00CF               	movwf	?_Write_Cmd_Data+1
   130  098D  3050               	movlw	80
   131  098E  217A  120A  158A   	fcall	_Write_Cmd_Data
   132                           ;NBCTFT.C: 129: Write_Cmd_Data(0x51,x1);
   133  0991  0848               	movf	?_LCD_SetPos+2,w
   134  0992  00CE               	movwf	?_Write_Cmd_Data
   135  0993  0849               	movf	?_LCD_SetPos+3,w
   136  0994  00CF               	movwf	?_Write_Cmd_Data+1
   137  0995  3051               	movlw	81
   138  0996  217A  120A  158A   	fcall	_Write_Cmd_Data
   139                           ;NBCTFT.C: 130: Write_Cmd_Data(0x52,y0);
   140  0999  084A               	movf	?_LCD_SetPos+4,w
   141  099A  00CE               	movwf	?_Write_Cmd_Data
   142  099B  084B               	movf	?_LCD_SetPos+5,w
   143  099C  00CF               	movwf	?_Write_Cmd_Data+1
   144  099D  3052               	movlw	82
   145  099E  217A  120A  158A   	fcall	_Write_Cmd_Data
   146                           ;NBCTFT.C: 131: Write_Cmd_Data(0x53,y1);
   147  09A1  084C               	movf	?_LCD_SetPos+6,w
   148  09A2  00CE               	movwf	?_Write_Cmd_Data
   149  09A3  084D               	movf	?_LCD_SetPos+7,w
   150  09A4  00CF               	movwf	?_Write_Cmd_Data+1
   151  09A5  3053               	movlw	83
   152  09A6  217A  120A  158A   	fcall	_Write_Cmd_Data
   153                           ;NBCTFT.C: 132: Write_Cmd_Data(0x20,x0);
   154  09A9  0846               	movf	?_LCD_SetPos,w
   155  09AA  00CE               	movwf	?_Write_Cmd_Data
   156  09AB  0847               	movf	?_LCD_SetPos+1,w
   157  09AC  00CF               	movwf	?_Write_Cmd_Data+1
   158  09AD  3020               	movlw	32
   159  09AE  217A  120A  158A   	fcall	_Write_Cmd_Data
   160                           ;NBCTFT.C: 133: Write_Cmd_Data(0x21,y0);
   161  09B1  084A               	movf	?_LCD_SetPos+4,w
   162  09B2  00CE               	movwf	?_Write_Cmd_Data
   163  09B3  084B               	movf	?_LCD_SetPos+5,w
   164  09B4  00CF               	movwf	?_Write_Cmd_Data+1
   165  09B5  3021               	movlw	33
   166  09B6  217A  120A  158A   	fcall	_Write_Cmd_Data
   167                           ;NBCTFT.C: 134: Write_Cmd (0x00,0x22);
   168  09B9  3022               	movlw	34
   169  09BA  00D3               	movwf	?_Write_Cmd
   170  09BB  3000               	movlw	0
   171  09BC  296B               	ljmp	_Write_Cmd
   172  09BD                     _delayms
   173                           ;	_i assigned to ?a_delayms+0
   174  0000                     _delayms$i	set	?a_delayms
   175                           ;	_j assigned to ?a_delayms+2
   176  0000                     _delayms$j	set	?a_delayms+2
   177                           ;NBCTFT.C: 27: void delayms(unsigned int count)
   178  09BD  0183               	clrf	3	;select bank 0
   179  09BE  01A6               	clrf	?a_delayms
   180  09BF  01A7               	clrf	?a_delayms+1
   181  09C0  29D3               	goto	l5
   182  09C1                     l2
   183                           ;NBCTFT.C: 31: {
   184  09C1  01A8               	clrf	?a_delayms+2
   185  09C2  01A9               	clrf	?a_delayms+3
   186  09C3                     l6
   187  09C3  0AA8               	incf	?a_delayms+2
   188  09C4  1903               	btfsc	3,2
   189  09C5  0AA9               	incf	?a_delayms+3
   190  09C6  0829               	movf	?a_delayms+3,w
   191  09C7  3A80               	xorlw	128
   192  09C8  00FA               	movwf	btemp
   193  09C9  3080               	movlw	128
   194  09CA  027A               	subwf	btemp,w
   195  09CB  30FF               	movlw	255
   196                           ;set	bank bits for (((?a_delayms+2)))
   197  09CC  1903               	btfsc	3,2
   198  09CD  0228               	subwf	?a_delayms+2,w
   199  09CE  1C03               	btfss	3,0
   200  09CF  29C3               	goto	l6
   201  09D0  0AA6               	incf	?a_delayms
   202  09D1  1903               	btfsc	3,2
   203  09D2  0AA7               	incf	?a_delayms+1
   204  09D3                     l5
   205  09D3  0825               	movf	?_delayms+1,w
   206  09D4  0227               	subwf	?a_delayms+1,w
   207  09D5  1D03               	btfss	3,2
   208  09D6  29D9               	goto	u25
   209  09D7  0824               	movf	?_delayms,w
   210  09D8  0226               	subwf	?a_delayms,w
   211  09D9                     u25
   212  09D9  1803               	btfsc	3,0
   213  09DA  0008               	return
   214  09DB  29C1               	goto	l2
   215  09DC                     _TFT_Initial
   216                           ;NBCTFT.C: 261: void TFT_Initial(void)
   217  09DC  0183               	clrf	3	;select bank 0
   218  09DD  1488               	bsf	8,1
   219                           ;NBCTFT.C: 265: delayms(1);
   220  09DE  01A4               	clrf	?_delayms
   221  09DF  0AA4               	incf	?_delayms
   222  09E0  01A5               	clrf	?_delayms+1
   223  09E1  21BD               	fcall	_delayms
   224                           ;NBCTFT.C: 266: RD1 = 0;
   225  09E2  1088               	bcf	8,1
   226                           ;NBCTFT.C: 267: delayms(10);
   227  09E3  300A               	movlw	10
   228  09E4  00A4               	movwf	?_delayms
   229  09E5  01A5               	clrf	?_delayms+1
   230  09E6  21BD               	fcall	_delayms
   231                           ;NBCTFT.C: 268: RD1 = 1;
   232  09E7  1488               	bsf	8,1
   233                           ;NBCTFT.C: 269: delayms(50);
   234  09E8  3032               	movlw	50
   235  09E9  00A4               	movwf	?_delayms
   236  09EA  01A5               	clrf	?_delayms+1
   237  09EB  21BD               	fcall	_delayms
   238                           ;NBCTFT.C: 271: if(Device_code==0x9320)
   239  09EC  0821               	movf	_Device_code+1,w
   240  09ED  3A93               	xorlw	147
   241  09EE  3020               	movlw	32
   242  09EF  1903               	btfsc	3,2
   243  09F0  0620               	xorwf	_Device_code,w
   244  09F1  1D03               	btfss	3,2
   245  09F2  2B45               	goto	l60
   246                           ;NBCTFT.C: 272: {
   247  09F3  01CE               	clrf	?_Write_Cmd_Data
   248  09F4  0ACE               	incf	?_Write_Cmd_Data
   249  09F5  01CF               	clrf	?_Write_Cmd_Data+1
   250  09F6  3000               	movlw	0
   251  09F7  217A  120A  158A   	fcall	_Write_Cmd_Data
   252                           ;NBCTFT.C: 276: Write_Cmd_Data(0x01,0x0100);
   253  09FA  01CE               	clrf	?_Write_Cmd_Data
   254  09FB  3001               	movlw	1
   255  09FC  00CF               	movwf	?_Write_Cmd_Data+1
   256  09FD  217A  120A  158A   	fcall	_Write_Cmd_Data
   257                           ;NBCTFT.C: 277: Write_Cmd_Data(0x02,0x0700);
   258  0A00  01CE               	clrf	?_Write_Cmd_Data
   259  0A01  3007               	movlw	7
   260  0A02  00CF               	movwf	?_Write_Cmd_Data+1
   261  0A03  3002               	movlw	2
   262  0A04  217A  120A  158A   	fcall	_Write_Cmd_Data
   263                           ;NBCTFT.C: 278: Write_Cmd_Data(0x03,0x1030);
   264  0A07  3030               	movlw	48
   265  0A08  00CE               	movwf	?_Write_Cmd_Data
   266  0A09  3010               	movlw	16
   267  0A0A  00CF               	movwf	?_Write_Cmd_Data+1
   268  0A0B  3003               	movlw	3
   269  0A0C  217A  120A  158A   	fcall	_Write_Cmd_Data
   270                           ;NBCTFT.C: 279: Write_Cmd_Data(0x04,0x0000);
   271  0A0F  01CE               	clrf	?_Write_Cmd_Data
   272  0A10  01CF               	clrf	?_Write_Cmd_Data+1
   273  0A11  3004               	movlw	4
   274  0A12  217A  120A  158A   	fcall	_Write_Cmd_Data
   275                           ;NBCTFT.C: 280: Write_Cmd_Data(0x08,0x0202);
   276  0A15  3002               	movlw	2
   277  0A16  00CE               	movwf	?_Write_Cmd_Data
   278  0A17  00CF               	movwf	?_Write_Cmd_Data+1
   279  0A18  3008               	movlw	8
   280  0A19  217A  120A  158A   	fcall	_Write_Cmd_Data
   281                           ;NBCTFT.C: 281: Write_Cmd_Data(0x09,0x0000);
   282  0A1C  01CE               	clrf	?_Write_Cmd_Data
   283  0A1D  01CF               	clrf	?_Write_Cmd_Data+1
   284  0A1E  3009               	movlw	9
   285  0A1F  217A  120A  158A   	fcall	_Write_Cmd_Data
   286                           ;NBCTFT.C: 282: Write_Cmd_Data(0x0A,0x0000);
   287  0A22  01CE               	clrf	?_Write_Cmd_Data
   288  0A23  01CF               	clrf	?_Write_Cmd_Data+1
   289  0A24  300A               	movlw	10
   290  0A25  217A  120A  158A   	fcall	_Write_Cmd_Data
   291                           ;NBCTFT.C: 283: Write_Cmd_Data(0x0C,0x0000);
   292  0A28  01CE               	clrf	?_Write_Cmd_Data
   293  0A29  01CF               	clrf	?_Write_Cmd_Data+1
   294  0A2A  300C               	movlw	12
   295  0A2B  217A  120A  158A   	fcall	_Write_Cmd_Data
   296                           ;NBCTFT.C: 284: Write_Cmd_Data(0x0D,0x0000);
   297  0A2E  01CE               	clrf	?_Write_Cmd_Data
   298  0A2F  01CF               	clrf	?_Write_Cmd_Data+1
   299  0A30  300D               	movlw	13
   300  0A31  217A  120A  158A   	fcall	_Write_Cmd_Data
   301                           ;NBCTFT.C: 285: Write_Cmd_Data(0x0F,0x0000);
   302  0A34  01CE               	clrf	?_Write_Cmd_Data
   303  0A35  01CF               	clrf	?_Write_Cmd_Data+1
   304  0A36  300F               	movlw	15
   305  0A37  217A  120A  158A   	fcall	_Write_Cmd_Data
   306                           ;NBCTFT.C: 286: delayms(30);
   307  0A3A  301E               	movlw	30
   308  0A3B  00A4               	movwf	?_delayms
   309  0A3C  01A5               	clrf	?_delayms+1
   310  0A3D  21BD               	fcall	_delayms
   311                           ;NBCTFT.C: 288: Write_Cmd_Data(0x10, 0x16b0);
   312  0A3E  30B0               	movlw	176
   313  0A3F  00CE               	movwf	?_Write_Cmd_Data
   314  0A40  3016               	movlw	22
   315  0A41  00CF               	movwf	?_Write_Cmd_Data+1
   316  0A42  3010               	movlw	16
   317  0A43  217A  120A  158A   	fcall	_Write_Cmd_Data
   318                           ;NBCTFT.C: 289: delayms(30);
   319  0A46  301E               	movlw	30
   320  0A47  00A4               	movwf	?_delayms
   321  0A48  01A5               	clrf	?_delayms+1
   322  0A49  21BD               	fcall	_delayms
   323                           ;NBCTFT.C: 290: Write_Cmd_Data(0x11, 0x0007);
   324  0A4A  3007               	movlw	7
   325  0A4B  00CE               	movwf	?_Write_Cmd_Data
   326  0A4C  01CF               	clrf	?_Write_Cmd_Data+1
   327  0A4D  3011               	movlw	17
   328  0A4E  217A  120A  158A   	fcall	_Write_Cmd_Data
   329                           ;NBCTFT.C: 291: Write_Cmd_Data(0x12, 0x013a);
   330  0A51  303A               	movlw	58
   331  0A52  00CE               	movwf	?_Write_Cmd_Data
   332  0A53  3001               	movlw	1
   333  0A54  00CF               	movwf	?_Write_Cmd_Data+1
   334  0A55  3012               	movlw	18
   335  0A56  217A  120A  158A   	fcall	_Write_Cmd_Data
   336                           ;NBCTFT.C: 292: Write_Cmd_Data(0x13, 0x1a00);
   337  0A59  01CE               	clrf	?_Write_Cmd_Data
   338  0A5A  301A               	movlw	26
   339  0A5B  00CF               	movwf	?_Write_Cmd_Data+1
   340  0A5C  3013               	movlw	19
   341  0A5D  217A  120A  158A   	fcall	_Write_Cmd_Data
   342                           ;NBCTFT.C: 293: delayms(30);
   343  0A60  301E               	movlw	30
   344  0A61  00A4               	movwf	?_delayms
   345  0A62  01A5               	clrf	?_delayms+1
   346  0A63  21BD               	fcall	_delayms
   347                           ;NBCTFT.C: 294: Write_Cmd_Data(0x29, 0x000c);
   348  0A64  300C               	movlw	12
   349  0A65  00CE               	movwf	?_Write_Cmd_Data
   350  0A66  01CF               	clrf	?_Write_Cmd_Data+1
   351  0A67  3029               	movlw	41
   352  0A68  217A  120A  158A   	fcall	_Write_Cmd_Data
   353                           ;NBCTFT.C: 295: delayms(30);
   354  0A6B  301E               	movlw	30
   355  0A6C  00A4               	movwf	?_delayms
   356  0A6D  01A5               	clrf	?_delayms+1
   357  0A6E  21BD               	fcall	_delayms
   358                           ;NBCTFT.C: 298: Write_Cmd_Data(0x0030, 0x0000);
   359  0A6F  01CE               	clrf	?_Write_Cmd_Data
   360  0A70  01CF               	clrf	?_Write_Cmd_Data+1
   361  0A71  3030               	movlw	48
   362  0A72  217A  120A  158A   	fcall	_Write_Cmd_Data
   363                           ;NBCTFT.C: 299: Write_Cmd_Data(0x0031, 0x0505);
   364  0A75  3005               	movlw	5
   365  0A76  00CE               	movwf	?_Write_Cmd_Data
   366  0A77  00CF               	movwf	?_Write_Cmd_Data+1
   367  0A78  3031               	movlw	49
   368  0A79  217A  120A  158A   	fcall	_Write_Cmd_Data
   369                           ;NBCTFT.C: 300: Write_Cmd_Data(0x0032, 0x0304);
   370  0A7C  3004               	movlw	4
   371  0A7D  00CE               	movwf	?_Write_Cmd_Data
   372  0A7E  3003               	movlw	3
   373  0A7F  00CF               	movwf	?_Write_Cmd_Data+1
   374  0A80  3032               	movlw	50
   375  0A81  217A  120A  158A   	fcall	_Write_Cmd_Data
   376                           ;NBCTFT.C: 301: Write_Cmd_Data(0x0035, 0x0006);
   377  0A84  3006               	movlw	6
   378  0A85  00CE               	movwf	?_Write_Cmd_Data
   379  0A86  01CF               	clrf	?_Write_Cmd_Data+1
   380  0A87  3035               	movlw	53
   381  0A88  217A  120A  158A   	fcall	_Write_Cmd_Data
   382                           ;NBCTFT.C: 302: Write_Cmd_Data(0x0036, 0x0707);
   383  0A8B  3007               	movlw	7
   384  0A8C  00CE               	movwf	?_Write_Cmd_Data
   385  0A8D  00CF               	movwf	?_Write_Cmd_Data+1
   386  0A8E  3036               	movlw	54
   387  0A8F  217A  120A  158A   	fcall	_Write_Cmd_Data
   388                           ;NBCTFT.C: 303: Write_Cmd_Data(0x0037, 0x0105);
   389  0A92  3005               	movlw	5
   390  0A93  00CE               	movwf	?_Write_Cmd_Data
   391  0A94  3001               	movlw	1
   392  0A95  00CF               	movwf	?_Write_Cmd_Data+1
   393  0A96  3037               	movlw	55
   394  0A97  217A  120A  158A   	fcall	_Write_Cmd_Data
   395                           ;NBCTFT.C: 304: Write_Cmd_Data(0x0038, 0x0002);
   396  0A9A  3002               	movlw	2
   397  0A9B  00CE               	movwf	?_Write_Cmd_Data
   398  0A9C  01CF               	clrf	?_Write_Cmd_Data+1
   399  0A9D  3038               	movlw	56
   400  0A9E  217A  120A  158A   	fcall	_Write_Cmd_Data
   401                           ;NBCTFT.C: 305: Write_Cmd_Data(0x0039, 0x0707);
   402  0AA1  3007               	movlw	7
   403  0AA2  00CE               	movwf	?_Write_Cmd_Data
   404  0AA3  00CF               	movwf	?_Write_Cmd_Data+1
   405  0AA4  3039               	movlw	57
   406  0AA5  217A  120A  158A   	fcall	_Write_Cmd_Data
   407                           ;NBCTFT.C: 306: Write_Cmd_Data(0x003C, 0x0704);
   408  0AA8  3004               	movlw	4
   409  0AA9  00CE               	movwf	?_Write_Cmd_Data
   410  0AAA  3007               	movlw	7
   411  0AAB  00CF               	movwf	?_Write_Cmd_Data+1
   412  0AAC  303C               	movlw	60
   413  0AAD  217A  120A  158A   	fcall	_Write_Cmd_Data
   414                           ;NBCTFT.C: 307: Write_Cmd_Data(0x003D, 0x0807);
   415  0AB0  3007               	movlw	7
   416  0AB1  00CE               	movwf	?_Write_Cmd_Data
   417  0AB2  3008               	movlw	8
   418  0AB3  00CF               	movwf	?_Write_Cmd_Data+1
   419  0AB4  303D               	movlw	61
   420  0AB5  217A  120A  158A   	fcall	_Write_Cmd_Data
   421                           ;NBCTFT.C: 310: Write_Cmd_Data(0x0050, 0x0000);
   422  0AB8  01CE               	clrf	?_Write_Cmd_Data
   423  0AB9  01CF               	clrf	?_Write_Cmd_Data+1
   424  0ABA  3050               	movlw	80
   425  0ABB  217A  120A  158A   	fcall	_Write_Cmd_Data
   426                           ;NBCTFT.C: 311: Write_Cmd_Data(0x0051, 0x00EF);
   427  0ABE  30EF               	movlw	239
   428  0ABF  00CE               	movwf	?_Write_Cmd_Data
   429  0AC0  01CF               	clrf	?_Write_Cmd_Data+1
   430  0AC1  3051               	movlw	81
   431  0AC2  217A  120A  158A   	fcall	_Write_Cmd_Data
   432                           ;NBCTFT.C: 312: Write_Cmd_Data(0x0052, 0x0000);
   433  0AC5  01CE               	clrf	?_Write_Cmd_Data
   434  0AC6  01CF               	clrf	?_Write_Cmd_Data+1
   435  0AC7  3052               	movlw	82
   436  0AC8  217A  120A  158A   	fcall	_Write_Cmd_Data
   437                           ;NBCTFT.C: 313: Write_Cmd_Data(0x0053, 0x013F);
   438  0ACB  303F               	movlw	63
   439  0ACC  00CE               	movwf	?_Write_Cmd_Data
   440  0ACD  3001               	movlw	1
   441  0ACE  00CF               	movwf	?_Write_Cmd_Data+1
   442  0ACF  3053               	movlw	83
   443  0AD0  217A  120A  158A   	fcall	_Write_Cmd_Data
   444                           ;NBCTFT.C: 314: Write_Cmd_Data(0x0060, 0x2700);
   445  0AD3  01CE               	clrf	?_Write_Cmd_Data
   446  0AD4  3027               	movlw	39
   447  0AD5  00CF               	movwf	?_Write_Cmd_Data+1
   448  0AD6  3060               	movlw	96
   449  0AD7  217A  120A  158A   	fcall	_Write_Cmd_Data
   450                           ;NBCTFT.C: 315: Write_Cmd_Data(0x0061, 0x0001);
   451  0ADA  01CE               	clrf	?_Write_Cmd_Data
   452  0ADB  0ACE               	incf	?_Write_Cmd_Data
   453  0ADC  01CF               	clrf	?_Write_Cmd_Data+1
   454  0ADD  3061               	movlw	97
   455  0ADE  217A  120A  158A   	fcall	_Write_Cmd_Data
   456                           ;NBCTFT.C: 316: Write_Cmd_Data(0x006A, 0x0000);
   457  0AE1  01CE               	clrf	?_Write_Cmd_Data
   458  0AE2  01CF               	clrf	?_Write_Cmd_Data+1
   459  0AE3  306A               	movlw	106
   460  0AE4  217A  120A  158A   	fcall	_Write_Cmd_Data
   461                           ;NBCTFT.C: 317: Write_Cmd_Data(0x20, 0x0000);
   462  0AE7  01CE               	clrf	?_Write_Cmd_Data
   463  0AE8  01CF               	clrf	?_Write_Cmd_Data+1
   464  0AE9  3020               	movlw	32
   465  0AEA  217A  120A  158A   	fcall	_Write_Cmd_Data
   466                           ;NBCTFT.C: 318: Write_Cmd_Data(0x21, 0x0000);
   467  0AED  01CE               	clrf	?_Write_Cmd_Data
   468  0AEE  01CF               	clrf	?_Write_Cmd_Data+1
   469  0AEF  3021               	movlw	33
   470  0AF0  217A  120A  158A   	fcall	_Write_Cmd_Data
   471                           ;NBCTFT.C: 321: Write_Cmd_Data(0x0080, 0x0000);
   472  0AF3  01CE               	clrf	?_Write_Cmd_Data
   473  0AF4  01CF               	clrf	?_Write_Cmd_Data+1
   474  0AF5  3080               	movlw	-128
   475  0AF6  217A  120A  158A   	fcall	_Write_Cmd_Data
   476                           ;NBCTFT.C: 322: Write_Cmd_Data(0x0081, 0x0000);
   477  0AF9  01CE               	clrf	?_Write_Cmd_Data
   478  0AFA  01CF               	clrf	?_Write_Cmd_Data+1
   479  0AFB  3081               	movlw	-127
   480  0AFC  217A  120A  158A   	fcall	_Write_Cmd_Data
   481                           ;NBCTFT.C: 323: Write_Cmd_Data(0x0082, 0x0000);
   482  0AFF  01CE               	clrf	?_Write_Cmd_Data
   483  0B00  01CF               	clrf	?_Write_Cmd_Data+1
   484  0B01  3082               	movlw	-126
   485  0B02  217A  120A  158A   	fcall	_Write_Cmd_Data
   486                           ;NBCTFT.C: 324: Write_Cmd_Data(0x0083, 0x0000);
   487  0B05  01CE               	clrf	?_Write_Cmd_Data
   488  0B06  01CF               	clrf	?_Write_Cmd_Data+1
   489  0B07  3083               	movlw	-125
   490  0B08  217A  120A  158A   	fcall	_Write_Cmd_Data
   491                           ;NBCTFT.C: 325: Write_Cmd_Data(0x0084, 0x0000);
   492  0B0B  01CE               	clrf	?_Write_Cmd_Data
   493  0B0C  01CF               	clrf	?_Write_Cmd_Data+1
   494  0B0D  3084               	movlw	-124
   495  0B0E  217A  120A  158A   	fcall	_Write_Cmd_Data
   496                           ;NBCTFT.C: 326: Write_Cmd_Data(0x0085, 0x0000);
   497  0B11  01CE               	clrf	?_Write_Cmd_Data
   498  0B12  01CF               	clrf	?_Write_Cmd_Data+1
   499  0B13  3085               	movlw	-123
   500  0B14  217A  120A  158A   	fcall	_Write_Cmd_Data
   501                           ;NBCTFT.C: 329: Write_Cmd_Data(0x90,0x0010);
   502  0B17  3010               	movlw	16
   503  0B18  00CE               	movwf	?_Write_Cmd_Data
   504  0B19  01CF               	clrf	?_Write_Cmd_Data+1
   505  0B1A  3090               	movlw	-112
   506  0B1B  217A  120A  158A   	fcall	_Write_Cmd_Data
   507                           ;NBCTFT.C: 330: Write_Cmd_Data(0x92,0x0000);
   508  0B1E  01CE               	clrf	?_Write_Cmd_Data
   509  0B1F  01CF               	clrf	?_Write_Cmd_Data+1
   510  0B20  3092               	movlw	-110
   511  0B21  217A  120A  158A   	fcall	_Write_Cmd_Data
   512                           ;NBCTFT.C: 331: Write_Cmd_Data(0x93,0x0003);
   513  0B24  3003               	movlw	3
   514  0B25  00CE               	movwf	?_Write_Cmd_Data
   515  0B26  01CF               	clrf	?_Write_Cmd_Data+1
   516  0B27  3093               	movlw	-109
   517  0B28  217A  120A  158A   	fcall	_Write_Cmd_Data
   518                           ;NBCTFT.C: 332: Write_Cmd_Data(0x95,0x0110);
   519  0B2B  3010               	movlw	16
   520  0B2C  00CE               	movwf	?_Write_Cmd_Data
   521  0B2D  3001               	movlw	1
   522  0B2E  00CF               	movwf	?_Write_Cmd_Data+1
   523  0B2F  3095               	movlw	-107
   524  0B30  217A  120A  158A   	fcall	_Write_Cmd_Data
   525                           ;NBCTFT.C: 333: Write_Cmd_Data(0x97,0x0000);
   526  0B33  01CE               	clrf	?_Write_Cmd_Data
   527  0B34  01CF               	clrf	?_Write_Cmd_Data+1
   528  0B35  3097               	movlw	-105
   529  0B36  217A  120A  158A   	fcall	_Write_Cmd_Data
   530                           ;NBCTFT.C: 334: Write_Cmd_Data(0x98,0x0000);
   531  0B39  01CE               	clrf	?_Write_Cmd_Data
   532  0B3A  01CF               	clrf	?_Write_Cmd_Data+1
   533  0B3B  3098               	movlw	-104
   534  0B3C  217A  120A  158A   	fcall	_Write_Cmd_Data
   535                           ;NBCTFT.C: 337: Write_Cmd_Data(0x07,0x0173);
   536  0B3F  3073               	movlw	115
   537  0B40  00CE               	movwf	?_Write_Cmd_Data
   538  0B41  3001               	movlw	1
   539  0B42  00CF               	movwf	?_Write_Cmd_Data+1
   540  0B43  3007               	movlw	7
   541  0B44  297A               	ljmp	_Write_Cmd_Data
   542                           ;NBCTFT.C: 339: }
   543  0B45                     l60
   544                           ;NBCTFT.C: 341: else if(Device_code==0x1505 )
   545  0B45  0821               	movf	_Device_code+1,w
   546  0B46  3A15               	xorlw	21
   547  0B47  3005               	movlw	5
   548  0B48  1903               	btfsc	3,2
   549  0B49  0620               	xorwf	_Device_code,w
   550  0B4A  1D03               	btfss	3,2
   551  0B4B  2C9F               	goto	l62
   552                           ;NBCTFT.C: 342: {
   553  0B4C  01CE               	clrf	?_Write_Cmd_Data
   554  0B4D  0ACE               	incf	?_Write_Cmd_Data
   555  0B4E  01CF               	clrf	?_Write_Cmd_Data+1
   556  0B4F  3000               	movlw	0
   557  0B50  217A  120A  158A   	fcall	_Write_Cmd_Data
   558                           ;NBCTFT.C: 346: Write_Cmd_Data(0x01,0x0100);
   559  0B53  01CE               	clrf	?_Write_Cmd_Data
   560  0B54  3001               	movlw	1
   561  0B55  00CF               	movwf	?_Write_Cmd_Data+1
   562  0B56  217A  120A  158A   	fcall	_Write_Cmd_Data
   563                           ;NBCTFT.C: 347: Write_Cmd_Data(0x02,0x0700);
   564  0B59  01CE               	clrf	?_Write_Cmd_Data
   565  0B5A  3007               	movlw	7
   566  0B5B  00CF               	movwf	?_Write_Cmd_Data+1
   567  0B5C  3002               	movlw	2
   568  0B5D  217A  120A  158A   	fcall	_Write_Cmd_Data
   569                           ;NBCTFT.C: 348: Write_Cmd_Data(0x03,0x1030);
   570  0B60  3030               	movlw	48
   571  0B61  00CE               	movwf	?_Write_Cmd_Data
   572  0B62  3010               	movlw	16
   573  0B63  00CF               	movwf	?_Write_Cmd_Data+1
   574  0B64  3003               	movlw	3
   575  0B65  217A  120A  158A   	fcall	_Write_Cmd_Data
   576                           ;NBCTFT.C: 349: Write_Cmd_Data(0x04,0x0000);
   577  0B68  01CE               	clrf	?_Write_Cmd_Data
   578  0B69  01CF               	clrf	?_Write_Cmd_Data+1
   579  0B6A  3004               	movlw	4
   580  0B6B  217A  120A  158A   	fcall	_Write_Cmd_Data
   581                           ;NBCTFT.C: 350: Write_Cmd_Data(0x08,0x0202);
   582  0B6E  3002               	movlw	2
   583  0B6F  00CE               	movwf	?_Write_Cmd_Data
   584  0B70  00CF               	movwf	?_Write_Cmd_Data+1
   585  0B71  3008               	movlw	8
   586  0B72  217A  120A  158A   	fcall	_Write_Cmd_Data
   587                           ;NBCTFT.C: 351: Write_Cmd_Data(0x09,0x0000);
   588  0B75  01CE               	clrf	?_Write_Cmd_Data
   589  0B76  01CF               	clrf	?_Write_Cmd_Data+1
   590  0B77  3009               	movlw	9
   591  0B78  217A  120A  158A   	fcall	_Write_Cmd_Data
   592                           ;NBCTFT.C: 352: Write_Cmd_Data(0x0A,0x0000);
   593  0B7B  01CE               	clrf	?_Write_Cmd_Data
   594  0B7C  01CF               	clrf	?_Write_Cmd_Data+1
   595  0B7D  300A               	movlw	10
   596  0B7E  217A  120A  158A   	fcall	_Write_Cmd_Data
   597                           ;NBCTFT.C: 353: Write_Cmd_Data(0x0C,0x0000);
   598  0B81  01CE               	clrf	?_Write_Cmd_Data
   599  0B82  01CF               	clrf	?_Write_Cmd_Data+1
   600  0B83  300C               	movlw	12
   601  0B84  217A  120A  158A   	fcall	_Write_Cmd_Data
   602                           ;NBCTFT.C: 354: Write_Cmd_Data(0x0D,0x0000);
   603  0B87  01CE               	clrf	?_Write_Cmd_Data
   604  0B88  01CF               	clrf	?_Write_Cmd_Data+1
   605  0B89  300D               	movlw	13
   606  0B8A  217A  120A  158A   	fcall	_Write_Cmd_Data
   607                           ;NBCTFT.C: 355: Write_Cmd_Data(0x0F,0x0000);
   608  0B8D  01CE               	clrf	?_Write_Cmd_Data
   609  0B8E  01CF               	clrf	?_Write_Cmd_Data+1
   610  0B8F  300F               	movlw	15
   611  0B90  217A  120A  158A   	fcall	_Write_Cmd_Data
   612                           ;NBCTFT.C: 356: delayms(30);
   613  0B93  301E               	movlw	30
   614  0B94  00A4               	movwf	?_delayms
   615  0B95  01A5               	clrf	?_delayms+1
   616  0B96  21BD               	fcall	_delayms
   617                           ;NBCTFT.C: 358: Write_Cmd_Data(0x10, 0x16b0);
   618  0B97  30B0               	movlw	176
   619  0B98  00CE               	movwf	?_Write_Cmd_Data
   620  0B99  3016               	movlw	22
   621  0B9A  00CF               	movwf	?_Write_Cmd_Data+1
   622  0B9B  3010               	movlw	16
   623  0B9C  217A  120A  158A   	fcall	_Write_Cmd_Data
   624                           ;NBCTFT.C: 359: delayms(30);
   625  0B9F  301E               	movlw	30
   626  0BA0  00A4               	movwf	?_delayms
   627  0BA1  01A5               	clrf	?_delayms+1
   628  0BA2  21BD               	fcall	_delayms
   629                           ;NBCTFT.C: 360: Write_Cmd_Data(0x11, 0x0007);
   630  0BA3  3007               	movlw	7
   631  0BA4  00CE               	movwf	?_Write_Cmd_Data
   632  0BA5  01CF               	clrf	?_Write_Cmd_Data+1
   633  0BA6  3011               	movlw	17
   634  0BA7  217A  120A  158A   	fcall	_Write_Cmd_Data
   635                           ;NBCTFT.C: 361: Write_Cmd_Data(0x12, 0x013a);
   636  0BAA  303A               	movlw	58
   637  0BAB  00CE               	movwf	?_Write_Cmd_Data
   638  0BAC  3001               	movlw	1
   639  0BAD  00CF               	movwf	?_Write_Cmd_Data+1
   640  0BAE  3012               	movlw	18
   641  0BAF  217A  120A  158A   	fcall	_Write_Cmd_Data
   642                           ;NBCTFT.C: 362: Write_Cmd_Data(0x13, 0x1a00);
   643  0BB2  01CE               	clrf	?_Write_Cmd_Data
   644  0BB3  301A               	movlw	26
   645  0BB4  00CF               	movwf	?_Write_Cmd_Data+1
   646  0BB5  3013               	movlw	19
   647  0BB6  217A  120A  158A   	fcall	_Write_Cmd_Data
   648                           ;NBCTFT.C: 363: delayms(30);
   649  0BB9  301E               	movlw	30
   650  0BBA  00A4               	movwf	?_delayms
   651  0BBB  01A5               	clrf	?_delayms+1
   652  0BBC  21BD               	fcall	_delayms
   653                           ;NBCTFT.C: 364: Write_Cmd_Data(0x29, 0x000c);
   654  0BBD  300C               	movlw	12
   655  0BBE  00CE               	movwf	?_Write_Cmd_Data
   656  0BBF  01CF               	clrf	?_Write_Cmd_Data+1
   657  0BC0  3029               	movlw	41
   658  0BC1  217A  120A  158A   	fcall	_Write_Cmd_Data
   659                           ;NBCTFT.C: 365: delayms(30);
   660  0BC4  301E               	movlw	30
   661  0BC5  00A4               	movwf	?_delayms
   662  0BC6  01A5               	clrf	?_delayms+1
   663  0BC7  21BD               	fcall	_delayms
   664                           ;NBCTFT.C: 368: Write_Cmd_Data(0x0030, 0x0000);
   665  0BC8  01CE               	clrf	?_Write_Cmd_Data
   666  0BC9  01CF               	clrf	?_Write_Cmd_Data+1
   667  0BCA  3030               	movlw	48
   668  0BCB  217A  120A  158A   	fcall	_Write_Cmd_Data
   669                           ;NBCTFT.C: 369: Write_Cmd_Data(0x0031, 0x0505);
   670  0BCE  3005               	movlw	5
   671  0BCF  00CE               	movwf	?_Write_Cmd_Data
   672  0BD0  00CF               	movwf	?_Write_Cmd_Data+1
   673  0BD1  3031               	movlw	49
   674  0BD2  217A  120A  158A   	fcall	_Write_Cmd_Data
   675                           ;NBCTFT.C: 370: Write_Cmd_Data(0x0032, 0x0304);
   676  0BD5  3004               	movlw	4
   677  0BD6  00CE               	movwf	?_Write_Cmd_Data
   678  0BD7  3003               	movlw	3
   679  0BD8  00CF               	movwf	?_Write_Cmd_Data+1
   680  0BD9  3032               	movlw	50
   681  0BDA  217A  120A  158A   	fcall	_Write_Cmd_Data
   682                           ;NBCTFT.C: 371: Write_Cmd_Data(0x0035, 0x0006);
   683  0BDD  3006               	movlw	6
   684  0BDE  00CE               	movwf	?_Write_Cmd_Data
   685  0BDF  01CF               	clrf	?_Write_Cmd_Data+1
   686  0BE0  3035               	movlw	53
   687  0BE1  217A  120A  158A   	fcall	_Write_Cmd_Data
   688                           ;NBCTFT.C: 372: Write_Cmd_Data(0x0036, 0x0707);
   689  0BE4  3007               	movlw	7
   690  0BE5  00CE               	movwf	?_Write_Cmd_Data
   691  0BE6  00CF               	movwf	?_Write_Cmd_Data+1
   692  0BE7  3036               	movlw	54
   693  0BE8  217A  120A  158A   	fcall	_Write_Cmd_Data
   694                           ;NBCTFT.C: 373: Write_Cmd_Data(0x0037, 0x0105);
   695  0BEB  3005               	movlw	5
   696  0BEC  00CE               	movwf	?_Write_Cmd_Data
   697  0BED  3001               	movlw	1
   698  0BEE  00CF               	movwf	?_Write_Cmd_Data+1
   699  0BEF  3037               	movlw	55
   700  0BF0  217A  120A  158A   	fcall	_Write_Cmd_Data
   701                           ;NBCTFT.C: 374: Write_Cmd_Data(0x0038, 0x0002);
   702  0BF3  3002               	movlw	2
   703  0BF4  00CE               	movwf	?_Write_Cmd_Data
   704  0BF5  01CF               	clrf	?_Write_Cmd_Data+1
   705  0BF6  3038               	movlw	56
   706  0BF7  217A  120A  158A   	fcall	_Write_Cmd_Data
   707                           ;NBCTFT.C: 375: Write_Cmd_Data(0x0039, 0x0707);
   708  0BFA  3007               	movlw	7
   709  0BFB  00CE               	movwf	?_Write_Cmd_Data
   710  0BFC  00CF               	movwf	?_Write_Cmd_Data+1
   711  0BFD  3039               	movlw	57
   712  0BFE  217A  120A  158A   	fcall	_Write_Cmd_Data
   713                           ;NBCTFT.C: 376: Write_Cmd_Data(0x003C, 0x0704);
   714  0C01  3004               	movlw	4
   715  0C02  00CE               	movwf	?_Write_Cmd_Data
   716  0C03  3007               	movlw	7
   717  0C04  00CF               	movwf	?_Write_Cmd_Data+1
   718  0C05  303C               	movlw	60
   719  0C06  217A  120A  158A   	fcall	_Write_Cmd_Data
   720                           ;NBCTFT.C: 377: Write_Cmd_Data(0x003D, 0x0807);
   721  0C09  3007               	movlw	7
   722  0C0A  00CE               	movwf	?_Write_Cmd_Data
   723  0C0B  3008               	movlw	8
   724  0C0C  00CF               	movwf	?_Write_Cmd_Data+1
   725  0C0D  303D               	movlw	61
   726  0C0E  217A  120A  158A   	fcall	_Write_Cmd_Data
   727                           ;NBCTFT.C: 380: Write_Cmd_Data(0x0050, 0x0000);
   728  0C11  01CE               	clrf	?_Write_Cmd_Data
   729  0C12  01CF               	clrf	?_Write_Cmd_Data+1
   730  0C13  3050               	movlw	80
   731  0C14  217A  120A  158A   	fcall	_Write_Cmd_Data
   732                           ;NBCTFT.C: 381: Write_Cmd_Data(0x0051, 0x00EF);
   733  0C17  30EF               	movlw	239
   734  0C18  00CE               	movwf	?_Write_Cmd_Data
   735  0C19  01CF               	clrf	?_Write_Cmd_Data+1
   736  0C1A  3051               	movlw	81
   737  0C1B  217A  120A  158A   	fcall	_Write_Cmd_Data
   738                           ;NBCTFT.C: 382: Write_Cmd_Data(0x0052, 0x0000);
   739  0C1E  01CE               	clrf	?_Write_Cmd_Data
   740  0C1F  01CF               	clrf	?_Write_Cmd_Data+1
   741  0C20  3052               	movlw	82
   742  0C21  217A  120A  158A   	fcall	_Write_Cmd_Data
   743                           ;NBCTFT.C: 383: Write_Cmd_Data(0x0053, 0x013F);
   744  0C24  303F               	movlw	63
   745  0C25  00CE               	movwf	?_Write_Cmd_Data
   746  0C26  3001               	movlw	1
   747  0C27  00CF               	movwf	?_Write_Cmd_Data+1
   748  0C28  3053               	movlw	83
   749  0C29  217A  120A  158A   	fcall	_Write_Cmd_Data
   750                           ;NBCTFT.C: 384: Write_Cmd_Data(0x0060, 0x2700);
   751  0C2C  01CE               	clrf	?_Write_Cmd_Data
   752  0C2D  3027               	movlw	39
   753  0C2E  00CF               	movwf	?_Write_Cmd_Data+1
   754  0C2F  3060               	movlw	96
   755  0C30  217A  120A  158A   	fcall	_Write_Cmd_Data
   756                           ;NBCTFT.C: 385: Write_Cmd_Data(0x0061, 0x0001);
   757  0C33  01CE               	clrf	?_Write_Cmd_Data
   758  0C34  0ACE               	incf	?_Write_Cmd_Data
   759  0C35  01CF               	clrf	?_Write_Cmd_Data+1
   760  0C36  3061               	movlw	97
   761  0C37  217A  120A  158A   	fcall	_Write_Cmd_Data
   762                           ;NBCTFT.C: 386: Write_Cmd_Data(0x006A, 0x2700);
   763  0C3A  01CE               	clrf	?_Write_Cmd_Data
   764  0C3B  3027               	movlw	39
   765  0C3C  00CF               	movwf	?_Write_Cmd_Data+1
   766  0C3D  306A               	movlw	106
   767  0C3E  217A  120A  158A   	fcall	_Write_Cmd_Data
   768                           ;NBCTFT.C: 387: Write_Cmd_Data(0x20, 0x0000);
   769  0C41  01CE               	clrf	?_Write_Cmd_Data
   770  0C42  01CF               	clrf	?_Write_Cmd_Data+1
   771  0C43  3020               	movlw	32
   772  0C44  217A  120A  158A   	fcall	_Write_Cmd_Data
   773                           ;NBCTFT.C: 388: Write_Cmd_Data(0x21, 0x0000);
   774  0C47  01CE               	clrf	?_Write_Cmd_Data
   775  0C48  01CF               	clrf	?_Write_Cmd_Data+1
   776  0C49  3021               	movlw	33
   777  0C4A  217A  120A  158A   	fcall	_Write_Cmd_Data
   778                           ;NBCTFT.C: 391: Write_Cmd_Data(0x0080, 0x0000);
   779  0C4D  01CE               	clrf	?_Write_Cmd_Data
   780  0C4E  01CF               	clrf	?_Write_Cmd_Data+1
   781  0C4F  3080               	movlw	-128
   782  0C50  217A  120A  158A   	fcall	_Write_Cmd_Data
   783                           ;NBCTFT.C: 392: Write_Cmd_Data(0x0081, 0x0000);
   784  0C53  01CE               	clrf	?_Write_Cmd_Data
   785  0C54  01CF               	clrf	?_Write_Cmd_Data+1
   786  0C55  3081               	movlw	-127
   787  0C56  217A  120A  158A   	fcall	_Write_Cmd_Data
   788                           ;NBCTFT.C: 393: Write_Cmd_Data(0x0082, 0x0000);
   789  0C59  01CE               	clrf	?_Write_Cmd_Data
   790  0C5A  01CF               	clrf	?_Write_Cmd_Data+1
   791  0C5B  3082               	movlw	-126
   792  0C5C  217A  120A  158A   	fcall	_Write_Cmd_Data
   793                           ;NBCTFT.C: 394: Write_Cmd_Data(0x0083, 0x0000);
   794  0C5F  01CE               	clrf	?_Write_Cmd_Data
   795  0C60  01CF               	clrf	?_Write_Cmd_Data+1
   796  0C61  3083               	movlw	-125
   797  0C62  217A  120A  158A   	fcall	_Write_Cmd_Data
   798                           ;NBCTFT.C: 395: Write_Cmd_Data(0x0084, 0x0000);
   799  0C65  01CE               	clrf	?_Write_Cmd_Data
   800  0C66  01CF               	clrf	?_Write_Cmd_Data+1
   801  0C67  3084               	movlw	-124
   802  0C68  217A  120A  158A   	fcall	_Write_Cmd_Data
   803                           ;NBCTFT.C: 396: Write_Cmd_Data(0x0085, 0x0000);
   804  0C6B  01CE               	clrf	?_Write_Cmd_Data
   805  0C6C  01CF               	clrf	?_Write_Cmd_Data+1
   806  0C6D  3085               	movlw	-123
   807  0C6E  217A  120A  158A   	fcall	_Write_Cmd_Data
   808                           ;NBCTFT.C: 399: Write_Cmd_Data(0x90,0x0010);
   809  0C71  3010               	movlw	16
   810  0C72  00CE               	movwf	?_Write_Cmd_Data
   811  0C73  01CF               	clrf	?_Write_Cmd_Data+1
   812  0C74  3090               	movlw	-112
   813  0C75  217A  120A  158A   	fcall	_Write_Cmd_Data
   814                           ;NBCTFT.C: 400: Write_Cmd_Data(0x92,0x0000);
   815  0C78  01CE               	clrf	?_Write_Cmd_Data
   816  0C79  01CF               	clrf	?_Write_Cmd_Data+1
   817  0C7A  3092               	movlw	-110
   818  0C7B  217A  120A  158A   	fcall	_Write_Cmd_Data
   819                           ;NBCTFT.C: 401: Write_Cmd_Data(0x93,0x0003);
   820  0C7E  3003               	movlw	3
   821  0C7F  00CE               	movwf	?_Write_Cmd_Data
   822  0C80  01CF               	clrf	?_Write_Cmd_Data+1
   823  0C81  3093               	movlw	-109
   824  0C82  217A  120A  158A   	fcall	_Write_Cmd_Data
   825                           ;NBCTFT.C: 402: Write_Cmd_Data(0x95,0x0110);
   826  0C85  3010               	movlw	16
   827  0C86  00CE               	movwf	?_Write_Cmd_Data
   828  0C87  3001               	movlw	1
   829  0C88  00CF               	movwf	?_Write_Cmd_Data+1
   830  0C89  3095               	movlw	-107
   831  0C8A  217A  120A  158A   	fcall	_Write_Cmd_Data
   832                           ;NBCTFT.C: 403: Write_Cmd_Data(0x97,0x0000);
   833  0C8D  01CE               	clrf	?_Write_Cmd_Data
   834  0C8E  01CF               	clrf	?_Write_Cmd_Data+1
   835  0C8F  3097               	movlw	-105
   836  0C90  217A  120A  158A   	fcall	_Write_Cmd_Data
   837                           ;NBCTFT.C: 404: Write_Cmd_Data(0x98,0x0000);
   838  0C93  01CE               	clrf	?_Write_Cmd_Data
   839  0C94  01CF               	clrf	?_Write_Cmd_Data+1
   840  0C95  3098               	movlw	-104
   841  0C96  217A  120A  158A   	fcall	_Write_Cmd_Data
   842                           ;NBCTFT.C: 407: Write_Cmd_Data(0x07,0x0173);
   843  0C99  3073               	movlw	115
   844  0C9A  00CE               	movwf	?_Write_Cmd_Data
   845  0C9B  3001               	movlw	1
   846  0C9C  00CF               	movwf	?_Write_Cmd_Data+1
   847  0C9D  3007               	movlw	7
   848  0C9E  297A               	ljmp	_Write_Cmd_Data
   849                           ;NBCTFT.C: 409: }
   850  0C9F                     l62
   851                           ;NBCTFT.C: 411: else if(Device_code==0x9328)
   852  0C9F  0821               	movf	_Device_code+1,w
   853  0CA0  3A93               	xorlw	147
   854  0CA1  3028               	movlw	40
   855  0CA2  1903               	btfsc	3,2
   856  0CA3  0620               	xorwf	_Device_code,w
   857  0CA4  1D03               	btfss	3,2
   858  0CA5  0008               	return
   859                           ;NBCTFT.C: 412: {
   860  0CA6  01CE               	clrf	?_Write_Cmd_Data
   861  0CA7  3001               	movlw	1
   862  0CA8  00CF               	movwf	?_Write_Cmd_Data+1
   863  0CA9  217A  120A  158A   	fcall	_Write_Cmd_Data
   864                           ;NBCTFT.C: 416: Write_Cmd_Data(0x0002,0x0700);
   865  0CAC  01CE               	clrf	?_Write_Cmd_Data
   866  0CAD  3007               	movlw	7
   867  0CAE  00CF               	movwf	?_Write_Cmd_Data+1
   868  0CAF  3002               	movlw	2
   869  0CB0  217A  120A  158A   	fcall	_Write_Cmd_Data
   870                           ;NBCTFT.C: 417: Write_Cmd_Data(0x0003,0x1030);
   871  0CB3  3030               	movlw	48
   872  0CB4  00CE               	movwf	?_Write_Cmd_Data
   873  0CB5  3010               	movlw	16
   874  0CB6  00CF               	movwf	?_Write_Cmd_Data+1
   875  0CB7  3003               	movlw	3
   876  0CB8  217A  120A  158A   	fcall	_Write_Cmd_Data
   877                           ;NBCTFT.C: 418: Write_Cmd_Data(0x0004,0x0000);
   878  0CBB  01CE               	clrf	?_Write_Cmd_Data
   879  0CBC  01CF               	clrf	?_Write_Cmd_Data+1
   880  0CBD  3004               	movlw	4
   881  0CBE  217A  120A  158A   	fcall	_Write_Cmd_Data
   882                           ;NBCTFT.C: 419: Write_Cmd_Data(0x00A4,0x0001);
   883  0CC1  01CE               	clrf	?_Write_Cmd_Data
   884  0CC2  0ACE               	incf	?_Write_Cmd_Data
   885  0CC3  01CF               	clrf	?_Write_Cmd_Data+1
   886  0CC4  30A4               	movlw	-92
   887  0CC5  217A  120A  158A   	fcall	_Write_Cmd_Data
   888                           ;NBCTFT.C: 420: Write_Cmd_Data(0x0008,0x0202);
   889  0CC8  3002               	movlw	2
   890  0CC9  00CE               	movwf	?_Write_Cmd_Data
   891  0CCA  00CF               	movwf	?_Write_Cmd_Data+1
   892  0CCB  3008               	movlw	8
   893  0CCC  217A  120A  158A   	fcall	_Write_Cmd_Data
   894                           ;NBCTFT.C: 421: Write_Cmd_Data(0x0009,0x0000);
   895  0CCF  01CE               	clrf	?_Write_Cmd_Data
   896  0CD0  01CF               	clrf	?_Write_Cmd_Data+1
   897  0CD1  3009               	movlw	9
   898  0CD2  217A  120A  158A   	fcall	_Write_Cmd_Data
   899                           ;NBCTFT.C: 422: Write_Cmd_Data(0x000A,0x0000);
   900  0CD5  01CE               	clrf	?_Write_Cmd_Data
   901  0CD6  01CF               	clrf	?_Write_Cmd_Data+1
   902  0CD7  300A               	movlw	10
   903  0CD8  217A  120A  158A   	fcall	_Write_Cmd_Data
   904                           ;NBCTFT.C: 423: Write_Cmd_Data(0x000C,0x0000);
   905  0CDB  01CE               	clrf	?_Write_Cmd_Data
   906  0CDC  01CF               	clrf	?_Write_Cmd_Data+1
   907  0CDD  300C               	movlw	12
   908  0CDE  217A  120A  158A   	fcall	_Write_Cmd_Data
   909                           ;NBCTFT.C: 424: Write_Cmd_Data(0x000D, 0x0000);
   910  0CE1  01CE               	clrf	?_Write_Cmd_Data
   911  0CE2  01CF               	clrf	?_Write_Cmd_Data+1
   912  0CE3  300D               	movlw	13
   913  0CE4  217A  120A  158A   	fcall	_Write_Cmd_Data
   914                           ;NBCTFT.C: 425: Write_Cmd_Data(0x000F, 0x0000);
   915  0CE7  01CE               	clrf	?_Write_Cmd_Data
   916  0CE8  01CF               	clrf	?_Write_Cmd_Data+1
   917  0CE9  300F               	movlw	15
   918  0CEA  217A  120A  158A   	fcall	_Write_Cmd_Data
   919                           ;NBCTFT.C: 430: Write_Cmd_Data(0x0010, 0x0000);
   920  0CED  01CE               	clrf	?_Write_Cmd_Data
   921  0CEE  01CF               	clrf	?_Write_Cmd_Data+1
   922  0CEF  3010               	movlw	16
   923  0CF0  217A  120A  158A   	fcall	_Write_Cmd_Data
   924                           ;NBCTFT.C: 431: Write_Cmd_Data(0x0011, 0x0007);
   925  0CF3  3007               	movlw	7
   926  0CF4  00CE               	movwf	?_Write_Cmd_Data
   927  0CF5  01CF               	clrf	?_Write_Cmd_Data+1
   928  0CF6  3011               	movlw	17
   929  0CF7  217A  120A  158A   	fcall	_Write_Cmd_Data
   930                           ;NBCTFT.C: 432: Write_Cmd_Data(0x0012, 0x0000);
   931  0CFA  01CE               	clrf	?_Write_Cmd_Data
   932  0CFB  01CF               	clrf	?_Write_Cmd_Data+1
   933  0CFC  3012               	movlw	18
   934  0CFD  217A  120A  158A   	fcall	_Write_Cmd_Data
   935                           ;NBCTFT.C: 433: Write_Cmd_Data(0x0013, 0x0000);
   936  0D00  01CE               	clrf	?_Write_Cmd_Data
   937  0D01  01CF               	clrf	?_Write_Cmd_Data+1
   938  0D02  3013               	movlw	19
   939  0D03  217A  120A  158A   	fcall	_Write_Cmd_Data
   940                           ;NBCTFT.C: 434: delayms(30);
   941  0D06  301E               	movlw	30
   942  0D07  00A4               	movwf	?_delayms
   943  0D08  01A5               	clrf	?_delayms+1
   944  0D09  21BD               	fcall	_delayms
   945                           ;NBCTFT.C: 435: Write_Cmd_Data(0x0010, 0x1690);
   946  0D0A  3090               	movlw	144
   947  0D0B  00CE               	movwf	?_Write_Cmd_Data
   948  0D0C  3016               	movlw	22
   949  0D0D  00CF               	movwf	?_Write_Cmd_Data+1
   950  0D0E  3010               	movlw	16
   951  0D0F  217A  120A  158A   	fcall	_Write_Cmd_Data
   952                           ;NBCTFT.C: 436: Write_Cmd_Data(0x0011, 0x0227);
   953  0D12  3027               	movlw	39
   954  0D13  00CE               	movwf	?_Write_Cmd_Data
   955  0D14  3002               	movlw	2
   956  0D15  00CF               	movwf	?_Write_Cmd_Data+1
   957  0D16  3011               	movlw	17
   958  0D17  217A  120A  158A   	fcall	_Write_Cmd_Data
   959                           ;NBCTFT.C: 437: delayms(30);
   960  0D1A  301E               	movlw	30
   961  0D1B  00A4               	movwf	?_delayms
   962  0D1C  01A5               	clrf	?_delayms+1
   963  0D1D  21BD               	fcall	_delayms
   964                           ;NBCTFT.C: 438: Write_Cmd_Data(0x0012, 0x001C);
   965  0D1E  301C               	movlw	28
   966  0D1F  00CE               	movwf	?_Write_Cmd_Data
   967  0D20  01CF               	clrf	?_Write_Cmd_Data+1
   968  0D21  3012               	movlw	18
   969  0D22  217A  120A  158A   	fcall	_Write_Cmd_Data
   970                           ;NBCTFT.C: 439: delayms(30);
   971  0D25  301E               	movlw	30
   972  0D26  00A4               	movwf	?_delayms
   973  0D27  01A5               	clrf	?_delayms+1
   974  0D28  21BD               	fcall	_delayms
   975                           ;NBCTFT.C: 440: Write_Cmd_Data(0x0013, 0x1800);
   976  0D29  01CE               	clrf	?_Write_Cmd_Data
   977  0D2A  3018               	movlw	24
   978  0D2B  00CF               	movwf	?_Write_Cmd_Data+1
   979  0D2C  3013               	movlw	19
   980  0D2D  217A  120A  158A   	fcall	_Write_Cmd_Data
   981                           ;NBCTFT.C: 441: Write_Cmd_Data(0x0029, 0x001C);
   982  0D30  301C               	movlw	28
   983  0D31  00CE               	movwf	?_Write_Cmd_Data
   984  0D32  01CF               	clrf	?_Write_Cmd_Data+1
   985  0D33  3029               	movlw	41
   986  0D34  217A  120A  158A   	fcall	_Write_Cmd_Data
   987                           ;NBCTFT.C: 442: Write_Cmd_Data(0x002B, 0x000D);
   988  0D37  300D               	movlw	13
   989  0D38  00CE               	movwf	?_Write_Cmd_Data
   990  0D39  01CF               	clrf	?_Write_Cmd_Data+1
   991  0D3A  302B               	movlw	43
   992  0D3B  217A  120A  158A   	fcall	_Write_Cmd_Data
   993                           ;NBCTFT.C: 443: delayms(30);
   994  0D3E  301E               	movlw	30
   995  0D3F  00A4               	movwf	?_delayms
   996  0D40  01A5               	clrf	?_delayms+1
   997  0D41  21BD               	fcall	_delayms
   998                           ;NBCTFT.C: 444: Write_Cmd_Data(0x0020, 0x0000);
   999  0D42  01CE               	clrf	?_Write_Cmd_Data
  1000  0D43  01CF               	clrf	?_Write_Cmd_Data+1
  1001  0D44  3020               	movlw	32
  1002  0D45  217A  120A  158A   	fcall	_Write_Cmd_Data
  1003                           ;NBCTFT.C: 445: Write_Cmd_Data(0x0021, 0x0000);
  1004  0D48  01CE               	clrf	?_Write_Cmd_Data
  1005  0D49  01CF               	clrf	?_Write_Cmd_Data+1
  1006  0D4A  3021               	movlw	33
  1007  0D4B  217A  120A  158A   	fcall	_Write_Cmd_Data
  1008                           ;NBCTFT.C: 447: Write_Cmd_Data(0x0030, 0x0007);
  1009  0D4E  3007               	movlw	7
  1010  0D4F  00CE               	movwf	?_Write_Cmd_Data
  1011  0D50  01CF               	clrf	?_Write_Cmd_Data+1
  1012  0D51  3030               	movlw	48
  1013  0D52  217A  120A  158A   	fcall	_Write_Cmd_Data
  1014                           ;NBCTFT.C: 448: Write_Cmd_Data(0x0031, 0x0302);
  1015  0D55  3002               	movlw	2
  1016  0D56  00CE               	movwf	?_Write_Cmd_Data
  1017  0D57  3003               	movlw	3
  1018  0D58  00CF               	movwf	?_Write_Cmd_Data+1
  1019  0D59  3031               	movlw	49
  1020  0D5A  217A  120A  158A   	fcall	_Write_Cmd_Data
  1021                           ;NBCTFT.C: 449: Write_Cmd_Data(0x0032, 0x0105);
  1022  0D5D  3005               	movlw	5
  1023  0D5E  00CE               	movwf	?_Write_Cmd_Data
  1024  0D5F  3001               	movlw	1
  1025  0D60  00CF               	movwf	?_Write_Cmd_Data+1
  1026  0D61  3032               	movlw	50
  1027  0D62  217A  120A  158A   	fcall	_Write_Cmd_Data
  1028                           ;NBCTFT.C: 450: Write_Cmd_Data(0x0035, 0x0206);
  1029  0D65  3006               	movlw	6
  1030  0D66  00CE               	movwf	?_Write_Cmd_Data
  1031  0D67  3002               	movlw	2
  1032  0D68  00CF               	movwf	?_Write_Cmd_Data+1
  1033  0D69  3035               	movlw	53
  1034  0D6A  217A  120A  158A   	fcall	_Write_Cmd_Data
  1035                           ;NBCTFT.C: 451: Write_Cmd_Data(0x0036, 0x0808);
  1036  0D6D  3008               	movlw	8
  1037  0D6E  00CE               	movwf	?_Write_Cmd_Data
  1038  0D6F  00CF               	movwf	?_Write_Cmd_Data+1
  1039  0D70  3036               	movlw	54
  1040  0D71  217A  120A  158A   	fcall	_Write_Cmd_Data
  1041                           ;NBCTFT.C: 452: Write_Cmd_Data(0x0037, 0x0206);
  1042  0D74  3006               	movlw	6
  1043  0D75  00CE               	movwf	?_Write_Cmd_Data
  1044  0D76  3002               	movlw	2
  1045  0D77  00CF               	movwf	?_Write_Cmd_Data+1
  1046  0D78  3037               	movlw	55
  1047  0D79  217A  120A  158A   	fcall	_Write_Cmd_Data
  1048                           ;NBCTFT.C: 453: Write_Cmd_Data(0x0038, 0x0504);
  1049  0D7C  3004               	movlw	4
  1050  0D7D  00CE               	movwf	?_Write_Cmd_Data
  1051  0D7E  3005               	movlw	5
  1052  0D7F  00CF               	movwf	?_Write_Cmd_Data+1
  1053  0D80  3038               	movlw	56
  1054  0D81  217A  120A  158A   	fcall	_Write_Cmd_Data
  1055                           ;NBCTFT.C: 454: Write_Cmd_Data(0x0039, 0x0007);
  1056  0D84  3007               	movlw	7
  1057  0D85  00CE               	movwf	?_Write_Cmd_Data
  1058  0D86  01CF               	clrf	?_Write_Cmd_Data+1
  1059  0D87  3039               	movlw	57
  1060  0D88  217A  120A  158A   	fcall	_Write_Cmd_Data
  1061                           ;NBCTFT.C: 455: Write_Cmd_Data(0x003C, 0x0105);
  1062  0D8B  3005               	movlw	5
  1063  0D8C  00CE               	movwf	?_Write_Cmd_Data
  1064  0D8D  3001               	movlw	1
  1065  0D8E  00CF               	movwf	?_Write_Cmd_Data+1
  1066  0D8F  303C               	movlw	60
  1067  0D90  217A  120A  158A   	fcall	_Write_Cmd_Data
  1068                           ;NBCTFT.C: 456: Write_Cmd_Data(0x003D, 0x0808);
  1069  0D93  3008               	movlw	8
  1070  0D94  00CE               	movwf	?_Write_Cmd_Data
  1071  0D95  00CF               	movwf	?_Write_Cmd_Data+1
  1072  0D96  303D               	movlw	61
  1073  0D97  217A  120A  158A   	fcall	_Write_Cmd_Data
  1074                           ;NBCTFT.C: 458: Write_Cmd_Data(0x0050, 0x0000);
  1075  0D9A  01CE               	clrf	?_Write_Cmd_Data
  1076  0D9B  01CF               	clrf	?_Write_Cmd_Data+1
  1077  0D9C  3050               	movlw	80
  1078  0D9D  217A  120A  158A   	fcall	_Write_Cmd_Data
  1079                           ;NBCTFT.C: 459: Write_Cmd_Data(0x0051, 0x00EF);
  1080  0DA0  30EF               	movlw	239
  1081  0DA1  00CE               	movwf	?_Write_Cmd_Data
  1082  0DA2  01CF               	clrf	?_Write_Cmd_Data+1
  1083  0DA3  3051               	movlw	81
  1084  0DA4  217A  120A  158A   	fcall	_Write_Cmd_Data
  1085                           ;NBCTFT.C: 460: Write_Cmd_Data(0x0052, 0x0000);
  1086  0DA7  01CE               	clrf	?_Write_Cmd_Data
  1087  0DA8  01CF               	clrf	?_Write_Cmd_Data+1
  1088  0DA9  3052               	movlw	82
  1089  0DAA  217A  120A  158A   	fcall	_Write_Cmd_Data
  1090                           ;NBCTFT.C: 461: delayms(30);
  1091  0DAD  301E               	movlw	30
  1092  0DAE  00A4               	movwf	?_delayms
  1093  0DAF  01A5               	clrf	?_delayms+1
  1094  0DB0  21BD               	fcall	_delayms
  1095                           ;NBCTFT.C: 462: Write_Cmd_Data(0x0053, 0x013F);
  1096  0DB1  303F               	movlw	63
  1097  0DB2  00CE               	movwf	?_Write_Cmd_Data
  1098  0DB3  3001               	movlw	1
  1099  0DB4  00CF               	movwf	?_Write_Cmd_Data+1
  1100  0DB5  3053               	movlw	83
  1101  0DB6  217A  120A  158A   	fcall	_Write_Cmd_Data
  1102                           ;NBCTFT.C: 463: delayms(30);
  1103  0DB9  301E               	movlw	30
  1104  0DBA  00A4               	movwf	?_delayms
  1105  0DBB  01A5               	clrf	?_delayms+1
  1106  0DBC  21BD               	fcall	_delayms
  1107                           ;NBCTFT.C: 464: Write_Cmd_Data(0x0060, 0xA700);
  1108  0DBD  01CE               	clrf	?_Write_Cmd_Data
  1109  0DBE  30A7               	movlw	167
  1110  0DBF  00CF               	movwf	?_Write_Cmd_Data+1
  1111  0DC0  3060               	movlw	96
  1112  0DC1  217A  120A  158A   	fcall	_Write_Cmd_Data
  1113                           ;NBCTFT.C: 465: Write_Cmd_Data(0x0061, 0x0001);
  1114  0DC4  01CE               	clrf	?_Write_Cmd_Data
  1115  0DC5  0ACE               	incf	?_Write_Cmd_Data
  1116  0DC6  01CF               	clrf	?_Write_Cmd_Data+1
  1117  0DC7  3061               	movlw	97
  1118  0DC8  217A  120A  158A   	fcall	_Write_Cmd_Data
  1119                           ;NBCTFT.C: 466: Write_Cmd_Data(0x006A, 0x0000);
  1120  0DCB  01CE               	clrf	?_Write_Cmd_Data
  1121  0DCC  01CF               	clrf	?_Write_Cmd_Data+1
  1122  0DCD  306A               	movlw	106
  1123  0DCE  217A  120A  158A   	fcall	_Write_Cmd_Data
  1124                           ;NBCTFT.C: 468: Write_Cmd_Data(0x0080, 0x0000);
  1125  0DD1  01CE               	clrf	?_Write_Cmd_Data
  1126  0DD2  01CF               	clrf	?_Write_Cmd_Data+1
  1127  0DD3  3080               	movlw	-128
  1128  0DD4  217A  120A  158A   	fcall	_Write_Cmd_Data
  1129                           ;NBCTFT.C: 469: Write_Cmd_Data(0x0081, 0x0000);
  1130  0DD7  01CE               	clrf	?_Write_Cmd_Data
  1131  0DD8  01CF               	clrf	?_Write_Cmd_Data+1
  1132  0DD9  3081               	movlw	-127
  1133  0DDA  217A  120A  158A   	fcall	_Write_Cmd_Data
  1134                           ;NBCTFT.C: 470: Write_Cmd_Data(0x0082,0x0000);
  1135  0DDD  01CE               	clrf	?_Write_Cmd_Data
  1136  0DDE  01CF               	clrf	?_Write_Cmd_Data+1
  1137  0DDF  3082               	movlw	-126
  1138  0DE0  217A  120A  158A   	fcall	_Write_Cmd_Data
  1139                           ;NBCTFT.C: 471: Write_Cmd_Data(0x0083,0x0000);
  1140  0DE3  01CE               	clrf	?_Write_Cmd_Data
  1141  0DE4  01CF               	clrf	?_Write_Cmd_Data+1
  1142  0DE5  3083               	movlw	-125
  1143  0DE6  217A  120A  158A   	fcall	_Write_Cmd_Data
  1144                           ;NBCTFT.C: 472: Write_Cmd_Data(0x0084,0x0000);
  1145  0DE9  01CE               	clrf	?_Write_Cmd_Data
  1146  0DEA  01CF               	clrf	?_Write_Cmd_Data+1
  1147  0DEB  3084               	movlw	-124
  1148  0DEC  217A  120A  158A   	fcall	_Write_Cmd_Data
  1149                           ;NBCTFT.C: 473: Write_Cmd_Data(0x0085,0x0000);
  1150  0DEF  01CE               	clrf	?_Write_Cmd_Data
  1151  0DF0  01CF               	clrf	?_Write_Cmd_Data+1
  1152  0DF1  3085               	movlw	-123
  1153  0DF2  217A  120A  158A   	fcall	_Write_Cmd_Data
  1154                           ;NBCTFT.C: 475: Write_Cmd_Data(0x0090, 0x0010);
  1155  0DF5  3010               	movlw	16
  1156  0DF6  00CE               	movwf	?_Write_Cmd_Data
  1157  0DF7  01CF               	clrf	?_Write_Cmd_Data+1
  1158  0DF8  3090               	movlw	-112
  1159  0DF9  217A  120A  158A   	fcall	_Write_Cmd_Data
  1160                           ;NBCTFT.C: 476: Write_Cmd_Data(0x0092, 0x0000);
  1161  0DFC  01CE               	clrf	?_Write_Cmd_Data
  1162  0DFD  01CF               	clrf	?_Write_Cmd_Data+1
  1163  0DFE  3092               	movlw	-110
  1164  0DFF  217A  120A  158A   	fcall	_Write_Cmd_Data
  1165                           ;NBCTFT.C: 477: Write_Cmd_Data(0x0093, 0x0003);
  1166  0E02  3003               	movlw	3
  1167  0E03  00CE               	movwf	?_Write_Cmd_Data
  1168  0E04  01CF               	clrf	?_Write_Cmd_Data+1
  1169  0E05  3093               	movlw	-109
  1170  0E06  217A  120A  158A   	fcall	_Write_Cmd_Data
  1171                           ;NBCTFT.C: 478: Write_Cmd_Data(0x0095, 0x0110);
  1172  0E09  3010               	movlw	16
  1173  0E0A  00CE               	movwf	?_Write_Cmd_Data
  1174  0E0B  3001               	movlw	1
  1175  0E0C  00CF               	movwf	?_Write_Cmd_Data+1
  1176  0E0D  3095               	movlw	-107
  1177  0E0E  217A  120A  158A   	fcall	_Write_Cmd_Data
  1178                           ;NBCTFT.C: 479: Write_Cmd_Data(0x0097, 0x0000);
  1179  0E11  01CE               	clrf	?_Write_Cmd_Data
  1180  0E12  01CF               	clrf	?_Write_Cmd_Data+1
  1181  0E13  3097               	movlw	-105
  1182  0E14  217A  120A  158A   	fcall	_Write_Cmd_Data
  1183                           ;NBCTFT.C: 480: Write_Cmd_Data(0x0098, 0x0000);
  1184  0E17  01CE               	clrf	?_Write_Cmd_Data
  1185  0E18  01CF               	clrf	?_Write_Cmd_Data+1
  1186  0E19  3098               	movlw	-104
  1187  0E1A  217A  120A  158A   	fcall	_Write_Cmd_Data
  1188                           ;NBCTFT.C: 481: Write_Cmd_Data(0x0007, 0x0133);
  1189  0E1D  3033               	movlw	51
  1190  0E1E  00CE               	movwf	?_Write_Cmd_Data
  1191  0E1F  3001               	movlw	1
  1192  0E20  00CF               	movwf	?_Write_Cmd_Data+1
  1193  0E21  3007               	movlw	7
  1194  0E22  297A               	ljmp	_Write_Cmd_Data
  1195  0E23                     _Put16x16
  1196                           ;	_j assigned to ?a_Put16x16+0
  1197  0000                     _Put16x16$j	set	?a_Put16x16
  1198                           ;	_i assigned to ?a_Put16x16+2
  1199  0000                     _Put16x16$i	set	?a_Put16x16+2
  1200                           ;	_k assigned to ?a_Put16x16+4
  1201  0000                     _Put16x16$k	set	?a_Put16x16+4
  1202                           ;	_m assigned to ?a_Put16x16+6
  1203  0000                     _Put16x16$m	set	?a_Put16x16+6
  1204                           ;NBCTFT.C: 189: void Put16x16(unsigned short x,
      +                           unsigned short y, unsigned char g[], unsigned 
      +                          int fColor,unsigned int bColor)
  1205  0E23  0183               	clrf	3	;select bank 0
  1206  0E24  0833               	movf	?_Put16x16,w
  1207  0E25  00C6               	movwf	?_LCD_SetPos
  1208  0E26  0834               	movf	?_Put16x16+1,w
  1209  0E27  00C7               	movwf	?_LCD_SetPos+1
  1210  0E28  300F               	movlw	15
  1211  0E29  0733               	addwf	?_Put16x16,w
  1212  0E2A  00C8               	movwf	?_LCD_SetPos+2
  1213  0E2B  3000               	movlw	0
  1214  0E2C  1803               	btfsc	3,0
  1215  0E2D  3001               	movlw	1
  1216  0E2E  0734               	addwf	?_Put16x16+1,w
  1217  0E2F  00C9               	movwf	?_LCD_SetPos+3
  1218  0E30  0835               	movf	?_Put16x16+2,w
  1219  0E31  00CA               	movwf	?_LCD_SetPos+4
  1220  0E32  0836               	movf	?_Put16x16+3,w
  1221  0E33  00CB               	movwf	?_LCD_SetPos+5
  1222  0E34  300F               	movlw	15
  1223  0E35  0735               	addwf	?_Put16x16+2,w
  1224  0E36  00CC               	movwf	?_LCD_SetPos+6
  1225  0E37  3000               	movlw	0
  1226  0E38  1803               	btfsc	3,0
  1227  0E39  3001               	movlw	1
  1228  0E3A  0736               	addwf	?_Put16x16+3,w
  1229  0E3B  00CD               	movwf	?_LCD_SetPos+7
  1230  0E3C  2188               	fcall	_LCD_SetPos
  1231                           ;NBCTFT.C: 195: for (k=0;k<16;k++)
  1232  0E3D  01C0               	clrf	?a_Put16x16+4
  1233  0E3E  01C1               	clrf	?a_Put16x16+5
  1234  0E3F                     l32
  1235                           ;NBCTFT.C: 196: {
  1236  0E3F  0837               	movf	?_Put16x16+4,w
  1237  0E40  0084               	movwf	4
  1238  0E41  1383               	bcf	3,7
  1239  0E42  0800               	movf	0,w
  1240  0E43  00C4               	movwf	?a_Put16x16+8
  1241  0E44  3022               	movlw	34
  1242  0E45  00FC               	movwf	btemp+2
  1243  0E46  01FD               	clrf	btemp+3
  1244  0E47  0841               	movf	?a_Put16x16+5,w
  1245  0E48  00FB               	movwf	btemp+1
  1246  0E49  0840               	movf	?a_Put16x16+4,w
  1247  0E4A  00FA               	movwf	btemp
  1248  0E4B  120A  158A  20B2   	fcall	lwmul
  1249  0E4E  087F               	movf	btemp+5,w
  1250  0E4F  3E06               	addlw	high _ch16
  1251  0E50  00EF               	movwf	code_ptr+1
  1252  0E51  087E               	movf	btemp+4,w
  1253  0E52  3E42               	addlw	low _ch16
  1254  0E53  1803               	btfsc	3,0
  1255  0E54  0AEF               	incf	code_ptr+1
  1256  0E55  120A  118A  202C   	fcall	string_table
      +       120A  158A         
  1257  0E5A  0644               	xorwf	?a_Put16x16+8,w
  1258  0E5B  1D03               	btfss	3,2
  1259  0E5C  2EC9               	goto	l35
  1260  0E5D  0A37               	incf	?_Put16x16+4,w
  1261  0E5E  0084               	movwf	4
  1262  0E5F  1383               	bcf	3,7
  1263  0E60  0800               	movf	0,w
  1264  0E61  00C5               	movwf	?a_Put16x16+9
  1265  0E62  3022               	movlw	34
  1266  0E63  00FC               	movwf	btemp+2
  1267  0E64  01FD               	clrf	btemp+3
  1268  0E65  0841               	movf	?a_Put16x16+5,w
  1269  0E66  00FB               	movwf	btemp+1
  1270  0E67  0840               	movf	?a_Put16x16+4,w
  1271  0E68  00FA               	movwf	btemp
  1272  0E69  120A  158A  20B2   	fcall	lwmul
  1273  0E6C  3001               	movlw	1
  1274  0E6D  07FE               	addwf	btemp+4
  1275  0E6E  1803               	btfsc	3,0
  1276  0E6F  0AFF               	incf	btemp+5
  1277  0E70  087F               	movf	btemp+5,w
  1278  0E71  3E06               	addlw	high _ch16
  1279  0E72  00EF               	movwf	code_ptr+1
  1280  0E73  087E               	movf	btemp+4,w
  1281  0E74  3E42               	addlw	low _ch16
  1282  0E75  1803               	btfsc	3,0
  1283  0E76  0AEF               	incf	code_ptr+1
  1284  0E77  120A  118A  202C   	fcall	string_table
      +       120A  158A         
  1285  0E7C  0645               	xorwf	?a_Put16x16+9,w
  1286  0E7D  1D03               	btfss	3,2
  1287  0E7E  2EC9               	goto	l35
  1288                           ;NBCTFT.C: 198: {
  1289  0E7F  01BE               	clrf	?a_Put16x16+2
  1290  0E80  01BF               	clrf	?a_Put16x16+3
  1291  0E81                     l36
  1292                           ;NBCTFT.C: 200: {
  1293  0E81  3022               	movlw	34
  1294  0E82  00FC               	movwf	btemp+2
  1295  0E83  01FD               	clrf	btemp+3
  1296  0E84  0841               	movf	?a_Put16x16+5,w
  1297  0E85  00FB               	movwf	btemp+1
  1298  0E86  0840               	movf	?a_Put16x16+4,w
  1299  0E87  00FA               	movwf	btemp
  1300  0E88  120A  158A  20B2   	fcall	lwmul
  1301  0E8B  083E               	movf	?a_Put16x16+2,w
  1302  0E8C  07FE               	addwf	btemp+4
  1303  0E8D  1803               	btfsc	3,0
  1304  0E8E  0AFF               	incf	btemp+5
  1305  0E8F  083F               	movf	?a_Put16x16+3,w
  1306  0E90  07FF               	addwf	btemp+5
  1307  0E91  3002               	movlw	2
  1308  0E92  07FE               	addwf	btemp+4
  1309  0E93  1803               	btfsc	3,0
  1310  0E94  0AFF               	incf	btemp+5
  1311  0E95  087F               	movf	btemp+5,w
  1312  0E96  3E06               	addlw	high _ch16
  1313  0E97  00EF               	movwf	code_ptr+1
  1314  0E98  087E               	movf	btemp+4,w
  1315  0E99  3E42               	addlw	low _ch16
  1316  0E9A  1803               	btfsc	3,0
  1317  0E9B  0AEF               	incf	code_ptr+1
  1318  0E9C  120A  118A  202C   	fcall	string_table
      +       120A  158A         
  1319  0EA1  00C2               	movwf	?a_Put16x16+6
  1320  0EA2  01C3               	clrf	?a_Put16x16+7
  1321                           ;NBCTFT.C: 202: for(j=0;j<8;j++)
  1322  0EA3  01BC               	clrf	?a_Put16x16
  1323  0EA4  01BD               	clrf	?a_Put16x16+1
  1324  0EA5                     l39
  1325                           ;NBCTFT.C: 203: {
  1326  0EA5  1FC2               	btfss	?a_Put16x16+6,7
  1327  0EA6  2EAB               	goto	l42
  1328  0EA7  0838               	movf	?_Put16x16+5,w
  1329  0EA8  00C6               	movwf	?_Write_Data_U16
  1330  0EA9  0839               	movf	?_Put16x16+6,w
  1331  0EAA  2EAE               	goto	L2
  1332  0EAB                     l42
  1333                           ;NBCTFT.C: 205: else Write_Data_U16(bColor);
  1334  0EAB  083A               	movf	?_Put16x16+7,w
  1335  0EAC  00C6               	movwf	?_Write_Data_U16
  1336  0EAD  083B               	movf	?_Put16x16+8,w
  1337  0EAE                     L2
  1338  0EAE  00C7               	movwf	?_Write_Data_U16+1
  1339  0EAF  2163  120A  158A   	fcall	_Write_Data_U16
  1340                           ;NBCTFT.C: 206: m<<=1;
  1341  0EB2  1003               	bcf	3,0
  1342  0EB3  0DC2               	rlf	?a_Put16x16+6
  1343  0EB4  0DC3               	rlf	?a_Put16x16+7
  1344  0EB5  0ABC               	incf	?a_Put16x16
  1345  0EB6  1903               	btfsc	3,2
  1346  0EB7  0ABD               	incf	?a_Put16x16+1
  1347  0EB8  3000               	movlw	0
  1348  0EB9  023D               	subwf	?a_Put16x16+1,w
  1349  0EBA  3008               	movlw	8
  1350  0EBB  1903               	btfsc	3,2
  1351  0EBC  023C               	subwf	?a_Put16x16,w
  1352  0EBD  1C03               	btfss	3,0
  1353  0EBE  2EA5               	goto	l39
  1354  0EBF  0ABE               	incf	?a_Put16x16+2
  1355  0EC0  1903               	btfsc	3,2
  1356  0EC1  0ABF               	incf	?a_Put16x16+3
  1357  0EC2  3000               	movlw	0
  1358  0EC3  023F               	subwf	?a_Put16x16+3,w
  1359  0EC4  3020               	movlw	32
  1360  0EC5  1903               	btfsc	3,2
  1361  0EC6  023E               	subwf	?a_Put16x16+2,w
  1362  0EC7  1C03               	btfss	3,0
  1363  0EC8  2E81               	goto	l36
  1364  0EC9                     l35
  1365  0EC9  0AC0               	incf	?a_Put16x16+4
  1366  0ECA  1903               	btfsc	3,2
  1367  0ECB  0AC1               	incf	?a_Put16x16+5
  1368  0ECC  3000               	movlw	0
  1369  0ECD  0241               	subwf	?a_Put16x16+5,w
  1370  0ECE  3010               	movlw	16
  1371  0ECF  1903               	btfsc	3,2
  1372  0ED0  0240               	subwf	?a_Put16x16+4,w
  1373  0ED1  1803               	btfsc	3,0
  1374  0ED2  0008               	return
  1375  0ED3  2E3F               	goto	l32
  1376  0ED4                     _LCD_PutChar
  1377                           ;	_j assigned to ?a_LCD_PutChar+0
  1378  0000                     _LCD_PutChar$j	set	?a_LCD_PutChar
  1379                           ;	_i assigned to ?a_LCD_PutChar+2
  1380  0000                     _LCD_PutChar$i	set	?a_LCD_PutChar+2
  1381                           ;	_m assigned to ?a_LCD_PutChar+4
  1382  0000                     _LCD_PutChar$m	set	?a_LCD_PutChar+4
  1383                           ;NBCTFT.C: 161: void LCD_PutChar(unsigned short
      +                           x, unsigned short y, char c, unsigned int fCol
      +                          or, unsigned int bColor)
  1384  0ED4  0183               	clrf	3	;select bank 0
  1385  0ED5  0833               	movf	?_LCD_PutChar,w
  1386  0ED6  00C6               	movwf	?_LCD_SetPos
  1387  0ED7  0834               	movf	?_LCD_PutChar+1,w
  1388  0ED8  00C7               	movwf	?_LCD_SetPos+1
  1389  0ED9  3007               	movlw	7
  1390  0EDA  0733               	addwf	?_LCD_PutChar,w
  1391  0EDB  00C8               	movwf	?_LCD_SetPos+2
  1392  0EDC  3000               	movlw	0
  1393  0EDD  1803               	btfsc	3,0
  1394  0EDE  3001               	movlw	1
  1395  0EDF  0734               	addwf	?_LCD_PutChar+1,w
  1396  0EE0  00C9               	movwf	?_LCD_SetPos+3
  1397  0EE1  0835               	movf	?_LCD_PutChar+2,w
  1398  0EE2  00CA               	movwf	?_LCD_SetPos+4
  1399  0EE3  0836               	movf	?_LCD_PutChar+3,w
  1400  0EE4  00CB               	movwf	?_LCD_SetPos+5
  1401  0EE5  300F               	movlw	15
  1402  0EE6  0735               	addwf	?_LCD_PutChar+2,w
  1403  0EE7  00CC               	movwf	?_LCD_SetPos+6
  1404  0EE8  3000               	movlw	0
  1405  0EE9  1803               	btfsc	3,0
  1406  0EEA  3001               	movlw	1
  1407  0EEB  0736               	addwf	?_LCD_PutChar+3,w
  1408  0EEC  00CD               	movwf	?_LCD_SetPos+7
  1409  0EED  2188               	fcall	_LCD_SetPos
  1410                           ;NBCTFT.C: 165: for(i=0; i<16;i++) {
  1411  0EEE  01BE               	clrf	?a_LCD_PutChar+2
  1412  0EEF  01BF               	clrf	?a_LCD_PutChar+3
  1413  0EF0                     l22
  1414                           ;NBCTFT.C: 166: unsigned char m=Font8x16[(c-0x2
      +                          0)*16+i];
  1415  0EF0  0837               	movf	?_LCD_PutChar+4,w
  1416  0EF1  00C1               	movwf	?a_LCD_PutChar+5
  1417  0EF2  01C2               	clrf	?a_LCD_PutChar+6
  1418  0EF3  0EC1               	swapf	?a_LCD_PutChar+5
  1419  0EF4  0EC2               	swapf	?a_LCD_PutChar+6
  1420  0EF5  30F0               	movlw	240
  1421  0EF6  05C2               	andwf	?a_LCD_PutChar+6
  1422  0EF7  0841               	movf	?a_LCD_PutChar+5,w
  1423  0EF8  390F               	andlw	15
  1424  0EF9  04C2               	iorwf	?a_LCD_PutChar+6
  1425  0EFA  30F0               	movlw	240
  1426  0EFB  05C1               	andwf	?a_LCD_PutChar+5
  1427  0EFC  083E               	movf	?a_LCD_PutChar+2,w
  1428  0EFD  07C1               	addwf	?a_LCD_PutChar+5
  1429  0EFE  1803               	btfsc	3,0
  1430  0EFF  0AC2               	incf	?a_LCD_PutChar+6
  1431  0F00  083F               	movf	?a_LCD_PutChar+3,w
  1432  0F01  07C2               	addwf	?a_LCD_PutChar+6
  1433  0F02  3000               	movlw	0
  1434  0F03  07C1               	addwf	?a_LCD_PutChar+5
  1435  0F04  1803               	btfsc	3,0
  1436  0F05  0AC2               	incf	?a_LCD_PutChar+6
  1437  0F06  30FE               	movlw	254
  1438  0F07  07C2               	addwf	?a_LCD_PutChar+6
  1439  0F08  0842               	movf	?a_LCD_PutChar+6,w
  1440  0F09  3E00               	addlw	high _Font8x16
  1441  0F0A  00EF               	movwf	code_ptr+1
  1442  0F0B  0841               	movf	?a_LCD_PutChar+5,w
  1443  0F0C  3E42               	addlw	low _Font8x16
  1444  0F0D  1803               	btfsc	3,0
  1445  0F0E  0AEF               	incf	code_ptr+1
  1446  0F0F  120A  118A  202C   	fcall	string_table
      +       120A  158A         
  1447  0F14  00C0               	movwf	?a_LCD_PutChar+4
  1448                           ;NBCTFT.C: 167: for(j=0;j<8;j++) {
  1449  0F15  01BC               	clrf	?a_LCD_PutChar
  1450  0F16  01BD               	clrf	?a_LCD_PutChar+1
  1451  0F17                     l25
  1452                           ;NBCTFT.C: 168: if((m&0x80)==0x80) {
  1453  0F17  1FC0               	btfss	?a_LCD_PutChar+4,7
  1454  0F18  2F1D               	goto	l28
  1455                           ;NBCTFT.C: 169: Write_Data_U16(fColor);
  1456  0F19  0838               	movf	?_LCD_PutChar+5,w
  1457  0F1A  00C6               	movwf	?_Write_Data_U16
  1458  0F1B  0839               	movf	?_LCD_PutChar+6,w
  1459  0F1C  2F20               	goto	L1
  1460                           ;NBCTFT.C: 170: }
  1461  0F1D                     l28
  1462                           ;NBCTFT.C: 171: else {
  1463  0F1D  083A               	movf	?_LCD_PutChar+7,w
  1464  0F1E  00C6               	movwf	?_Write_Data_U16
  1465  0F1F  083B               	movf	?_LCD_PutChar+8,w
  1466  0F20                     L1
  1467  0F20  00C7               	movwf	?_Write_Data_U16+1
  1468  0F21  2163  120A  158A   	fcall	_Write_Data_U16
  1469                           ;NBCTFT.C: 173: }
  1470  0F24  1003               	bcf	3,0
  1471  0F25  0DC0               	rlf	?a_LCD_PutChar+4
  1472  0F26  0ABC               	incf	?a_LCD_PutChar
  1473  0F27  1903               	btfsc	3,2
  1474  0F28  0ABD               	incf	?a_LCD_PutChar+1
  1475  0F29  3000               	movlw	0
  1476  0F2A  023D               	subwf	?a_LCD_PutChar+1,w
  1477  0F2B  3008               	movlw	8
  1478  0F2C  1903               	btfsc	3,2
  1479  0F2D  023C               	subwf	?a_LCD_PutChar,w
  1480  0F2E  1C03               	btfss	3,0
  1481  0F2F  2F17               	goto	l25
  1482  0F30  0ABE               	incf	?a_LCD_PutChar+2
  1483  0F31  1903               	btfsc	3,2
  1484  0F32  0ABF               	incf	?a_LCD_PutChar+3
  1485  0F33  3000               	movlw	0
  1486  0F34  023F               	subwf	?a_LCD_PutChar+3,w
  1487  0F35  3010               	movlw	16
  1488  0F36  1903               	btfsc	3,2
  1489  0F37  023E               	subwf	?a_LCD_PutChar+2,w
  1490  0F38  1803               	btfsc	3,0
  1491  0F39  0008               	return
  1492  0F3A  2EF0               	goto	l22
  1493  0F3B                     _LCD_PutString
  1494                           ;	_l assigned to ?a_LCD_PutString+0
  1495  0000                     _LCD_PutString$l	set	?a_LCD_PutString
  1496                           ;	_i assigned to ?a_LCD_PutString+1
  1497  0000                     _LCD_PutString$i	set	?a_LCD_PutString+1
  1498                           ;	_gbk assigned to ?a_LCD_PutString+2
  1499  0000                     _LCD_PutString$gbk	set	?a_LCD_PutString+2
  1500                           ;NBCTFT.C: 220: void LCD_PutString(unsigned int
      +                           x, unsigned int y, unsigned char tab0[], unsig
      +                          ned int fColor, unsigned int bColor)
  1501  0F3B  0183               	clrf	3	;select bank 0
  1502  0F3C  01AD               	clrf	?a_LCD_PutString
  1503  0F3D  01AE               	clrf	?a_LCD_PutString+1
  1504                           ;NBCTFT.C: 224: while(tab0[i])
  1505  0F3E  2FA4               	goto	l45
  1506  0F3F                     l46
  1507                           ;NBCTFT.C: 225: {
  1508  0F3F  082E               	movf	?a_LCD_PutString+1,w
  1509  0F40  0728               	addwf	?_LCD_PutString+4,w
  1510  0F41  0084               	movwf	4
  1511  0F42  1383               	bcf	3,7
  1512  0F43  3080               	movlw	-128
  1513  0F44  0200               	subwf	0,w
  1514  0F45  1803               	btfsc	3,0
  1515  0F46  2F70               	goto	l48
  1516                           ;NBCTFT.C: 227: {
  1517  0F47  082D               	movf	?a_LCD_PutString,w
  1518  0F48  00B1               	movwf	?a_LCD_PutString+4
  1519  0F49  01B2               	clrf	?a_LCD_PutString+5
  1520  0F4A  1003               	bcf	3,0
  1521  0F4B  0DB1               	rlf	?a_LCD_PutString+4
  1522  0F4C  0DB2               	rlf	?a_LCD_PutString+5
  1523  0F4D  1003               	bcf	3,0
  1524  0F4E  0DB1               	rlf	?a_LCD_PutString+4
  1525  0F4F  0DB2               	rlf	?a_LCD_PutString+5
  1526  0F50  1003               	bcf	3,0
  1527  0F51  0DB1               	rlf	?a_LCD_PutString+4
  1528  0F52  0DB2               	rlf	?a_LCD_PutString+5
  1529  0F53  0824               	movf	?_LCD_PutString,w
  1530  0F54  0731               	addwf	?a_LCD_PutString+4,w
  1531  0F55  00B3               	movwf	?_LCD_PutChar
  1532  0F56  0825               	movf	?_LCD_PutString+1,w
  1533  0F57  1803               	btfsc	3,0
  1534  0F58  0A25               	incf	?_LCD_PutString+1,w
  1535  0F59  0732               	addwf	?a_LCD_PutString+5,w
  1536  0F5A  00B4               	movwf	?_LCD_PutChar+1
  1537  0F5B  0826               	movf	?_LCD_PutString+2,w
  1538  0F5C  00B5               	movwf	?_LCD_PutChar+2
  1539  0F5D  0827               	movf	?_LCD_PutString+3,w
  1540  0F5E  00B6               	movwf	?_LCD_PutChar+3
  1541  0F5F  082E               	movf	?a_LCD_PutString+1,w
  1542  0F60  0728               	addwf	?_LCD_PutString+4,w
  1543  0F61  0084               	movwf	4
  1544  0F62  0800               	movf	0,w
  1545  0F63  00B7               	movwf	?_LCD_PutChar+4
  1546  0F64  0829               	movf	?_LCD_PutString+5,w
  1547  0F65  00B8               	movwf	?_LCD_PutChar+5
  1548  0F66  082A               	movf	?_LCD_PutString+6,w
  1549  0F67  00B9               	movwf	?_LCD_PutChar+6
  1550  0F68  082B               	movf	?_LCD_PutString+7,w
  1551  0F69  00BA               	movwf	?_LCD_PutChar+7
  1552  0F6A  082C               	movf	?_LCD_PutString+8,w
  1553  0F6B  00BB               	movwf	?_LCD_PutChar+8
  1554  0F6C  26D4               	fcall	_LCD_PutChar
  1555                           ;NBCTFT.C: 229: i++;l++;
  1556  0F6D  0AAE               	incf	?a_LCD_PutString+1
  1557  0F6E  0AAD               	incf	?a_LCD_PutString
  1558                           ;NBCTFT.C: 230: }
  1559  0F6F  2FA4               	goto	l45
  1560  0F70                     l48
  1561                           ;NBCTFT.C: 231: else
  1562  0F70  082E               	movf	?a_LCD_PutString+1,w
  1563  0F71  0728               	addwf	?_LCD_PutString+4,w
  1564  0F72  0084               	movwf	4
  1565  0F73  1383               	bcf	3,7
  1566  0F74  0800               	movf	0,w
  1567  0F75  00AF               	movwf	?a_LCD_PutString+2
  1568  0F76  082E               	movf	?a_LCD_PutString+1,w
  1569  0F77  0728               	addwf	?_LCD_PutString+4,w
  1570  0F78  00B1               	movwf	?a_LCD_PutString+4
  1571  0F79  0A31               	incf	?a_LCD_PutString+4,w
  1572  0F7A  0084               	movwf	4
  1573  0F7B  1383               	bcf	3,7
  1574  0F7C  0800               	movf	0,w
  1575  0F7D  00B0               	movwf	?a_LCD_PutString+3
  1576                           ;NBCTFT.C: 234: Put16x16(x+l*8,y,gbk,fColor,bCo
      +                          lor);
  1577  0F7E  082D               	movf	?a_LCD_PutString,w
  1578  0F7F  00B1               	movwf	?a_LCD_PutString+4
  1579  0F80  01B2               	clrf	?a_LCD_PutString+5
  1580  0F81  1003               	bcf	3,0
  1581  0F82  0DB1               	rlf	?a_LCD_PutString+4
  1582  0F83  0DB2               	rlf	?a_LCD_PutString+5
  1583  0F84  1003               	bcf	3,0
  1584  0F85  0DB1               	rlf	?a_LCD_PutString+4
  1585  0F86  0DB2               	rlf	?a_LCD_PutString+5
  1586  0F87  1003               	bcf	3,0
  1587  0F88  0DB1               	rlf	?a_LCD_PutString+4
  1588  0F89  0DB2               	rlf	?a_LCD_PutString+5
  1589  0F8A  0824               	movf	?_LCD_PutString,w
  1590  0F8B  0731               	addwf	?a_LCD_PutString+4,w
  1591  0F8C  00B3               	movwf	?_Put16x16
  1592  0F8D  0825               	movf	?_LCD_PutString+1,w
  1593  0F8E  1803               	btfsc	3,0
  1594  0F8F  0A25               	incf	?_LCD_PutString+1,w
  1595  0F90  0732               	addwf	?a_LCD_PutString+5,w
  1596  0F91  00B4               	movwf	?_Put16x16+1
  1597  0F92  0826               	movf	?_LCD_PutString+2,w
  1598  0F93  00B5               	movwf	?_Put16x16+2
  1599  0F94  0827               	movf	?_LCD_PutString+3,w
  1600  0F95  00B6               	movwf	?_Put16x16+3
  1601  0F96  302F               	movlw	?a_LCD_PutString+2
  1602  0F97  00B7               	movwf	?_Put16x16+4
  1603  0F98  0829               	movf	?_LCD_PutString+5,w
  1604  0F99  00B8               	movwf	?_Put16x16+5
  1605  0F9A  082A               	movf	?_LCD_PutString+6,w
  1606  0F9B  00B9               	movwf	?_Put16x16+6
  1607  0F9C  082B               	movf	?_LCD_PutString+7,w
  1608  0F9D  00BA               	movwf	?_Put16x16+7
  1609  0F9E  082C               	movf	?_LCD_PutString+8,w
  1610  0F9F  00BB               	movwf	?_Put16x16+8
  1611  0FA0  2623               	fcall	_Put16x16
  1612                           ;NBCTFT.C: 235: i+=2;l+=2;
  1613  0FA1  3002               	movlw	2
  1614  0FA2  07AE               	addwf	?a_LCD_PutString+1
  1615  0FA3  07AD               	addwf	?a_LCD_PutString
  1616  0FA4                     l45
  1617  0FA4  082E               	movf	?a_LCD_PutString+1,w
  1618  0FA5  0728               	addwf	?_LCD_PutString+4,w
  1619  0FA6  0084               	movwf	4
  1620  0FA7  1383               	bcf	3,7
  1621  0FA8  0880               	movf	0
  1622  0FA9  1903               	btfsc	3,2
  1623  0FAA  0008               	return
  1624  0FAB  2F3F               	goto	l46
  1625                           
  1626                           	psect	text6
  1627  08E4                     _CLR_Screen
  1628                           ;	_i assigned to ?a_CLR_Screen+0
  1629  0000                     _CLR_Screen$i	set	?a_CLR_Screen
  1630                           ;	_j assigned to ?a_CLR_Screen+2
  1631  0000                     _CLR_Screen$j	set	?a_CLR_Screen+2
  1632                           ;NBCTFT.C: 141: void CLR_Screen(unsigned int bC
      +                          olor)
  1633  08E4  0183               	clrf	3	;select bank 0
  1634  08E5  01C6               	clrf	?_LCD_SetPos
  1635  08E6  01C7               	clrf	?_LCD_SetPos+1
  1636  08E7  30F0               	movlw	240
  1637  08E8  00C8               	movwf	?_LCD_SetPos+2
  1638  08E9  01C9               	clrf	?_LCD_SetPos+3
  1639  08EA  01CA               	clrf	?_LCD_SetPos+4
  1640  08EB  01CB               	clrf	?_LCD_SetPos+5
  1641  08EC  3040               	movlw	64
  1642  08ED  00CC               	movwf	?_LCD_SetPos+6
  1643  08EE  3001               	movlw	1
  1644  08EF  00CD               	movwf	?_LCD_SetPos+7
  1645  08F0  120A  158A  2188   	fcall	_LCD_SetPos
  1646                           ;NBCTFT.C: 145: for (i=0;i<320;i++)
  1647  08F3  01A6               	clrf	?a_CLR_Screen
  1648  08F4  01A7               	clrf	?a_CLR_Screen+1
  1649  08F5                     l15
  1650                           ;NBCTFT.C: 146: {
  1651  08F5  01A8               	clrf	?a_CLR_Screen+2
  1652  08F6  01A9               	clrf	?a_CLR_Screen+3
  1653  08F7                     l18
  1654                           ;NBCTFT.C: 148: Write_Data_U16(bColor);
  1655  08F7  0824               	movf	?_CLR_Screen,w
  1656  08F8  00C6               	movwf	?_Write_Data_U16
  1657  08F9  0825               	movf	?_CLR_Screen+1,w
  1658  08FA  00C7               	movwf	?_Write_Data_U16+1
  1659  08FB  120A  158A  2163   	fcall	_Write_Data_U16
      +       120A  158A         
  1660  0900  0AA8               	incf	?a_CLR_Screen+2
  1661  0901  1903               	btfsc	3,2
  1662  0902  0AA9               	incf	?a_CLR_Screen+3
  1663  0903  3000               	movlw	0
  1664  0904  0229               	subwf	?a_CLR_Screen+3,w
  1665  0905  30F0               	movlw	240
  1666  0906  1903               	btfsc	3,2
  1667  0907  0228               	subwf	?a_CLR_Screen+2,w
  1668  0908  1C03               	btfss	3,0
  1669  0909  28F7               	goto	l18
  1670  090A  0AA6               	incf	?a_CLR_Screen
  1671  090B  1903               	btfsc	3,2
  1672  090C  0AA7               	incf	?a_CLR_Screen+1
  1673  090D  3001               	movlw	1
  1674  090E  0227               	subwf	?a_CLR_Screen+1,w
  1675  090F  3040               	movlw	64
  1676  0910  1903               	btfsc	3,2
  1677  0911  0226               	subwf	?a_CLR_Screen,w
  1678  0912  1803               	btfsc	3,0
  1679  0913  0008               	return
  1680  0914  28F5               	goto	l15
  1681                           
  1682                           	psect	strings
  1683  0042                     _Font8x16
  1684  0042  3400               	retlw	0
  1685  0043  3400               	retlw	0
  1686  0044  3400               	retlw	0
  1687  0045  3400               	retlw	0
  1688  0046  3400               	retlw	0
  1689  0047  3400               	retlw	0
  1690  0048  3400               	retlw	0
  1691  0049  3400               	retlw	0
  1692  004A  3400               	retlw	0
  1693  004B  3400               	retlw	0
  1694  004C  3400               	retlw	0
  1695  004D  3400               	retlw	0
  1696  004E  3400               	retlw	0
  1697  004F  3400               	retlw	0
  1698  0050  3400               	retlw	0
  1699  0051  3400               	retlw	0
  1700  0052  3400               	retlw	0
  1701  0053  3400               	retlw	0
  1702  0054  3400               	retlw	0
  1703  0055  3410               	retlw	16
  1704  0056  3410               	retlw	16
  1705  0057  3410               	retlw	16
  1706  0058  3410               	retlw	16
  1707  0059  3410               	retlw	16
  1708  005A  3410               	retlw	16
  1709  005B  3410               	retlw	16
  1710  005C  3400               	retlw	0
  1711  005D  3400               	retlw	0
  1712  005E  3418               	retlw	24
  1713  005F  3418               	retlw	24
  1714  0060  3400               	retlw	0
  1715  0061  3400               	retlw	0
  1716  0062  3400               	retlw	0
  1717  0063  3412               	retlw	18
  1718  0064  3436               	retlw	54
  1719  0065  3424               	retlw	36
  1720  0066  3448               	retlw	72
  1721  0067  3400               	retlw	0
  1722  0068  3400               	retlw	0
  1723  0069  3400               	retlw	0
  1724  006A  3400               	retlw	0
  1725  006B  3400               	retlw	0
  1726  006C  3400               	retlw	0
  1727  006D  3400               	retlw	0
  1728  006E  3400               	retlw	0
  1729  006F  3400               	retlw	0
  1730  0070  3400               	retlw	0
  1731  0071  3400               	retlw	0
  1732  0072  3400               	retlw	0
  1733  0073  3400               	retlw	0
  1734  0074  3400               	retlw	0
  1735  0075  3424               	retlw	36
  1736  0076  3424               	retlw	36
  1737  0077  3424               	retlw	36
  1738  0078  34FE               	retlw	-2
  1739  0079  3448               	retlw	72
  1740  007A  3448               	retlw	72
  1741  007B  3448               	retlw	72
  1742  007C  34FE               	retlw	-2
  1743  007D  3448               	retlw	72
  1744  007E  3448               	retlw	72
  1745  007F  3448               	retlw	72
  1746  0080  3400               	retlw	0
  1747  0081  3400               	retlw	0
  1748  0082  3400               	retlw	0
  1749  0083  3400               	retlw	0
  1750  0084  3410               	retlw	16
  1751  0085  3438               	retlw	56
  1752  0086  3454               	retlw	84
  1753  0087  3454               	retlw	84
  1754  0088  3450               	retlw	80
  1755  0089  3430               	retlw	48
  1756  008A  3418               	retlw	24
  1757  008B  3414               	retlw	20
  1758  008C  3414               	retlw	20
  1759  008D  3454               	retlw	84
  1760  008E  3454               	retlw	84
  1761  008F  3438               	retlw	56
  1762  0090  3410               	retlw	16
  1763  0091  3410               	retlw	16
  1764  0092  3400               	retlw	0
  1765  0093  3400               	retlw	0
  1766  0094  3400               	retlw	0
  1767  0095  3444               	retlw	68
  1768  0096  34A4               	retlw	-92
  1769  0097  34A8               	retlw	-88
  1770  0098  34A8               	retlw	-88
  1771  0099  34A8               	retlw	-88
  1772  009A  3454               	retlw	84
  1773  009B  341A               	retlw	26
  1774  009C  342A               	retlw	42
  1775  009D  342A               	retlw	42
  1776  009E  342A               	retlw	42
  1777  009F  3444               	retlw	68
  1778  00A0  3400               	retlw	0
  1779  00A1  3400               	retlw	0
  1780  00A2  3400               	retlw	0
  1781  00A3  3400               	retlw	0
  1782  00A4  3400               	retlw	0
  1783  00A5  3430               	retlw	48
  1784  00A6  3448               	retlw	72
  1785  00A7  3448               	retlw	72
  1786  00A8  3448               	retlw	72
  1787  00A9  3450               	retlw	80
  1788  00AA  346E               	retlw	110
  1789  00AB  34A4               	retlw	-92
  1790  00AC  3494               	retlw	-108
  1791  00AD  3488               	retlw	-120
  1792  00AE  3489               	retlw	-119
  1793  00AF  3476               	retlw	118
  1794  00B0  3400               	retlw	0
  1795  00B1  3400               	retlw	0
  1796  00B2  3400               	retlw	0
  1797  00B3  3460               	retlw	96
  1798  00B4  3460               	retlw	96
  1799  00B5  3420               	retlw	32
  1800  00B6  34C0               	retlw	-64
  1801  00B7  3400               	retlw	0
  1802  00B8  3400               	retlw	0
  1803  00B9  3400               	retlw	0
  1804  00BA  3400               	retlw	0
  1805  00BB  3400               	retlw	0
  1806  00BC  3400               	retlw	0
  1807  00BD  3400               	retlw	0
  1808  00BE  3400               	retlw	0
  1809  00BF  3400               	retlw	0
  1810  00C0  3400               	retlw	0
  1811  00C1  3400               	retlw	0
  1812  00C2  3400               	retlw	0
  1813  00C3  3402               	retlw	2
  1814  00C4  3404               	retlw	4
  1815  00C5  3408               	retlw	8
  1816  00C6  3408               	retlw	8
  1817  00C7  3410               	retlw	16
  1818  00C8  3410               	retlw	16
  1819  00C9  3410               	retlw	16
  1820  00CA  3410               	retlw	16
  1821  00CB  3410               	retlw	16
  1822  00CC  3410               	retlw	16
  1823  00CD  3408               	retlw	8
  1824  00CE  3408               	retlw	8
  1825  00CF  3404               	retlw	4
  1826  00D0  3402               	retlw	2
  1827  00D1  3400               	retlw	0
  1828  00D2  3400               	retlw	0
  1829  00D3  3440               	retlw	64
  1830  00D4  3420               	retlw	32
  1831  00D5  3410               	retlw	16
  1832  00D6  3410               	retlw	16
  1833  00D7  3408               	retlw	8
  1834  00D8  3408               	retlw	8
  1835  00D9  3408               	retlw	8
  1836  00DA  3408               	retlw	8
  1837  00DB  3408               	retlw	8
  1838  00DC  3408               	retlw	8
  1839  00DD  3410               	retlw	16
  1840  00DE  3410               	retlw	16
  1841  00DF  3420               	retlw	32
  1842  00E0  3440               	retlw	64
  1843  00E1  3400               	retlw	0
  1844  00E2  3400               	retlw	0
  1845  00E3  3400               	retlw	0
  1846  00E4  3400               	retlw	0
  1847  00E5  3400               	retlw	0
  1848  00E6  3410               	retlw	16
  1849  00E7  3410               	retlw	16
  1850  00E8  34D6               	retlw	-42
  1851  00E9  3438               	retlw	56
  1852  00EA  3438               	retlw	56
  1853  00EB  34D6               	retlw	-42
  1854  00EC  3410               	retlw	16
  1855  00ED  3410               	retlw	16
  1856  00EE  3400               	retlw	0
  1857  00EF  3400               	retlw	0
  1858  00F0  3400               	retlw	0
  1859  00F1  3400               	retlw	0
  1860  00F2  3400               	retlw	0
  1861  00F3  3400               	retlw	0
  1862  00F4  3400               	retlw	0
  1863  00F5  3400               	retlw	0
  1864  00F6  3410               	retlw	16
  1865  00F7  3410               	retlw	16
  1866  00F8  3410               	retlw	16
  1867  00F9  3410               	retlw	16
  1868  00FA  34FE               	retlw	-2
  1869  00FB  3410               	retlw	16
  1870  00FC  3410               	retlw	16
  1871  00FD  3410               	retlw	16
  1872  00FE  3410               	retlw	16
  1873  00FF  3400               	retlw	0
  1874  0100  3400               	retlw	0
  1875  0101  3400               	retlw	0
  1876  0102  3400               	retlw	0
  1877  0103  3400               	retlw	0
  1878  0104  3400               	retlw	0
  1879  0105  3400               	retlw	0
  1880  0106  3400               	retlw	0
  1881  0107  3400               	retlw	0
  1882  0108  3400               	retlw	0
  1883  0109  3400               	retlw	0
  1884  010A  3400               	retlw	0
  1885  010B  3400               	retlw	0
  1886  010C  3400               	retlw	0
  1887  010D  3400               	retlw	0
  1888  010E  3460               	retlw	96
  1889  010F  3460               	retlw	96
  1890  0110  3420               	retlw	32
  1891  0111  34C0               	retlw	-64
  1892  0112  3400               	retlw	0
  1893  0113  3400               	retlw	0
  1894  0114  3400               	retlw	0
  1895  0115  3400               	retlw	0
  1896  0116  3400               	retlw	0
  1897  0117  3400               	retlw	0
  1898  0118  3400               	retlw	0
  1899  0119  3400               	retlw	0
  1900  011A  347F               	retlw	127
  1901  011B  3400               	retlw	0
  1902  011C  3400               	retlw	0
  1903  011D  3400               	retlw	0
  1904  011E  3400               	retlw	0
  1905  011F  3400               	retlw	0
  1906  0120  3400               	retlw	0
  1907  0121  3400               	retlw	0
  1908  0122  3400               	retlw	0
  1909  0123  3400               	retlw	0
  1910  0124  3400               	retlw	0
  1911  0125  3400               	retlw	0
  1912  0126  3400               	retlw	0
  1913  0127  3400               	retlw	0
  1914  0128  3400               	retlw	0
  1915  0129  3400               	retlw	0
  1916  012A  3400               	retlw	0
  1917  012B  3400               	retlw	0
  1918  012C  3400               	retlw	0
  1919  012D  3400               	retlw	0
  1920  012E  3460               	retlw	96
  1921  012F  3460               	retlw	96
  1922  0130  3400               	retlw	0
  1923  0131  3400               	retlw	0
  1924  0132  3400               	retlw	0
  1925  0133  3400               	retlw	0
  1926  0134  3401               	retlw	1
  1927  0135  3402               	retlw	2
  1928  0136  3402               	retlw	2
  1929  0137  3404               	retlw	4
  1930  0138  3404               	retlw	4
  1931  0139  3408               	retlw	8
  1932  013A  3408               	retlw	8
  1933  013B  3410               	retlw	16
  1934  013C  3410               	retlw	16
  1935  013D  3420               	retlw	32
  1936  013E  3420               	retlw	32
  1937  013F  3440               	retlw	64
  1938  0140  3440               	retlw	64
  1939  0141  3400               	retlw	0
  1940  0142  3400               	retlw	0
  1941  0143  3400               	retlw	0
  1942  0144  3400               	retlw	0
  1943  0145  3418               	retlw	24
  1944  0146  3424               	retlw	36
  1945  0147  3442               	retlw	66
  1946  0148  3442               	retlw	66
  1947  0149  3442               	retlw	66
  1948  014A  3442               	retlw	66
  1949  014B  3442               	retlw	66
  1950  014C  3442               	retlw	66
  1951  014D  3442               	retlw	66
  1952  014E  3424               	retlw	36
  1953  014F  3418               	retlw	24
  1954  0150  3400               	retlw	0
  1955  0151  3400               	retlw	0
  1956  0152  3400               	retlw	0
  1957  0153  3400               	retlw	0
  1958  0154  3400               	retlw	0
  1959  0155  3410               	retlw	16
  1960  0156  3470               	retlw	112
  1961  0157  3410               	retlw	16
  1962  0158  3410               	retlw	16
  1963  0159  3410               	retlw	16
  1964  015A  3410               	retlw	16
  1965  015B  3410               	retlw	16
  1966  015C  3410               	retlw	16
  1967  015D  3410               	retlw	16
  1968  015E  3410               	retlw	16
  1969  015F  347C               	retlw	124
  1970  0160  3400               	retlw	0
  1971  0161  3400               	retlw	0
  1972  0162  3400               	retlw	0
  1973  0163  3400               	retlw	0
  1974  0164  3400               	retlw	0
  1975  0165  343C               	retlw	60
  1976  0166  3442               	retlw	66
  1977  0167  3442               	retlw	66
  1978  0168  3442               	retlw	66
  1979  0169  3404               	retlw	4
  1980  016A  3404               	retlw	4
  1981  016B  3408               	retlw	8
  1982  016C  3410               	retlw	16
  1983  016D  3420               	retlw	32
  1984  016E  3442               	retlw	66
  1985  016F  347E               	retlw	126
  1986  0170  3400               	retlw	0
  1987  0171  3400               	retlw	0
  1988  0172  3400               	retlw	0
  1989  0173  3400               	retlw	0
  1990  0174  3400               	retlw	0
  1991  0175  343C               	retlw	60
  1992  0176  3442               	retlw	66
  1993  0177  3442               	retlw	66
  1994  0178  3404               	retlw	4
  1995  0179  3418               	retlw	24
  1996  017A  3404               	retlw	4
  1997  017B  3402               	retlw	2
  1998  017C  3402               	retlw	2
  1999  017D  3442               	retlw	66
  2000  017E  3444               	retlw	68
  2001  017F  3438               	retlw	56
  2002  0180  3400               	retlw	0
  2003  0181  3400               	retlw	0
  2004  0182  3400               	retlw	0
  2005  0183  3400               	retlw	0
  2006  0184  3400               	retlw	0
  2007  0185  3404               	retlw	4
  2008  0186  340C               	retlw	12
  2009  0187  3414               	retlw	20
  2010  0188  3424               	retlw	36
  2011  0189  3424               	retlw	36
  2012  018A  3444               	retlw	68
  2013  018B  3444               	retlw	68
  2014  018C  347E               	retlw	126
  2015  018D  3404               	retlw	4
  2016  018E  3404               	retlw	4
  2017  018F  341E               	retlw	30
  2018  0190  3400               	retlw	0
  2019  0191  3400               	retlw	0
  2020  0192  3400               	retlw	0
  2021  0193  3400               	retlw	0
  2022  0194  3400               	retlw	0
  2023  0195  347E               	retlw	126
  2024  0196  3440               	retlw	64
  2025  0197  3440               	retlw	64
  2026  0198  3440               	retlw	64
  2027  0199  3458               	retlw	88
  2028  019A  3464               	retlw	100
  2029  019B  3402               	retlw	2
  2030  019C  3402               	retlw	2
  2031  019D  3442               	retlw	66
  2032  019E  3444               	retlw	68
  2033  019F  3438               	retlw	56
  2034  01A0  3400               	retlw	0
  2035  01A1  3400               	retlw	0
  2036  01A2  3400               	retlw	0
  2037  01A3  3400               	retlw	0
  2038  01A4  3400               	retlw	0
  2039  01A5  341C               	retlw	28
  2040  01A6  3424               	retlw	36
  2041  01A7  3440               	retlw	64
  2042  01A8  3440               	retlw	64
  2043  01A9  3458               	retlw	88
  2044  01AA  3464               	retlw	100
  2045  01AB  3442               	retlw	66
  2046  01AC  3442               	retlw	66
  2047  01AD  3442               	retlw	66
  2048  01AE  3424               	retlw	36
  2049  01AF  3418               	retlw	24
  2050  01B0  3400               	retlw	0
  2051  01B1  3400               	retlw	0
  2052  01B2  3400               	retlw	0
  2053  01B3  3400               	retlw	0
  2054  01B4  3400               	retlw	0
  2055  01B5  347E               	retlw	126
  2056  01B6  3444               	retlw	68
  2057  01B7  3444               	retlw	68
  2058  01B8  3408               	retlw	8
  2059  01B9  3408               	retlw	8
  2060  01BA  3410               	retlw	16
  2061  01BB  3410               	retlw	16
  2062  01BC  3410               	retlw	16
  2063  01BD  3410               	retlw	16
  2064  01BE  3410               	retlw	16
  2065  01BF  3410               	retlw	16
  2066  01C0  3400               	retlw	0
  2067  01C1  3400               	retlw	0
  2068  01C2  3400               	retlw	0
  2069  01C3  3400               	retlw	0
  2070  01C4  3400               	retlw	0
  2071  01C5  343C               	retlw	60
  2072  01C6  3442               	retlw	66
  2073  01C7  3442               	retlw	66
  2074  01C8  3442               	retlw	66
  2075  01C9  3424               	retlw	36
  2076  01CA  3418               	retlw	24
  2077  01CB  3424               	retlw	36
  2078  01CC  3442               	retlw	66
  2079  01CD  3442               	retlw	66
  2080  01CE  3442               	retlw	66
  2081  01CF  343C               	retlw	60
  2082  01D0  3400               	retlw	0
  2083  01D1  3400               	retlw	0
  2084  01D2  3400               	retlw	0
  2085  01D3  3400               	retlw	0
  2086  01D4  3400               	retlw	0
  2087  01D5  3418               	retlw	24
  2088  01D6  3424               	retlw	36
  2089  01D7  3442               	retlw	66
  2090  01D8  3442               	retlw	66
  2091  01D9  3442               	retlw	66
  2092  01DA  3426               	retlw	38
  2093  01DB  341A               	retlw	26
  2094  01DC  3402               	retlw	2
  2095  01DD  3402               	retlw	2
  2096  01DE  3424               	retlw	36
  2097  01DF  3438               	retlw	56
  2098  01E0  3400               	retlw	0
  2099  01E1  3400               	retlw	0
  2100  01E2  3400               	retlw	0
  2101  01E3  3400               	retlw	0
  2102  01E4  3400               	retlw	0
  2103  01E5  3400               	retlw	0
  2104  01E6  3400               	retlw	0
  2105  01E7  3400               	retlw	0
  2106  01E8  3418               	retlw	24
  2107  01E9  3418               	retlw	24
  2108  01EA  3400               	retlw	0
  2109  01EB  3400               	retlw	0
  2110  01EC  3400               	retlw	0
  2111  01ED  3400               	retlw	0
  2112  01EE  3418               	retlw	24
  2113  01EF  3418               	retlw	24
  2114  01F0  3400               	retlw	0
  2115  01F1  3400               	retlw	0
  2116  01F2  3400               	retlw	0
  2117  01F3  3400               	retlw	0
  2118  01F4  3400               	retlw	0
  2119  01F5  3400               	retlw	0
  2120  01F6  3400               	retlw	0
  2121  01F7  3400               	retlw	0
  2122  01F8  3400               	retlw	0
  2123  01F9  3410               	retlw	16
  2124  01FA  3400               	retlw	0
  2125  01FB  3400               	retlw	0
  2126  01FC  3400               	retlw	0
  2127  01FD  3400               	retlw	0
  2128  01FE  3400               	retlw	0
  2129  01FF  3410               	retlw	16
  2130  0200  3410               	retlw	16
  2131  0201  3420               	retlw	32
  2132  0202  3400               	retlw	0
  2133  0203  3400               	retlw	0
  2134  0204  3400               	retlw	0
  2135  0205  3402               	retlw	2
  2136  0206  3404               	retlw	4
  2137  0207  3408               	retlw	8
  2138  0208  3410               	retlw	16
  2139  0209  3420               	retlw	32
  2140  020A  3440               	retlw	64
  2141  020B  3420               	retlw	32
  2142  020C  3410               	retlw	16
  2143  020D  3408               	retlw	8
  2144  020E  3404               	retlw	4
  2145  020F  3402               	retlw	2
  2146  0210  3400               	retlw	0
  2147  0211  3400               	retlw	0
  2148  0212  3400               	retlw	0
  2149  0213  3400               	retlw	0
  2150  0214  3400               	retlw	0
  2151  0215  3400               	retlw	0
  2152  0216  3400               	retlw	0
  2153  0217  3400               	retlw	0
  2154  0218  34FE               	retlw	-2
  2155  0219  3400               	retlw	0
  2156  021A  3400               	retlw	0
  2157  021B  3400               	retlw	0
  2158  021C  34FE               	retlw	-2
  2159  021D  3400               	retlw	0
  2160  021E  3400               	retlw	0
  2161  021F  3400               	retlw	0
  2162  0220  3400               	retlw	0
  2163  0221  3400               	retlw	0
  2164  0222  3400               	retlw	0
  2165  0223  3400               	retlw	0
  2166  0224  3400               	retlw	0
  2167  0225  3440               	retlw	64
  2168  0226  3420               	retlw	32
  2169  0227  3410               	retlw	16
  2170  0228  3408               	retlw	8
  2171  0229  3404               	retlw	4
  2172  022A  3402               	retlw	2
  2173  022B  3404               	retlw	4
  2174  022C  3408               	retlw	8
  2175  022D  3410               	retlw	16
  2176  022E  3420               	retlw	32
  2177  022F  3440               	retlw	64
  2178  0230  3400               	retlw	0
  2179  0231  3400               	retlw	0
  2180  0232  3400               	retlw	0
  2181  0233  3400               	retlw	0
  2182  0234  3400               	retlw	0
  2183  0235  343C               	retlw	60
  2184  0236  3442               	retlw	66
  2185  0237  3442               	retlw	66
  2186  0238  3462               	retlw	98
  2187  0239  3402               	retlw	2
  2188  023A  3404               	retlw	4
  2189  023B  3408               	retlw	8
  2190  023C  3408               	retlw	8
  2191  023D  3400               	retlw	0
  2192  023E  3418               	retlw	24
  2193  023F  3418               	retlw	24
  2194  0240  3400               	retlw	0
  2195  0241  3400               	retlw	0
  2196  0242  3400               	retlw	0
  2197  0243  3400               	retlw	0
  2198  0244  3400               	retlw	0
  2199  0245  3438               	retlw	56
  2200  0246  3444               	retlw	68
  2201  0247  345A               	retlw	90
  2202  0248  34AA               	retlw	-86
  2203  0249  34AA               	retlw	-86
  2204  024A  34AA               	retlw	-86
  2205  024B  34AA               	retlw	-86
  2206  024C  34B4               	retlw	-76
  2207  024D  3442               	retlw	66
  2208  024E  3444               	retlw	68
  2209  024F  3438               	retlw	56
  2210  0250  3400               	retlw	0
  2211  0251  3400               	retlw	0
  2212  0252  3400               	retlw	0
  2213  0253  3400               	retlw	0
  2214  0254  3400               	retlw	0
  2215  0255  3410               	retlw	16
  2216  0256  3410               	retlw	16
  2217  0257  3418               	retlw	24
  2218  0258  3428               	retlw	40
  2219  0259  3428               	retlw	40
  2220  025A  3424               	retlw	36
  2221  025B  343C               	retlw	60
  2222  025C  3444               	retlw	68
  2223  025D  3442               	retlw	66
  2224  025E  3442               	retlw	66
  2225  025F  34E7               	retlw	-25
  2226  0260  3400               	retlw	0
  2227  0261  3400               	retlw	0
  2228  0262  3400               	retlw	0
  2229  0263  3400               	retlw	0
  2230  0264  3400               	retlw	0
  2231  0265  34F8               	retlw	-8
  2232  0266  3444               	retlw	68
  2233  0267  3444               	retlw	68
  2234  0268  3444               	retlw	68
  2235  0269  3478               	retlw	120
  2236  026A  3444               	retlw	68
  2237  026B  3442               	retlw	66
  2238  026C  3442               	retlw	66
  2239  026D  3442               	retlw	66
  2240  026E  3444               	retlw	68
  2241  026F  34F8               	retlw	-8
  2242  0270  3400               	retlw	0
  2243  0271  3400               	retlw	0
  2244  0272  3400               	retlw	0
  2245  0273  3400               	retlw	0
  2246  0274  3400               	retlw	0
  2247  0275  343E               	retlw	62
  2248  0276  3442               	retlw	66
  2249  0277  3442               	retlw	66
  2250  0278  3480               	retlw	-128
  2251  0279  3480               	retlw	-128
  2252  027A  3480               	retlw	-128
  2253  027B  3480               	retlw	-128
  2254  027C  3480               	retlw	-128
  2255  027D  3442               	retlw	66
  2256  027E  3444               	retlw	68
  2257  027F  3438               	retlw	56
  2258  0280  3400               	retlw	0
  2259  0281  3400               	retlw	0
  2260  0282  3400               	retlw	0
  2261  0283  3400               	retlw	0
  2262  0284  3400               	retlw	0
  2263  0285  34F8               	retlw	-8
  2264  0286  3444               	retlw	68
  2265  0287  3442               	retlw	66
  2266  0288  3442               	retlw	66
  2267  0289  3442               	retlw	66
  2268  028A  3442               	retlw	66
  2269  028B  3442               	retlw	66
  2270  028C  3442               	retlw	66
  2271  028D  3442               	retlw	66
  2272  028E  3444               	retlw	68
  2273  028F  34F8               	retlw	-8
  2274  0290  3400               	retlw	0
  2275  0291  3400               	retlw	0
  2276  0292  3400               	retlw	0
  2277  0293  3400               	retlw	0
  2278  0294  3400               	retlw	0
  2279  0295  34FC               	retlw	-4
  2280  0296  3442               	retlw	66
  2281  0297  3448               	retlw	72
  2282  0298  3448               	retlw	72
  2283  0299  3478               	retlw	120
  2284  029A  3448               	retlw	72
  2285  029B  3448               	retlw	72
  2286  029C  3440               	retlw	64
  2287  029D  3442               	retlw	66
  2288  029E  3442               	retlw	66
  2289  029F  34FC               	retlw	-4
  2290  02A0  3400               	retlw	0
  2291  02A1  3400               	retlw	0
  2292  02A2  3400               	retlw	0
  2293  02A3  3400               	retlw	0
  2294  02A4  3400               	retlw	0
  2295  02A5  34FC               	retlw	-4
  2296  02A6  3442               	retlw	66
  2297  02A7  3448               	retlw	72
  2298  02A8  3448               	retlw	72
  2299  02A9  3478               	retlw	120
  2300  02AA  3448               	retlw	72
  2301  02AB  3448               	retlw	72
  2302  02AC  3440               	retlw	64
  2303  02AD  3440               	retlw	64
  2304  02AE  3440               	retlw	64
  2305  02AF  34E0               	retlw	-32
  2306  02B0  3400               	retlw	0
  2307  02B1  3400               	retlw	0
  2308  02B2  3400               	retlw	0
  2309  02B3  3400               	retlw	0
  2310  02B4  3400               	retlw	0
  2311  02B5  343C               	retlw	60
  2312  02B6  3444               	retlw	68
  2313  02B7  3444               	retlw	68
  2314  02B8  3480               	retlw	-128
  2315  02B9  3480               	retlw	-128
  2316  02BA  3480               	retlw	-128
  2317  02BB  348E               	retlw	-114
  2318  02BC  3484               	retlw	-124
  2319  02BD  3444               	retlw	68
  2320  02BE  3444               	retlw	68
  2321  02BF  3438               	retlw	56
  2322  02C0  3400               	retlw	0
  2323  02C1  3400               	retlw	0
  2324  02C2  3400               	retlw	0
  2325  02C3  3400               	retlw	0
  2326  02C4  3400               	retlw	0
  2327  02C5  34E7               	retlw	-25
  2328  02C6  3442               	retlw	66
  2329  02C7  3442               	retlw	66
  2330  02C8  3442               	retlw	66
  2331  02C9  3442               	retlw	66
  2332  02CA  347E               	retlw	126
  2333  02CB  3442               	retlw	66
  2334  02CC  3442               	retlw	66
  2335  02CD  3442               	retlw	66
  2336  02CE  3442               	retlw	66
  2337  02CF  34E7               	retlw	-25
  2338  02D0  3400               	retlw	0
  2339  02D1  3400               	retlw	0
  2340  02D2  3400               	retlw	0
  2341  02D3  3400               	retlw	0
  2342  02D4  3400               	retlw	0
  2343  02D5  347C               	retlw	124
  2344  02D6  3410               	retlw	16
  2345  02D7  3410               	retlw	16
  2346  02D8  3410               	retlw	16
  2347  02D9  3410               	retlw	16
  2348  02DA  3410               	retlw	16
  2349  02DB  3410               	retlw	16
  2350  02DC  3410               	retlw	16
  2351  02DD  3410               	retlw	16
  2352  02DE  3410               	retlw	16
  2353  02DF  347C               	retlw	124
  2354  02E0  3400               	retlw	0
  2355  02E1  3400               	retlw	0
  2356  02E2  3400               	retlw	0
  2357  02E3  3400               	retlw	0
  2358  02E4  3400               	retlw	0
  2359  02E5  343E               	retlw	62
  2360  02E6  3408               	retlw	8
  2361  02E7  3408               	retlw	8
  2362  02E8  3408               	retlw	8
  2363  02E9  3408               	retlw	8
  2364  02EA  3408               	retlw	8
  2365  02EB  3408               	retlw	8
  2366  02EC  3408               	retlw	8
  2367  02ED  3408               	retlw	8
  2368  02EE  3408               	retlw	8
  2369  02EF  3408               	retlw	8
  2370  02F0  3488               	retlw	-120
  2371  02F1  34F0               	retlw	-16
  2372  02F2  3400               	retlw	0
  2373  02F3  3400               	retlw	0
  2374  02F4  3400               	retlw	0
  2375  02F5  34EE               	retlw	-18
  2376  02F6  3444               	retlw	68
  2377  02F7  3448               	retlw	72
  2378  02F8  3450               	retlw	80
  2379  02F9  3470               	retlw	112
  2380  02FA  3450               	retlw	80
  2381  02FB  3448               	retlw	72
  2382  02FC  3448               	retlw	72
  2383  02FD  3444               	retlw	68
  2384  02FE  3444               	retlw	68
  2385  02FF  34EE               	retlw	-18
  2386  0300  3400               	retlw	0
  2387  0301  3400               	retlw	0
  2388  0302  3400               	retlw	0
  2389  0303  3400               	retlw	0
  2390  0304  3400               	retlw	0
  2391  0305  34E0               	retlw	-32
  2392  0306  3440               	retlw	64
  2393  0307  3440               	retlw	64
  2394  0308  3440               	retlw	64
  2395  0309  3440               	retlw	64
  2396  030A  3440               	retlw	64
  2397  030B  3440               	retlw	64
  2398  030C  3440               	retlw	64
  2399  030D  3440               	retlw	64
  2400  030E  3442               	retlw	66
  2401  030F  34FE               	retlw	-2
  2402  0310  3400               	retlw	0
  2403  0311  3400               	retlw	0
  2404  0312  3400               	retlw	0
  2405  0313  3400               	retlw	0
  2406  0314  3400               	retlw	0
  2407  0315  34EE               	retlw	-18
  2408  0316  346C               	retlw	108
  2409  0317  346C               	retlw	108
  2410  0318  346C               	retlw	108
  2411  0319  346C               	retlw	108
  2412  031A  3454               	retlw	84
  2413  031B  3454               	retlw	84
  2414  031C  3454               	retlw	84
  2415  031D  3454               	retlw	84
  2416  031E  3454               	retlw	84
  2417  031F  34D6               	retlw	-42
  2418  0320  3400               	retlw	0
  2419  0321  3400               	retlw	0
  2420  0322  3400               	retlw	0
  2421  0323  3400               	retlw	0
  2422  0324  3400               	retlw	0
  2423  0325  34C7               	retlw	-57
  2424  0326  3462               	retlw	98
  2425  0327  3462               	retlw	98
  2426  0328  3452               	retlw	82
  2427  0329  3452               	retlw	82
  2428  032A  344A               	retlw	74
  2429  032B  344A               	retlw	74
  2430  032C  344A               	retlw	74
  2431  032D  3446               	retlw	70
  2432  032E  3446               	retlw	70
  2433  032F  34E2               	retlw	-30
  2434  0330  3400               	retlw	0
  2435  0331  3400               	retlw	0
  2436  0332  3400               	retlw	0
  2437  0333  3400               	retlw	0
  2438  0334  3400               	retlw	0
  2439  0335  3438               	retlw	56
  2440  0336  3444               	retlw	68
  2441  0337  3482               	retlw	-126
  2442  0338  3482               	retlw	-126
  2443  0339  3482               	retlw	-126
  2444  033A  3482               	retlw	-126
  2445  033B  3482               	retlw	-126
  2446  033C  3482               	retlw	-126
  2447  033D  3482               	retlw	-126
  2448  033E  3444               	retlw	68
  2449  033F  3438               	retlw	56
  2450  0340  3400               	retlw	0
  2451  0341  3400               	retlw	0
  2452  0342  3400               	retlw	0
  2453  0343  3400               	retlw	0
  2454  0344  3400               	retlw	0
  2455  0345  34FC               	retlw	-4
  2456  0346  3442               	retlw	66
  2457  0347  3442               	retlw	66
  2458  0348  3442               	retlw	66
  2459  0349  3442               	retlw	66
  2460  034A  347C               	retlw	124
  2461  034B  3440               	retlw	64
  2462  034C  3440               	retlw	64
  2463  034D  3440               	retlw	64
  2464  034E  3440               	retlw	64
  2465  034F  34E0               	retlw	-32
  2466  0350  3400               	retlw	0
  2467  0351  3400               	retlw	0
  2468  0352  3400               	retlw	0
  2469  0353  3400               	retlw	0
  2470  0354  3400               	retlw	0
  2471  0355  3438               	retlw	56
  2472  0356  3444               	retlw	68
  2473  0357  3482               	retlw	-126
  2474  0358  3482               	retlw	-126
  2475  0359  3482               	retlw	-126
  2476  035A  3482               	retlw	-126
  2477  035B  3482               	retlw	-126
  2478  035C  34B2               	retlw	-78
  2479  035D  34CA               	retlw	-54
  2480  035E  344C               	retlw	76
  2481  035F  3438               	retlw	56
  2482  0360  3406               	retlw	6
  2483  0361  3400               	retlw	0
  2484  0362  3400               	retlw	0
  2485  0363  3400               	retlw	0
  2486  0364  3400               	retlw	0
  2487  0365  34FC               	retlw	-4
  2488  0366  3442               	retlw	66
  2489  0367  3442               	retlw	66
  2490  0368  3442               	retlw	66
  2491  0369  347C               	retlw	124
  2492  036A  3448               	retlw	72
  2493  036B  3448               	retlw	72
  2494  036C  3444               	retlw	68
  2495  036D  3444               	retlw	68
  2496  036E  3442               	retlw	66
  2497  036F  34E3               	retlw	-29
  2498  0370  3400               	retlw	0
  2499  0371  3400               	retlw	0
  2500  0372  3400               	retlw	0
  2501  0373  3400               	retlw	0
  2502  0374  3400               	retlw	0
  2503  0375  343E               	retlw	62
  2504  0376  3442               	retlw	66
  2505  0377  3442               	retlw	66
  2506  0378  3440               	retlw	64
  2507  0379  3420               	retlw	32
  2508  037A  3418               	retlw	24
  2509  037B  3404               	retlw	4
  2510  037C  3402               	retlw	2
  2511  037D  3442               	retlw	66
  2512  037E  3442               	retlw	66
  2513  037F  347C               	retlw	124
  2514  0380  3400               	retlw	0
  2515  0381  3400               	retlw	0
  2516  0382  3400               	retlw	0
  2517  0383  3400               	retlw	0
  2518  0384  3400               	retlw	0
  2519  0385  34FE               	retlw	-2
  2520  0386  3492               	retlw	-110
  2521  0387  3410               	retlw	16
  2522  0388  3410               	retlw	16
  2523  0389  3410               	retlw	16
  2524  038A  3410               	retlw	16
  2525  038B  3410               	retlw	16
  2526  038C  3410               	retlw	16
  2527  038D  3410               	retlw	16
  2528  038E  3410               	retlw	16
  2529  038F  3438               	retlw	56
  2530  0390  3400               	retlw	0
  2531  0391  3400               	retlw	0
  2532  0392  3400               	retlw	0
  2533  0393  3400               	retlw	0
  2534  0394  3400               	retlw	0
  2535  0395  34E7               	retlw	-25
  2536  0396  3442               	retlw	66
  2537  0397  3442               	retlw	66
  2538  0398  3442               	retlw	66
  2539  0399  3442               	retlw	66
  2540  039A  3442               	retlw	66
  2541  039B  3442               	retlw	66
  2542  039C  3442               	retlw	66
  2543  039D  3442               	retlw	66
  2544  039E  3442               	retlw	66
  2545  039F  343C               	retlw	60
  2546  03A0  3400               	retlw	0
  2547  03A1  3400               	retlw	0
  2548  03A2  3400               	retlw	0
  2549  03A3  3400               	retlw	0
  2550  03A4  3400               	retlw	0
  2551  03A5  34E7               	retlw	-25
  2552  03A6  3442               	retlw	66
  2553  03A7  3442               	retlw	66
  2554  03A8  3444               	retlw	68
  2555  03A9  3424               	retlw	36
  2556  03AA  3424               	retlw	36
  2557  03AB  3428               	retlw	40
  2558  03AC  3428               	retlw	40
  2559  03AD  3418               	retlw	24
  2560  03AE  3410               	retlw	16
  2561  03AF  3410               	retlw	16
  2562  03B0  3400               	retlw	0
  2563  03B1  3400               	retlw	0
  2564  03B2  3400               	retlw	0
  2565  03B3  3400               	retlw	0
  2566  03B4  3400               	retlw	0
  2567  03B5  34D6               	retlw	-42
  2568  03B6  3492               	retlw	-110
  2569  03B7  3492               	retlw	-110
  2570  03B8  3492               	retlw	-110
  2571  03B9  3492               	retlw	-110
  2572  03BA  34AA               	retlw	-86
  2573  03BB  34AA               	retlw	-86
  2574  03BC  346C               	retlw	108
  2575  03BD  3444               	retlw	68
  2576  03BE  3444               	retlw	68
  2577  03BF  3444               	retlw	68
  2578  03C0  3400               	retlw	0
  2579  03C1  3400               	retlw	0
  2580  03C2  3400               	retlw	0
  2581  03C3  3400               	retlw	0
  2582  03C4  3400               	retlw	0
  2583  03C5  34E7               	retlw	-25
  2584  03C6  3442               	retlw	66
  2585  03C7  3424               	retlw	36
  2586  03C8  3424               	retlw	36
  2587  03C9  3418               	retlw	24
  2588  03CA  3418               	retlw	24
  2589  03CB  3418               	retlw	24
  2590  03CC  3424               	retlw	36
  2591  03CD  3424               	retlw	36
  2592  03CE  3442               	retlw	66
  2593  03CF  34E7               	retlw	-25
  2594  03D0  3400               	retlw	0
  2595  03D1  3400               	retlw	0
  2596  03D2  3400               	retlw	0
  2597  03D3  3400               	retlw	0
  2598  03D4  3400               	retlw	0
  2599  03D5  34EE               	retlw	-18
  2600  03D6  3444               	retlw	68
  2601  03D7  3444               	retlw	68
  2602  03D8  3428               	retlw	40
  2603  03D9  3428               	retlw	40
  2604  03DA  3410               	retlw	16
  2605  03DB  3410               	retlw	16
  2606  03DC  3410               	retlw	16
  2607  03DD  3410               	retlw	16
  2608  03DE  3410               	retlw	16
  2609  03DF  3438               	retlw	56
  2610  03E0  3400               	retlw	0
  2611  03E1  3400               	retlw	0
  2612  03E2  3400               	retlw	0
  2613  03E3  3400               	retlw	0
  2614  03E4  3400               	retlw	0
  2615  03E5  347E               	retlw	126
  2616  03E6  3484               	retlw	-124
  2617  03E7  3404               	retlw	4
  2618  03E8  3408               	retlw	8
  2619  03E9  3408               	retlw	8
  2620  03EA  3410               	retlw	16
  2621  03EB  3420               	retlw	32
  2622  03EC  3420               	retlw	32
  2623  03ED  3442               	retlw	66
  2624  03EE  3442               	retlw	66
  2625  03EF  34FC               	retlw	-4
  2626  03F0  3400               	retlw	0
  2627  03F1  3400               	retlw	0
  2628  03F2  3400               	retlw	0
  2629  03F3  341E               	retlw	30
  2630  03F4  3410               	retlw	16
  2631  03F5  3410               	retlw	16
  2632  03F6  3410               	retlw	16
  2633  03F7  3410               	retlw	16
  2634  03F8  3410               	retlw	16
  2635  03F9  3410               	retlw	16
  2636  03FA  3410               	retlw	16
  2637  03FB  3410               	retlw	16
  2638  03FC  3410               	retlw	16
  2639  03FD  3410               	retlw	16
  2640  03FE  3410               	retlw	16
  2641  03FF  3410               	retlw	16
  2642  0400  341E               	retlw	30
  2643  0401  3400               	retlw	0
  2644  0402  3400               	retlw	0
  2645  0403  3400               	retlw	0
  2646  0404  3440               	retlw	64
  2647  0405  3440               	retlw	64
  2648  0406  3420               	retlw	32
  2649  0407  3420               	retlw	32
  2650  0408  3410               	retlw	16
  2651  0409  3410               	retlw	16
  2652  040A  3410               	retlw	16
  2653  040B  3408               	retlw	8
  2654  040C  3408               	retlw	8
  2655  040D  3404               	retlw	4
  2656  040E  3404               	retlw	4
  2657  040F  3404               	retlw	4
  2658  0410  3402               	retlw	2
  2659  0411  3402               	retlw	2
  2660  0412  3400               	retlw	0
  2661  0413  3478               	retlw	120
  2662  0414  3408               	retlw	8
  2663  0415  3408               	retlw	8
  2664  0416  3408               	retlw	8
  2665  0417  3408               	retlw	8
  2666  0418  3408               	retlw	8
  2667  0419  3408               	retlw	8
  2668  041A  3408               	retlw	8
  2669  041B  3408               	retlw	8
  2670  041C  3408               	retlw	8
  2671  041D  3408               	retlw	8
  2672  041E  3408               	retlw	8
  2673  041F  3408               	retlw	8
  2674  0420  3478               	retlw	120
  2675  0421  3400               	retlw	0
  2676  0422  3400               	retlw	0
  2677  0423  341C               	retlw	28
  2678  0424  3422               	retlw	34
  2679  0425  3400               	retlw	0
  2680  0426  3400               	retlw	0
  2681  0427  3400               	retlw	0
  2682  0428  3400               	retlw	0
  2683  0429  3400               	retlw	0
  2684  042A  3400               	retlw	0
  2685  042B  3400               	retlw	0
  2686  042C  3400               	retlw	0
  2687  042D  3400               	retlw	0
  2688  042E  3400               	retlw	0
  2689  042F  3400               	retlw	0
  2690  0430  3400               	retlw	0
  2691  0431  3400               	retlw	0
  2692  0432  3400               	retlw	0
  2693  0433  3400               	retlw	0
  2694  0434  3400               	retlw	0
  2695  0435  3400               	retlw	0
  2696  0436  3400               	retlw	0
  2697  0437  3400               	retlw	0
  2698  0438  3400               	retlw	0
  2699  0439  3400               	retlw	0
  2700  043A  3400               	retlw	0
  2701  043B  3400               	retlw	0
  2702  043C  3400               	retlw	0
  2703  043D  3400               	retlw	0
  2704  043E  3400               	retlw	0
  2705  043F  3400               	retlw	0
  2706  0440  3400               	retlw	0
  2707  0441  34FF               	retlw	-1
  2708  0442  3400               	retlw	0
  2709  0443  3460               	retlw	96
  2710  0444  3410               	retlw	16
  2711  0445  3400               	retlw	0
  2712  0446  3400               	retlw	0
  2713  0447  3400               	retlw	0
  2714  0448  3400               	retlw	0
  2715  0449  3400               	retlw	0
  2716  044A  3400               	retlw	0
  2717  044B  3400               	retlw	0
  2718  044C  3400               	retlw	0
  2719  044D  3400               	retlw	0
  2720  044E  3400               	retlw	0
  2721  044F  3400               	retlw	0
  2722  0450  3400               	retlw	0
  2723  0451  3400               	retlw	0
  2724  0452  3400               	retlw	0
  2725  0453  3400               	retlw	0
  2726  0454  3400               	retlw	0
  2727  0455  3400               	retlw	0
  2728  0456  3400               	retlw	0
  2729  0457  3400               	retlw	0
  2730  0458  3400               	retlw	0
  2731  0459  343C               	retlw	60
  2732  045A  3442               	retlw	66
  2733  045B  341E               	retlw	30
  2734  045C  3422               	retlw	34
  2735  045D  3442               	retlw	66
  2736  045E  3442               	retlw	66
  2737  045F  343F               	retlw	63
  2738  0460  3400               	retlw	0
  2739  0461  3400               	retlw	0
  2740  0462  3400               	retlw	0
  2741  0463  3400               	retlw	0
  2742  0464  3400               	retlw	0
  2743  0465  34C0               	retlw	-64
  2744  0466  3440               	retlw	64
  2745  0467  3440               	retlw	64
  2746  0468  3440               	retlw	64
  2747  0469  3458               	retlw	88
  2748  046A  3464               	retlw	100
  2749  046B  3442               	retlw	66
  2750  046C  3442               	retlw	66
  2751  046D  3442               	retlw	66
  2752  046E  3464               	retlw	100
  2753  046F  3458               	retlw	88
  2754  0470  3400               	retlw	0
  2755  0471  3400               	retlw	0
  2756  0472  3400               	retlw	0
  2757  0473  3400               	retlw	0
  2758  0474  3400               	retlw	0
  2759  0475  3400               	retlw	0
  2760  0476  3400               	retlw	0
  2761  0477  3400               	retlw	0
  2762  0478  3400               	retlw	0
  2763  0479  341C               	retlw	28
  2764  047A  3422               	retlw	34
  2765  047B  3440               	retlw	64
  2766  047C  3440               	retlw	64
  2767  047D  3440               	retlw	64
  2768  047E  3422               	retlw	34
  2769  047F  341C               	retlw	28
  2770  0480  3400               	retlw	0
  2771  0481  3400               	retlw	0
  2772  0482  3400               	retlw	0
  2773  0483  3400               	retlw	0
  2774  0484  3400               	retlw	0
  2775  0485  3406               	retlw	6
  2776  0486  3402               	retlw	2
  2777  0487  3402               	retlw	2
  2778  0488  3402               	retlw	2
  2779  0489  341E               	retlw	30
  2780  048A  3422               	retlw	34
  2781  048B  3442               	retlw	66
  2782  048C  3442               	retlw	66
  2783  048D  3442               	retlw	66
  2784  048E  3426               	retlw	38
  2785  048F  341B               	retlw	27
  2786  0490  3400               	retlw	0
  2787  0491  3400               	retlw	0
  2788  0492  3400               	retlw	0
  2789  0493  3400               	retlw	0
  2790  0494  3400               	retlw	0
  2791  0495  3400               	retlw	0
  2792  0496  3400               	retlw	0
  2793  0497  3400               	retlw	0
  2794  0498  3400               	retlw	0
  2795  0499  343C               	retlw	60
  2796  049A  3442               	retlw	66
  2797  049B  347E               	retlw	126
  2798  049C  3440               	retlw	64
  2799  049D  3440               	retlw	64
  2800  049E  3442               	retlw	66
  2801  049F  343C               	retlw	60
  2802  04A0  3400               	retlw	0
  2803  04A1  3400               	retlw	0
  2804  04A2  3400               	retlw	0
  2805  04A3  3400               	retlw	0
  2806  04A4  3400               	retlw	0
  2807  04A5  340F               	retlw	15
  2808  04A6  3411               	retlw	17
  2809  04A7  3410               	retlw	16
  2810  04A8  3410               	retlw	16
  2811  04A9  347E               	retlw	126
  2812  04AA  3410               	retlw	16
  2813  04AB  3410               	retlw	16
  2814  04AC  3410               	retlw	16
  2815  04AD  3410               	retlw	16
  2816  04AE  3410               	retlw	16
  2817  04AF  347C               	retlw	124
  2818  04B0  3400               	retlw	0
  2819  04B1  3400               	retlw	0
  2820  04B2  3400               	retlw	0
  2821  04B3  3400               	retlw	0
  2822  04B4  3400               	retlw	0
  2823  04B5  3400               	retlw	0
  2824  04B6  3400               	retlw	0
  2825  04B7  3400               	retlw	0
  2826  04B8  3400               	retlw	0
  2827  04B9  343E               	retlw	62
  2828  04BA  3444               	retlw	68
  2829  04BB  3444               	retlw	68
  2830  04BC  3438               	retlw	56
  2831  04BD  3440               	retlw	64
  2832  04BE  343C               	retlw	60
  2833  04BF  3442               	retlw	66
  2834  04C0  3442               	retlw	66
  2835  04C1  343C               	retlw	60
  2836  04C2  3400               	retlw	0
  2837  04C3  3400               	retlw	0
  2838  04C4  3400               	retlw	0
  2839  04C5  34C0               	retlw	-64
  2840  04C6  3440               	retlw	64
  2841  04C7  3440               	retlw	64
  2842  04C8  3440               	retlw	64
  2843  04C9  345C               	retlw	92
  2844  04CA  3462               	retlw	98
  2845  04CB  3442               	retlw	66
  2846  04CC  3442               	retlw	66
  2847  04CD  3442               	retlw	66
  2848  04CE  3442               	retlw	66
  2849  04CF  34E7               	retlw	-25
  2850  04D0  3400               	retlw	0
  2851  04D1  3400               	retlw	0
  2852  04D2  3400               	retlw	0
  2853  04D3  3400               	retlw	0
  2854  04D4  3400               	retlw	0
  2855  04D5  3430               	retlw	48
  2856  04D6  3430               	retlw	48
  2857  04D7  3400               	retlw	0
  2858  04D8  3400               	retlw	0
  2859  04D9  3470               	retlw	112
  2860  04DA  3410               	retlw	16
  2861  04DB  3410               	retlw	16
  2862  04DC  3410               	retlw	16
  2863  04DD  3410               	retlw	16
  2864  04DE  3410               	retlw	16
  2865  04DF  347C               	retlw	124
  2866  04E0  3400               	retlw	0
  2867  04E1  3400               	retlw	0
  2868  04E2  3400               	retlw	0
  2869  04E3  3400               	retlw	0
  2870  04E4  3400               	retlw	0
  2871  04E5  340C               	retlw	12
  2872  04E6  340C               	retlw	12
  2873  04E7  3400               	retlw	0
  2874  04E8  3400               	retlw	0
  2875  04E9  341C               	retlw	28
  2876  04EA  3404               	retlw	4
  2877  04EB  3404               	retlw	4
  2878  04EC  3404               	retlw	4
  2879  04ED  3404               	retlw	4
  2880  04EE  3404               	retlw	4
  2881  04EF  3404               	retlw	4
  2882  04F0  3444               	retlw	68
  2883  04F1  3478               	retlw	120
  2884  04F2  3400               	retlw	0
  2885  04F3  3400               	retlw	0
  2886  04F4  3400               	retlw	0
  2887  04F5  34C0               	retlw	-64
  2888  04F6  3440               	retlw	64
  2889  04F7  3440               	retlw	64
  2890  04F8  3440               	retlw	64
  2891  04F9  344E               	retlw	78
  2892  04FA  3448               	retlw	72
  2893  04FB  3450               	retlw	80
  2894  04FC  3468               	retlw	104
  2895  04FD  3448               	retlw	72
  2896  04FE  3444               	retlw	68
  2897  04FF  34EE               	retlw	-18
  2898  0500  3400               	retlw	0
  2899  0501  3400               	retlw	0
  2900  0502  3400               	retlw	0
  2901  0503  3400               	retlw	0
  2902  0504  3400               	retlw	0
  2903  0505  3470               	retlw	112
  2904  0506  3410               	retlw	16
  2905  0507  3410               	retlw	16
  2906  0508  3410               	retlw	16
  2907  0509  3410               	retlw	16
  2908  050A  3410               	retlw	16
  2909  050B  3410               	retlw	16
  2910  050C  3410               	retlw	16
  2911  050D  3410               	retlw	16
  2912  050E  3410               	retlw	16
  2913  050F  347C               	retlw	124
  2914  0510  3400               	retlw	0
  2915  0511  3400               	retlw	0
  2916  0512  3400               	retlw	0
  2917  0513  3400               	retlw	0
  2918  0514  3400               	retlw	0
  2919  0515  3400               	retlw	0
  2920  0516  3400               	retlw	0
  2921  0517  3400               	retlw	0
  2922  0518  3400               	retlw	0
  2923  0519  34FE               	retlw	-2
  2924  051A  3449               	retlw	73
  2925  051B  3449               	retlw	73
  2926  051C  3449               	retlw	73
  2927  051D  3449               	retlw	73
  2928  051E  3449               	retlw	73
  2929  051F  34ED               	retlw	-19
  2930  0520  3400               	retlw	0
  2931  0521  3400               	retlw	0
  2932  0522  3400               	retlw	0
  2933  0523  3400               	retlw	0
  2934  0524  3400               	retlw	0
  2935  0525  3400               	retlw	0
  2936  0526  3400               	retlw	0
  2937  0527  3400               	retlw	0
  2938  0528  3400               	retlw	0
  2939  0529  34DC               	retlw	-36
  2940  052A  3462               	retlw	98
  2941  052B  3442               	retlw	66
  2942  052C  3442               	retlw	66
  2943  052D  3442               	retlw	66
  2944  052E  3442               	retlw	66
  2945  052F  34E7               	retlw	-25
  2946  0530  3400               	retlw	0
  2947  0531  3400               	retlw	0
  2948  0532  3400               	retlw	0
  2949  0533  3400               	retlw	0
  2950  0534  3400               	retlw	0
  2951  0535  3400               	retlw	0
  2952  0536  3400               	retlw	0
  2953  0537  3400               	retlw	0
  2954  0538  3400               	retlw	0
  2955  0539  343C               	retlw	60
  2956  053A  3442               	retlw	66
  2957  053B  3442               	retlw	66
  2958  053C  3442               	retlw	66
  2959  053D  3442               	retlw	66
  2960  053E  3442               	retlw	66
  2961  053F  343C               	retlw	60
  2962  0540  3400               	retlw	0
  2963  0541  3400               	retlw	0
  2964  0542  3400               	retlw	0
  2965  0543  3400               	retlw	0
  2966  0544  3400               	retlw	0
  2967  0545  3400               	retlw	0
  2968  0546  3400               	retlw	0
  2969  0547  3400               	retlw	0
  2970  0548  3400               	retlw	0
  2971  0549  34D8               	retlw	-40
  2972  054A  3464               	retlw	100
  2973  054B  3442               	retlw	66
  2974  054C  3442               	retlw	66
  2975  054D  3442               	retlw	66
  2976  054E  3444               	retlw	68
  2977  054F  3478               	retlw	120
  2978  0550  3440               	retlw	64
  2979  0551  34E0               	retlw	-32
  2980  0552  3400               	retlw	0
  2981  0553  3400               	retlw	0
  2982  0554  3400               	retlw	0
  2983  0555  3400               	retlw	0
  2984  0556  3400               	retlw	0
  2985  0557  3400               	retlw	0
  2986  0558  3400               	retlw	0
  2987  0559  341E               	retlw	30
  2988  055A  3422               	retlw	34
  2989  055B  3442               	retlw	66
  2990  055C  3442               	retlw	66
  2991  055D  3442               	retlw	66
  2992  055E  3422               	retlw	34
  2993  055F  341E               	retlw	30
  2994  0560  3402               	retlw	2
  2995  0561  3407               	retlw	7
  2996  0562  3400               	retlw	0
  2997  0563  3400               	retlw	0
  2998  0564  3400               	retlw	0
  2999  0565  3400               	retlw	0
  3000  0566  3400               	retlw	0
  3001  0567  3400               	retlw	0
  3002  0568  3400               	retlw	0
  3003  0569  34EE               	retlw	-18
  3004  056A  3432               	retlw	50
  3005  056B  3420               	retlw	32
  3006  056C  3420               	retlw	32
  3007  056D  3420               	retlw	32
  3008  056E  3420               	retlw	32
  3009  056F  34F8               	retlw	-8
  3010  0570  3400               	retlw	0
  3011  0571  3400               	retlw	0
  3012  0572  3400               	retlw	0
  3013  0573  3400               	retlw	0
  3014  0574  3400               	retlw	0
  3015  0575  3400               	retlw	0
  3016  0576  3400               	retlw	0
  3017  0577  3400               	retlw	0
  3018  0578  3400               	retlw	0
  3019  0579  343E               	retlw	62
  3020  057A  3442               	retlw	66
  3021  057B  3440               	retlw	64
  3022  057C  343C               	retlw	60
  3023  057D  3402               	retlw	2
  3024  057E  3442               	retlw	66
  3025  057F  347C               	retlw	124
  3026  0580  3400               	retlw	0
  3027  0581  3400               	retlw	0
  3028  0582  3400               	retlw	0
  3029  0583  3400               	retlw	0
  3030  0584  3400               	retlw	0
  3031  0585  3400               	retlw	0
  3032  0586  3400               	retlw	0
  3033  0587  3410               	retlw	16
  3034  0588  3410               	retlw	16
  3035  0589  347C               	retlw	124
  3036  058A  3410               	retlw	16
  3037  058B  3410               	retlw	16
  3038  058C  3410               	retlw	16
  3039  058D  3410               	retlw	16
  3040  058E  3410               	retlw	16
  3041  058F  340C               	retlw	12
  3042  0590  3400               	retlw	0
  3043  0591  3400               	retlw	0
  3044  0592  3400               	retlw	0
  3045  0593  3400               	retlw	0
  3046  0594  3400               	retlw	0
  3047  0595  3400               	retlw	0
  3048  0596  3400               	retlw	0
  3049  0597  3400               	retlw	0
  3050  0598  3400               	retlw	0
  3051  0599  34C6               	retlw	-58
  3052  059A  3442               	retlw	66
  3053  059B  3442               	retlw	66
  3054  059C  3442               	retlw	66
  3055  059D  3442               	retlw	66
  3056  059E  3446               	retlw	70
  3057  059F  343B               	retlw	59
  3058  05A0  3400               	retlw	0
  3059  05A1  3400               	retlw	0
  3060  05A2  3400               	retlw	0
  3061  05A3  3400               	retlw	0
  3062  05A4  3400               	retlw	0
  3063  05A5  3400               	retlw	0
  3064  05A6  3400               	retlw	0
  3065  05A7  3400               	retlw	0
  3066  05A8  3400               	retlw	0
  3067  05A9  34E7               	retlw	-25
  3068  05AA  3442               	retlw	66
  3069  05AB  3424               	retlw	36
  3070  05AC  3424               	retlw	36
  3071  05AD  3428               	retlw	40
  3072  05AE  3410               	retlw	16
  3073  05AF  3410               	retlw	16
  3074  05B0  3400               	retlw	0
  3075  05B1  3400               	retlw	0
  3076  05B2  3400               	retlw	0
  3077  05B3  3400               	retlw	0
  3078  05B4  3400               	retlw	0
  3079  05B5  3400               	retlw	0
  3080  05B6  3400               	retlw	0
  3081  05B7  3400               	retlw	0
  3082  05B8  3400               	retlw	0
  3083  05B9  34D7               	retlw	-41
  3084  05BA  3492               	retlw	-110
  3085  05BB  3492               	retlw	-110
  3086  05BC  34AA               	retlw	-86
  3087  05BD  34AA               	retlw	-86
  3088  05BE  3444               	retlw	68
  3089  05BF  3444               	retlw	68
  3090  05C0  3400               	retlw	0
  3091  05C1  3400               	retlw	0
  3092  05C2  3400               	retlw	0
  3093  05C3  3400               	retlw	0
  3094  05C4  3400               	retlw	0
  3095  05C5  3400               	retlw	0
  3096  05C6  3400               	retlw	0
  3097  05C7  3400               	retlw	0
  3098  05C8  3400               	retlw	0
  3099  05C9  346E               	retlw	110
  3100  05CA  3424               	retlw	36
  3101  05CB  3418               	retlw	24
  3102  05CC  3418               	retlw	24
  3103  05CD  3418               	retlw	24
  3104  05CE  3424               	retlw	36
  3105  05CF  3476               	retlw	118
  3106  05D0  3400               	retlw	0
  3107  05D1  3400               	retlw	0
  3108  05D2  3400               	retlw	0
  3109  05D3  3400               	retlw	0
  3110  05D4  3400               	retlw	0
  3111  05D5  3400               	retlw	0
  3112  05D6  3400               	retlw	0
  3113  05D7  3400               	retlw	0
  3114  05D8  3400               	retlw	0
  3115  05D9  34E7               	retlw	-25
  3116  05DA  3442               	retlw	66
  3117  05DB  3424               	retlw	36
  3118  05DC  3424               	retlw	36
  3119  05DD  3428               	retlw	40
  3120  05DE  3418               	retlw	24
  3121  05DF  3410               	retlw	16
  3122  05E0  3410               	retlw	16
  3123  05E1  34E0               	retlw	-32
  3124  05E2  3400               	retlw	0
  3125  05E3  3400               	retlw	0
  3126  05E4  3400               	retlw	0
  3127  05E5  3400               	retlw	0
  3128  05E6  3400               	retlw	0
  3129  05E7  3400               	retlw	0
  3130  05E8  3400               	retlw	0
  3131  05E9  347E               	retlw	126
  3132  05EA  3444               	retlw	68
  3133  05EB  3408               	retlw	8
  3134  05EC  3410               	retlw	16
  3135  05ED  3410               	retlw	16
  3136  05EE  3422               	retlw	34
  3137  05EF  347E               	retlw	126
  3138  05F0  3400               	retlw	0
  3139  05F1  3400               	retlw	0
  3140  05F2  3400               	retlw	0
  3141  05F3  3403               	retlw	3
  3142  05F4  3404               	retlw	4
  3143  05F5  3404               	retlw	4
  3144  05F6  3404               	retlw	4
  3145  05F7  3404               	retlw	4
  3146  05F8  3404               	retlw	4
  3147  05F9  3408               	retlw	8
  3148  05FA  3404               	retlw	4
  3149  05FB  3404               	retlw	4
  3150  05FC  3404               	retlw	4
  3151  05FD  3404               	retlw	4
  3152  05FE  3404               	retlw	4
  3153  05FF  3404               	retlw	4
  3154  0600  3403               	retlw	3
  3155  0601  3400               	retlw	0
  3156  0602  3408               	retlw	8
  3157  0603  3408               	retlw	8
  3158  0604  3408               	retlw	8
  3159  0605  3408               	retlw	8
  3160  0606  3408               	retlw	8
  3161  0607  3408               	retlw	8
  3162  0608  3408               	retlw	8
  3163  0609  3408               	retlw	8
  3164  060A  3408               	retlw	8
  3165  060B  3408               	retlw	8
  3166  060C  3408               	retlw	8
  3167  060D  3408               	retlw	8
  3168  060E  3408               	retlw	8
  3169  060F  3408               	retlw	8
  3170  0610  3408               	retlw	8
  3171  0611  3408               	retlw	8
  3172  0612  3400               	retlw	0
  3173  0613  3460               	retlw	96
  3174  0614  3410               	retlw	16
  3175  0615  3410               	retlw	16
  3176  0616  3410               	retlw	16
  3177  0617  3410               	retlw	16
  3178  0618  3410               	retlw	16
  3179  0619  3408               	retlw	8
  3180  061A  3410               	retlw	16
  3181  061B  3410               	retlw	16
  3182  061C  3410               	retlw	16
  3183  061D  3410               	retlw	16
  3184  061E  3410               	retlw	16
  3185  061F  3410               	retlw	16
  3186  0620  3460               	retlw	96
  3187  0621  3400               	retlw	0
  3188  0622  3430               	retlw	48
  3189  0623  344C               	retlw	76
  3190  0624  3443               	retlw	67
  3191  0625  3400               	retlw	0
  3192  0626  3400               	retlw	0
  3193  0627  3400               	retlw	0
  3194  0628  3400               	retlw	0
  3195  0629  3400               	retlw	0
  3196  062A  3400               	retlw	0
  3197  062B  3400               	retlw	0
  3198  062C  3400               	retlw	0
  3199  062D  3400               	retlw	0
  3200  062E  3400               	retlw	0
  3201  062F  3400               	retlw	0
  3202  0630  3400               	retlw	0
  3203  0631  3400               	retlw	0
  3204  0632  3400               	retlw	0
  3205  0633  3400               	retlw	0
  3206  0634  3400               	retlw	0
  3207  0635  347E               	retlw	126
  3208  0636  347E               	retlw	126
  3209  0637  347E               	retlw	126
  3210  0638  347E               	retlw	126
  3211  0639  347E               	retlw	126
  3212  063A  347E               	retlw	126
  3213  063B  347E               	retlw	126
  3214  063C  347E               	retlw	126
  3215  063D  347E               	retlw	126
  3216  063E  3400               	retlw	0
  3217  063F  3400               	retlw	0
  3218  0640  3400               	retlw	0
  3219  0641  3400               	retlw	0
  3220                           ;       param _x assigned to ?_LCD_PutChar+0
  3221  0000                     _LCD_PutChar$x	set	?_LCD_PutChar
  3222                           ;       param _y assigned to ?_LCD_PutChar+2
  3223  0000                     _LCD_PutChar$y	set	?_LCD_PutChar+2
  3224                           ;       param _c assigned to ?_LCD_PutChar+4
  3225  0000                     _LCD_PutChar$c	set	?_LCD_PutChar+4
  3226                           ;       param _fColor assigned to ?_LCD_PutChar
      +                          +5
  3227  0000                     _LCD_PutChar$fColor	set	?_LCD_PutChar+5
  3228                           ;       param _bColor assigned to ?_LCD_PutChar
      +                          +7
  3229  0000                     _LCD_PutChar$bColor	set	?_LCD_PutChar+7
  3230  0642                     _ch16
  3231  0642  34B1               	retlw	-79
  3232  0643  34B1               	retlw	-79
  3233  0644  3404               	retlw	4
  3234  0645  3440               	retlw	64
  3235  0646  3404               	retlw	4
  3236  0647  3440               	retlw	64
  3237  0648  3404               	retlw	4
  3238  0649  3440               	retlw	64
  3239  064A  3404               	retlw	4
  3240  064B  3444               	retlw	68
  3241  064C  3404               	retlw	4
  3242  064D  344E               	retlw	78
  3243  064E  347C               	retlw	124
  3244  064F  3458               	retlw	88
  3245  0650  3404               	retlw	4
  3246  0651  3460               	retlw	96
  3247  0652  3404               	retlw	4
  3248  0653  3440               	retlw	64
  3249  0654  3404               	retlw	4
  3250  0655  3440               	retlw	64
  3251  0656  3404               	retlw	4
  3252  0657  3440               	retlw	64
  3253  0658  340C               	retlw	12
  3254  0659  3440               	retlw	64
  3255  065A  3434               	retlw	52
  3256  065B  3442               	retlw	66
  3257  065C  34E4               	retlw	-28
  3258  065D  3442               	retlw	66
  3259  065E  3444               	retlw	68
  3260  065F  3442               	retlw	66
  3261  0660  3404               	retlw	4
  3262  0661  343E               	retlw	62
  3263  0662  3400               	retlw	0
  3264  0663  3400               	retlw	0
  3265  0664  34B7               	retlw	-73
  3266  0665  34BD               	retlw	-67
  3267  0666  3402               	retlw	2
  3268  0667  3400               	retlw	0
  3269  0668  3401               	retlw	1
  3270  0669  3400               	retlw	0
  3271  066A  3400               	retlw	0
  3272  066B  3480               	retlw	-128
  3273  066C  34FF               	retlw	-1
  3274  066D  34FE               	retlw	-2
  3275  066E  3402               	retlw	2
  3276  066F  3400               	retlw	0
  3277  0670  3402               	retlw	2
  3278  0671  3400               	retlw	0
  3279  0672  3403               	retlw	3
  3280  0673  34F0               	retlw	-16
  3281  0674  3402               	retlw	2
  3282  0675  3410               	retlw	16
  3283  0676  3404               	retlw	4
  3284  0677  3410               	retlw	16
  3285  0678  3404               	retlw	4
  3286  0679  3410               	retlw	16
  3287  067A  3408               	retlw	8
  3288  067B  3410               	retlw	16
  3289  067C  3408               	retlw	8
  3290  067D  3410               	retlw	16
  3291  067E  3410               	retlw	16
  3292  067F  3410               	retlw	16
  3293  0680  3420               	retlw	32
  3294  0681  3490               	retlw	-112
  3295  0682  34C0               	retlw	-64
  3296  0683  3460               	retlw	96
  3297  0684  3400               	retlw	0
  3298  0685  3400               	retlw	0
  3299  0686  34C0               	retlw	-64
  3300  0687  34B6               	retlw	-74
  3301  0688  3408               	retlw	8
  3302  0689  3440               	retlw	64
  3303  068A  3408               	retlw	8
  3304  068B  3440               	retlw	64
  3305  068C  34FF               	retlw	-1
  3306  068D  34FE               	retlw	-2
  3307  068E  3408               	retlw	8
  3308  068F  3440               	retlw	64
  3309  0690  3404               	retlw	4
  3310  0691  3480               	retlw	-128
  3311  0692  3424               	retlw	36
  3312  0693  34FC               	retlw	-4
  3313  0694  3424               	retlw	36
  3314  0695  34A0               	retlw	-96
  3315  0696  3425               	retlw	37
  3316  0697  3410               	retlw	16
  3317  0698  3426               	retlw	38
  3318  0699  3410               	retlw	16
  3319  069A  3404               	retlw	4
  3320  069B  3400               	retlw	0
  3321  069C  341F               	retlw	31
  3322  069D  34F0               	retlw	-16
  3323  069E  3412               	retlw	18
  3324  069F  3490               	retlw	-112
  3325  06A0  3412               	retlw	18
  3326  06A1  3490               	retlw	-112
  3327  06A2  3412               	retlw	18
  3328  06A3  3490               	retlw	-112
  3329  06A4  34FF               	retlw	-1
  3330  06A5  34FE               	retlw	-2
  3331  06A6  3400               	retlw	0
  3332  06A7  3400               	retlw	0
  3333  06A8  34D0               	retlw	-48
  3334  06A9  34BE               	retlw	-66
  3335  06AA  3404               	retlw	4
  3336  06AB  3420               	retlw	32
  3337  06AC  3404               	retlw	4
  3338  06AD  3420               	retlw	32
  3339  06AE  347F               	retlw	127
  3340  06AF  34FE               	retlw	-2
  3341  06B0  3404               	retlw	4
  3342  06B1  3420               	retlw	32
  3343  06B2  3404               	retlw	4
  3344  06B3  3420               	retlw	32
  3345  06B4  3402               	retlw	2
  3346  06B5  3400               	retlw	0
  3347  06B6  3401               	retlw	1
  3348  06B7  3400               	retlw	0
  3349  06B8  3409               	retlw	9
  3350  06B9  3490               	retlw	-112
  3351  06BA  3408               	retlw	8
  3352  06BB  3488               	retlw	-120
  3353  06BC  3448               	retlw	72
  3354  06BD  3484               	retlw	-124
  3355  06BE  3448               	retlw	72
  3356  06BF  3406               	retlw	6
  3357  06C0  3448               	retlw	72
  3358  06C1  3414               	retlw	20
  3359  06C2  3488               	retlw	-120
  3360  06C3  3410               	retlw	16
  3361  06C4  3408               	retlw	8
  3362  06C5  3418               	retlw	24
  3363  06C6  3407               	retlw	7
  3364  06C7  34F0               	retlw	-16
  3365  06C8  3400               	retlw	0
  3366  06C9  3400               	retlw	0
  3367  06CA  34BF               	retlw	-65
  3368  06CB  34C6               	retlw	-58
  3369  06CC  3406               	retlw	6
  3370  06CD  3408               	retlw	8
  3371  06CE  3478               	retlw	120
  3372  06CF  3488               	retlw	-120
  3373  06D0  3408               	retlw	8
  3374  06D1  3448               	retlw	72
  3375  06D2  3408               	retlw	8
  3376  06D3  3448               	retlw	72
  3377  06D4  34FE               	retlw	-2
  3378  06D5  3408               	retlw	8
  3379  06D6  3418               	retlw	24
  3380  06D7  3488               	retlw	-120
  3381  06D8  341C               	retlw	28
  3382  06D9  3448               	retlw	72
  3383  06DA  342A               	retlw	42
  3384  06DB  3448               	retlw	72
  3385  06DC  3428               	retlw	40
  3386  06DD  340E               	retlw	14
  3387  06DE  3448               	retlw	72
  3388  06DF  3478               	retlw	120
  3389  06E0  348B               	retlw	-117
  3390  06E1  3488               	retlw	-120
  3391  06E2  3408               	retlw	8
  3392  06E3  3408               	retlw	8
  3393  06E4  3408               	retlw	8
  3394  06E5  3408               	retlw	8
  3395  06E6  3408               	retlw	8
  3396  06E7  3408               	retlw	8
  3397  06E8  3408               	retlw	8
  3398  06E9  3408               	retlw	8
  3399  06EA  3408               	retlw	8
  3400  06EB  3408               	retlw	8
  3401  06EC  34BC               	retlw	-68
  3402  06ED  34BC               	retlw	-68
  3403  06EE  3410               	retlw	16
  3404  06EF  3420               	retlw	32
  3405  06F0  3410               	retlw	16
  3406  06F1  3420               	retlw	32
  3407  06F2  3410               	retlw	16
  3408  06F3  3420               	retlw	32
  3409  06F4  34FD               	retlw	-3
  3410  06F5  34FE               	retlw	-2
  3411  06F6  3410               	retlw	16
  3412  06F7  3420               	retlw	32
  3413  06F8  3414               	retlw	20
  3414  06F9  3420               	retlw	32
  3415  06FA  3419               	retlw	25
  3416  06FB  34FC               	retlw	-4
  3417  06FC  3431               	retlw	49
  3418  06FD  3408               	retlw	8
  3419  06FE  34D0               	retlw	-48
  3420  06FF  3488               	retlw	-120
  3421  0700  3410               	retlw	16
  3422  0701  3490               	retlw	-112
  3423  0702  3410               	retlw	16
  3424  0703  3460               	retlw	96
  3425  0704  3410               	retlw	16
  3426  0705  3460               	retlw	96
  3427  0706  3410               	retlw	16
  3428  0707  3490               	retlw	-112
  3429  0708  3411               	retlw	17
  3430  0709  340E               	retlw	14
  3431  070A  3456               	retlw	86
  3432  070B  3404               	retlw	4
  3433  070C  3420               	retlw	32
  3434  070D  3400               	retlw	0
  3435  070E  34BF               	retlw	-65
  3436  070F  34AA               	retlw	-86
  3437  0710  3400               	retlw	0
  3438  0711  3400               	retlw	0
  3439  0712  347F               	retlw	127
  3440  0713  34FE               	retlw	-2
  3441  0714  3404               	retlw	4
  3442  0715  3420               	retlw	32
  3443  0716  3404               	retlw	4
  3444  0717  3420               	retlw	32
  3445  0718  3404               	retlw	4
  3446  0719  3420               	retlw	32
  3447  071A  3404               	retlw	4
  3448  071B  3420               	retlw	32
  3449  071C  34FF               	retlw	-1
  3450  071D  34FE               	retlw	-2
  3451  071E  3404               	retlw	4
  3452  071F  3420               	retlw	32
  3453  0720  3404               	retlw	4
  3454  0721  3420               	retlw	32
  3455  0722  3404               	retlw	4
  3456  0723  3420               	retlw	32
  3457  0724  3408               	retlw	8
  3458  0725  3420               	retlw	32
  3459  0726  3408               	retlw	8
  3460  0727  3420               	retlw	32
  3461  0728  3410               	retlw	16
  3462  0729  3420               	retlw	32
  3463  072A  3420               	retlw	32
  3464  072B  3420               	retlw	32
  3465  072C  3440               	retlw	64
  3466  072D  3420               	retlw	32
  3467  072E  3400               	retlw	0
  3468  072F  3400               	retlw	0
  3469  0730  34B7               	retlw	-73
  3470  0731  34A2               	retlw	-94
  3471  0732  3402               	retlw	2
  3472  0733  3400               	retlw	0
  3473  0734  3422               	retlw	34
  3474  0735  3440               	retlw	64
  3475  0736  3422               	retlw	34
  3476  0737  3430               	retlw	48
  3477  0738  3422               	retlw	34
  3478  0739  3410               	retlw	16
  3479  073A  347F               	retlw	127
  3480  073B  34FE               	retlw	-2
  3481  073C  3424               	retlw	36
  3482  073D  3400               	retlw	0
  3483  073E  3404               	retlw	4
  3484  073F  3400               	retlw	0
  3485  0740  3407               	retlw	7
  3486  0741  34E0               	retlw	-32
  3487  0742  340C               	retlw	12
  3488  0743  3420               	retlw	32
  3489  0744  340A               	retlw	10
  3490  0745  3420               	retlw	32
  3491  0746  340A               	retlw	10
  3492  0747  3420               	retlw	32
  3493  0748  3411               	retlw	17
  3494  0749  3440               	retlw	64
  3495  074A  3420               	retlw	32
  3496  074B  3480               	retlw	-128
  3497  074C  3441               	retlw	65
  3498  074D  3460               	retlw	96
  3499  074E  3486               	retlw	-122
  3500  074F  341C               	retlw	28
  3501  0750  3418               	retlw	24
  3502  0751  3408               	retlw	8
  3503  0752  34D3               	retlw	-45
  3504  0753  34D0               	retlw	-48
  3505  0754  3401               	retlw	1
  3506  0755  3400               	retlw	0
  3507  0756  3401               	retlw	1
  3508  0757  3400               	retlw	0
  3509  0758  347F               	retlw	127
  3510  0759  34FE               	retlw	-2
  3511  075A  3402               	retlw	2
  3512  075B  3400               	retlw	0
  3513  075C  3404               	retlw	4
  3514  075D  3400               	retlw	0
  3515  075E  340F               	retlw	15
  3516  075F  34F0               	retlw	-16
  3517  0760  3418               	retlw	24
  3518  0761  3410               	retlw	16
  3519  0762  3428               	retlw	40
  3520  0763  3410               	retlw	16
  3521  0764  344F               	retlw	79
  3522  0765  34F0               	retlw	-16
  3523  0766  3488               	retlw	-120
  3524  0767  3410               	retlw	16
  3525  0768  3408               	retlw	8
  3526  0769  3410               	retlw	16
  3527  076A  340F               	retlw	15
  3528  076B  34F0               	retlw	-16
  3529  076C  3408               	retlw	8
  3530  076D  3410               	retlw	16
  3531  076E  3408               	retlw	8
  3532  076F  3490               	retlw	-112
  3533  0770  3408               	retlw	8
  3534  0771  3470               	retlw	112
  3535  0772  3408               	retlw	8
  3536  0773  3420               	retlw	32
  3537  0774  34CF               	retlw	-49
  3538  0775  34DE               	retlw	-34
  3539  0776  3400               	retlw	0
  3540  0777  3400               	retlw	0
  3541  0778  34FB               	retlw	-5
  3542  0779  34F8               	retlw	-8
  3543  077A  3492               	retlw	-110
  3544  077B  3408               	retlw	8
  3545  077C  3493               	retlw	-109
  3546  077D  34F8               	retlw	-8
  3547  077E  34A2               	retlw	-94
  3548  077F  3408               	retlw	8
  3549  0780  34A2               	retlw	-94
  3550  0781  3408               	retlw	8
  3551  0782  3493               	retlw	-109
  3552  0783  34F8               	retlw	-8
  3553  0784  348A               	retlw	-118
  3554  0785  3480               	retlw	-128
  3555  0786  348A               	retlw	-118
  3556  0787  3448               	retlw	72
  3557  0788  34AA               	retlw	-86
  3558  0789  3450               	retlw	80
  3559  078A  3492               	retlw	-110
  3560  078B  3420               	retlw	32
  3561  078C  3482               	retlw	-126
  3562  078D  3420               	retlw	32
  3563  078E  3482               	retlw	-126
  3564  078F  3410               	retlw	16
  3565  0790  3482               	retlw	-126
  3566  0791  348E               	retlw	-114
  3567  0792  3483               	retlw	-125
  3568  0793  3404               	retlw	4
  3569  0794  3482               	retlw	-126
  3570  0795  3400               	retlw	0
  3571  0796  34B9               	retlw	-71
  3572  0797  34AB               	retlw	-85
  3573  0798  3400               	retlw	0
  3574  0799  3400               	retlw	0
  3575  079A  3404               	retlw	4
  3576  079B  3440               	retlw	64
  3577  079C  3406               	retlw	6
  3578  079D  3440               	retlw	64
  3579  079E  3404               	retlw	4
  3580  079F  3440               	retlw	64
  3581  07A0  3408               	retlw	8
  3582  07A1  3420               	retlw	32
  3583  07A2  3408               	retlw	8
  3584  07A3  3410               	retlw	16
  3585  07A4  3410               	retlw	16
  3586  07A5  3418               	retlw	24
  3587  07A6  3422               	retlw	34
  3588  07A7  340E               	retlw	14
  3589  07A8  3443               	retlw	67
  3590  07A9  3404               	retlw	4
  3591  07AA  3402               	retlw	2
  3592  07AB  3400               	retlw	0
  3593  07AC  3404               	retlw	4
  3594  07AD  3420               	retlw	32
  3595  07AE  3408               	retlw	8
  3596  07AF  3410               	retlw	16
  3597  07B0  3411               	retlw	17
  3598  07B1  34F8               	retlw	-8
  3599  07B2  343F               	retlw	63
  3600  07B3  3418               	retlw	24
  3601  07B4  3410               	retlw	16
  3602  07B5  3410               	retlw	16
  3603  07B6  3400               	retlw	0
  3604  07B7  3400               	retlw	0
  3605  07B8  34CB               	retlw	-53
  3606  07B9  34BE               	retlw	-66
  3607  07BA  3400               	retlw	0
  3608  07BB  3400               	retlw	0
  3609  07BC  343F               	retlw	63
  3610  07BD  34FC               	retlw	-4
  3611  07BE  3400               	retlw	0
  3612  07BF  3404               	retlw	4
  3613  07C0  3400               	retlw	0
  3614  07C1  3404               	retlw	4
  3615  07C2  347F               	retlw	127
  3616  07C3  34E4               	retlw	-28
  3617  07C4  3400               	retlw	0
  3618  07C5  3404               	retlw	4
  3619  07C6  3400               	retlw	0
  3620  07C7  3404               	retlw	4
  3621  07C8  343F               	retlw	63
  3622  07C9  34C4               	retlw	-60
  3623  07CA  3420               	retlw	32
  3624  07CB  3444               	retlw	68
  3625  07CC  3420               	retlw	32
  3626  07CD  3444               	retlw	68
  3627  07CE  343F               	retlw	63
  3628  07CF  34C4               	retlw	-60
  3629  07D0  3420               	retlw	32
  3630  07D1  3444               	retlw	68
  3631  07D2  3420               	retlw	32
  3632  07D3  3404               	retlw	4
  3633  07D4  3400               	retlw	0
  3634  07D5  3414               	retlw	20
  3635  07D6  3400               	retlw	0
  3636  07D7  3408               	retlw	8
  3637  07D8  3400               	retlw	0
  3638  07D9  3400               	retlw	0
  3639  07DA  34D3               	retlw	-45
  3640  07DB  34EB               	retlw	-21
  3641  07DC  3400               	retlw	0
  3642  07DD  3400               	retlw	0
  3643  07DE  3408               	retlw	8
  3644  07DF  3400               	retlw	0
  3645  07E0  3408               	retlw	8
  3646  07E1  3404               	retlw	4
  3647  07E2  340F               	retlw	15
  3648  07E3  34FE               	retlw	-2
  3649  07E4  3408               	retlw	8
  3650  07E5  3400               	retlw	0
  3651  07E6  3408               	retlw	8
  3652  07E7  3400               	retlw	0
  3653  07E8  340F               	retlw	15
  3654  07E9  34FC               	retlw	-4
  3655  07EA  3400               	retlw	0
  3656  07EB  3404               	retlw	4
  3657  07EC  3400               	retlw	0
  3658  07ED  3404               	retlw	4
  3659  07EE  3400               	retlw	0
  3660  07EF  3424               	retlw	36
  3661  07F0  347F               	retlw	127
  3662  07F1  34F4               	retlw	-12
  3663  07F2  3400               	retlw	0
  3664  07F3  3404               	retlw	4
  3665  07F4  3400               	retlw	0
  3666  07F5  3404               	retlw	4
  3667  07F6  3400               	retlw	0
  3668  07F7  3448               	retlw	72
  3669  07F8  3400               	retlw	0
  3670  07F9  3430               	retlw	48
  3671  07FA  3400               	retlw	0
  3672  07FB  3400               	retlw	0
  3673  07FC  34C4               	retlw	-60
  3674  07FD  34FA               	retlw	-6
  3675  07FE  3408               	retlw	8
  3676  07FF  3400               	retlw	0
  3677  0800  3409               	retlw	9
  3678  0801  3400               	retlw	0
  3679  0802  3411               	retlw	17
  3680  0803  34FE               	retlw	-2
  3681  0804  3412               	retlw	18
  3682  0805  3404               	retlw	4
  3683  0806  3434               	retlw	52
  3684  0807  3440               	retlw	64
  3685  0808  3432               	retlw	50
  3686  0809  3450               	retlw	80
  3687  080A  3452               	retlw	82
  3688  080B  3448               	retlw	72
  3689  080C  3494               	retlw	-108
  3690  080D  3444               	retlw	68
  3691  080E  3411               	retlw	17
  3692  080F  3444               	retlw	68
  3693  0810  3410               	retlw	16
  3694  0811  3480               	retlw	-128
  3695  0812  3400               	retlw	0
  3696  0813  3400               	retlw	0
  3697  0814  3429               	retlw	41
  3698  0815  3404               	retlw	4
  3699  0816  3428               	retlw	40
  3700  0817  3492               	retlw	-110
  3701  0818  3468               	retlw	104
  3702  0819  3412               	retlw	18
  3703  081A  3407               	retlw	7
  3704  081B  34F0               	retlw	-16
  3705  081C  3400               	retlw	0
  3706  081D  3400               	retlw	0
  3707  081E  34CD               	retlw	-51
  3708  081F  34AC               	retlw	-84
  3709  0820  3400               	retlw	0
  3710  0821  3400               	retlw	0
  3711  0822  347F               	retlw	127
  3712  0823  34FC               	retlw	-4
  3713  0824  3440               	retlw	64
  3714  0825  3404               	retlw	4
  3715  0826  3440               	retlw	64
  3716  0827  3404               	retlw	4
  3717  0828  345F               	retlw	95
  3718  0829  34F4               	retlw	-12
  3719  082A  3440               	retlw	64
  3720  082B  3404               	retlw	4
  3721  082C  3440               	retlw	64
  3722  082D  3404               	retlw	4
  3723  082E  344F               	retlw	79
  3724  082F  34E4               	retlw	-28
  3725  0830  3448               	retlw	72
  3726  0831  3424               	retlw	36
  3727  0832  3448               	retlw	72
  3728  0833  3424               	retlw	36
  3729  0834  3448               	retlw	72
  3730  0835  3424               	retlw	36
  3731  0836  344F               	retlw	79
  3732  0837  34E4               	retlw	-28
  3733  0838  3448               	retlw	72
  3734  0839  3424               	retlw	36
  3735  083A  3440               	retlw	64
  3736  083B  3404               	retlw	4
  3737  083C  3440               	retlw	64
  3738  083D  3414               	retlw	20
  3739  083E  3440               	retlw	64
  3740  083F  3408               	retlw	8
  3741  0840  34D0               	retlw	-48
  3742  0841  34D0               	retlw	-48
  3743  0842  3408               	retlw	8
  3744  0843  3400               	retlw	0
  3745  0844  341C               	retlw	28
  3746  0845  3400               	retlw	0
  3747  0846  3431               	retlw	49
  3748  0847  34FC               	retlw	-4
  3749  0848  3440               	retlw	64
  3750  0849  3400               	retlw	0
  3751  084A  3488               	retlw	-120
  3752  084B  3400               	retlw	0
  3753  084C  340C               	retlw	12
  3754  084D  3400               	retlw	0
  3755  084E  341B               	retlw	27
  3756  084F  34FE               	retlw	-2
  3757  0850  3430               	retlw	48
  3758  0851  3420               	retlw	32
  3759  0852  3450               	retlw	80
  3760  0853  3420               	retlw	32
  3761  0854  3490               	retlw	-112
  3762  0855  3420               	retlw	32
  3763  0856  3410               	retlw	16
  3764  0857  3420               	retlw	32
  3765  0858  3410               	retlw	16
  3766  0859  3420               	retlw	32
  3767  085A  3410               	retlw	16
  3768  085B  3420               	retlw	32
  3769  085C  3410               	retlw	16
  3770  085D  3420               	retlw	32
  3771  085E  3410               	retlw	16
  3772  085F  34A0               	retlw	-96
  3773  0860  3410               	retlw	16
  3774  0861  3440               	retlw	64
  3775                           ;       param _x assigned to ?_Put16x16+0
  3776  0000                     _Put16x16$x	set	?_Put16x16
  3777                           ;       param _y assigned to ?_Put16x16+2
  3778  0000                     _Put16x16$y	set	?_Put16x16+2
  3779                           ;       param _g assigned to ?_Put16x16+4
  3780  0000                     _Put16x16$g	set	?_Put16x16+4
  3781                           ;       param _fColor assigned to ?_Put16x16+5
  3782  0000                     _Put16x16$fColor	set	?_Put16x16+5
  3783                           ;       param _bColor assigned to ?_Put16x16+7
  3784  0000                     _Put16x16$bColor	set	?_Put16x16+7
  3785                           
  3786                           	psect	text10
  3787  0915                     _Show_RGB
  3788                           ;	_i assigned to ?a_Show_RGB+0
  3789  0000                     _Show_RGB$i	set	?a_Show_RGB
  3790                           ;	_j assigned to ?a_Show_RGB+2
  3791  0000                     _Show_RGB$j	set	?a_Show_RGB+2
  3792                           ;NBCTFT.C: 247: void Show_RGB (unsigned int x0,
      +                          unsigned int x1,unsigned int y0,unsigned int y1
      +                          ,unsigned int Color)
  3793  0915  0183               	clrf	3	;select bank 0
  3794  0916  0824               	movf	?_Show_RGB,w
  3795  0917  00C6               	movwf	?_LCD_SetPos
  3796  0918  0825               	movf	?_Show_RGB+1,w
  3797  0919  00C7               	movwf	?_LCD_SetPos+1
  3798  091A  0826               	movf	?_Show_RGB+2,w
  3799  091B  00C8               	movwf	?_LCD_SetPos+2
  3800  091C  0827               	movf	?_Show_RGB+3,w
  3801  091D  00C9               	movwf	?_LCD_SetPos+3
  3802  091E  0828               	movf	?_Show_RGB+4,w
  3803  091F  00CA               	movwf	?_LCD_SetPos+4
  3804  0920  0829               	movf	?_Show_RGB+5,w
  3805  0921  00CB               	movwf	?_LCD_SetPos+5
  3806  0922  082A               	movf	?_Show_RGB+6,w
  3807  0923  00CC               	movwf	?_LCD_SetPos+6
  3808  0924  082B               	movf	?_Show_RGB+7,w
  3809  0925  00CD               	movwf	?_LCD_SetPos+7
  3810  0926  120A  158A  2188   	fcall	_LCD_SetPos
      +       120A  158A         
  3811                           ;NBCTFT.C: 251: for (i=y0;i<=y1;i++)
  3812  092B  0828               	movf	?_Show_RGB+4,w
  3813  092C  00AE               	movwf	?a_Show_RGB
  3814  092D  0829               	movf	?_Show_RGB+5,w
  3815  092E  00AF               	movwf	?a_Show_RGB+1
  3816  092F  294C               	goto	l54
  3817  0930                     l51
  3818                           ;NBCTFT.C: 252: {
  3819  0930  0824               	movf	?_Show_RGB,w
  3820  0931  00B0               	movwf	?a_Show_RGB+2
  3821  0932  0825               	movf	?_Show_RGB+1,w
  3822  0933  00B1               	movwf	?a_Show_RGB+3
  3823  0934                     l58
  3824  0934  0831               	movf	?a_Show_RGB+3,w
  3825  0935  0227               	subwf	?_Show_RGB+3,w
  3826  0936  1D03               	btfss	3,2
  3827  0937  293A               	goto	u175
  3828  0938  0830               	movf	?a_Show_RGB+2,w
  3829  0939  0226               	subwf	?_Show_RGB+2,w
  3830  093A                     u175
  3831  093A  1C03               	btfss	3,0
  3832  093B  2949               	goto	l56
  3833                           ;NBCTFT.C: 254: Write_Data_U16(Color);
  3834  093C  082C               	movf	?_Show_RGB+8,w
  3835  093D  00C6               	movwf	?_Write_Data_U16
  3836  093E  082D               	movf	?_Show_RGB+9,w
  3837  093F  00C7               	movwf	?_Write_Data_U16+1
  3838  0940  120A  158A  2163   	fcall	_Write_Data_U16
      +       120A  158A         
  3839  0945  0AB0               	incf	?a_Show_RGB+2
  3840  0946  1903               	btfsc	3,2
  3841  0947  0AB1               	incf	?a_Show_RGB+3
  3842  0948  2934               	goto	l58
  3843  0949                     l56
  3844  0949  0AAE               	incf	?a_Show_RGB
  3845  094A  1903               	btfsc	3,2
  3846  094B  0AAF               	incf	?a_Show_RGB+1
  3847  094C                     l54
  3848  094C  082F               	movf	?a_Show_RGB+1,w
  3849  094D  022B               	subwf	?_Show_RGB+7,w
  3850  094E  1D03               	btfss	3,2
  3851  094F  2952               	goto	u185
  3852  0950  082E               	movf	?a_Show_RGB,w
  3853  0951  022A               	subwf	?_Show_RGB+6,w
  3854  0952                     u185
  3855  0952  1C03               	btfss	3,0
  3856  0953  0008               	return
  3857  0954  2930               	goto	l51
  3858                           
  3859                           	psect	text12
  3860  08C7                     _Put_pixel
  3861                           ;NBCTFT.C: 493: void Put_pixel(unsigned int x,u
      +                          nsigned int y,unsigned int color)
  3862  08C7  0183               	clrf	3	;select bank 0
  3863  08C8  0824               	movf	?_Put_pixel,w
  3864  08C9  00C6               	movwf	?_LCD_SetPos
  3865  08CA  0825               	movf	?_Put_pixel+1,w
  3866  08CB  00C7               	movwf	?_LCD_SetPos+1
  3867  08CC  0824               	movf	?_Put_pixel,w
  3868  08CD  00C8               	movwf	?_LCD_SetPos+2
  3869  08CE  0825               	movf	?_Put_pixel+1,w
  3870  08CF  00C9               	movwf	?_LCD_SetPos+3
  3871  08D0  0826               	movf	?_Put_pixel+2,w
  3872  08D1  00CA               	movwf	?_LCD_SetPos+4
  3873  08D2  0827               	movf	?_Put_pixel+3,w
  3874  08D3  00CB               	movwf	?_LCD_SetPos+5
  3875  08D4  0826               	movf	?_Put_pixel+2,w
  3876  08D5  00CC               	movwf	?_LCD_SetPos+6
  3877  08D6  0827               	movf	?_Put_pixel+3,w
  3878  08D7  00CD               	movwf	?_LCD_SetPos+7
  3879  08D8  120A  158A  2188   	fcall	_LCD_SetPos
      +       120A  158A         
  3880                           ;NBCTFT.C: 496: Write_Data_U16(color);
  3881  08DD  0828               	movf	?_Put_pixel+4,w
  3882  08DE  00C6               	movwf	?_Write_Data_U16
  3883  08DF  0829               	movf	?_Put_pixel+5,w
  3884  08E0  00C7               	movwf	?_Write_Data_U16+1
  3885  08E1  120A  158A  2963   	ljmp	_Write_Data_U16
  3886                           
  3887                           	psect	text13
  3888  0000                     
  3889  0000                     
  3890  0000                     
  3891  0000                     
  3892  0000                     
  3893  0000                     
  3894  0000                     
  3895  0000                     
  3896  0000                     
  3897  0000                     
  3898  0000                     
  3899  0000                     
  3900  0000                     
  3901  0000                     
  3902  0000                     
  3903  0000                     
  3904  0000                     
  3905  0000                     
  3906  0000                     
  3907  0000                     
  3908  0000                     
  3909  0000                     
  3910  0000                     
  3911  0000                     
  3912  0000                     
  3913  0000                     
  3914  0000                     
  3915  0000                     
  3916  0000                     
  3917  0000                     
  3918  0000                     
  3919  0000                     
  3920  0000                     
  3921  0000                     
  3922  0000                     
  3923  0000                     
  3924  0000                     
  3925  0000                     
  3926  0000                     
  3927  0000                     
  3928  0000                     
  3929  0000                     
  3930  0000                     
  3931  0000                     
  3932  0000                     
  3933  0000                     
  3934  0000                     
  3935  0000                     
  3936  0000                     
  3937  0000                     
  3938  0000                     
  3939  0000                     
  3940  0000                     
  3941  0000                     
  3942  0000                     
  3943  0000                     
  3944  0000                     
  3945  0000                     
  3946  0000                     
  3947  0000                     
  3948  0000                     
  3949  0000                     
  3950  0000                     
  3951  0000                     
  3952  0000                     
  3953  0000                     
  3954  0000                     
  3955  0000                     
  3956  0000                     
  3957  0000                     
  3958  0000                     
  3959  0000                     
  3960  0000                     
  3961  0000                     
  3962  0000                     
  3963  0000                     
  3964  0000                     
  3965  0000                     
  3966  0000                     
  3967  0000                     
  3968  0000                     
  3969  0000                     
  3970  0000                     
  3971  0000                     
  3972  0000                     
  3973  0000                     
  3974  0000                     
  3975  0000                     
  3976  0000                     
  3977  0000                     
  3978  0000                     
  3979  0000                     
  3980  0000                     
  3981  0000                     
  3982  0000                     
  3983  0000                     
  3984  0000                     
  3985  0000                     
  3986  0000                     
  3987  0000                     
  3988  0000                     
  3989  0000                     
  3990  0000                     
  3991  0000                     
  3992  0000                     
  3993  0000                     
  3994  0000                     
  3995  0000                     
  3996  0000                     
  3997  0000                     
  3998  0000                     
  3999  0000                     
  4000  0000                     
  4001  0000                     
  4002  0000                     
  4003  0000                     
  4004  0000                     
  4005  0000                     
  4006  0000                     
  4007  0000                     
  4008  0000                     
  4009  0000                     
  4010  0000                     
  4011  0000                     
  4012  0000                     
  4013  0000                     
  4014  0000                     
  4015  0000                     
  4016  0000                     
  4017  0000                     
  4018  0000                     
  4019  0000                     
  4020  0000                     
  4021  0000                     
  4022  0000                     
  4023  0000                     
  4024  0000                     
  4025  0000                     
  4026  0000                     
  4027  0000                     
  4028  0000                     
  4029  0000                     
  4030  0000                     
  4031  0000                     
  4032  0000                     
  4033  0000                     
  4034  0000                     
  4035  0000                     
  4036  0000                     
  4037  0000                     
  4038  0000                     
  4039  0000                     
  4040  0000                     
  4041  0000                     
  4042  0000                     
  4043  0000                     
  4044  0000                     
  4045  0000                     
  4046  0000                     
  4047  0000                     
  4048  0000                     
  4049  0000                     
  4050  0000                     
  4051  0000                     
  4052  0000                     
  4053  0000                     
  4054  0000                     
  4055  0000                     
  4056  0000                     
  4057  0000                     
  4058  0000                     
  4059  0000                     
  4060  0000                     
  4061  0000                     
  4062  0000                     
  4063  0000                     
  4064  0000                     
  4065  0000                     
  4066  0000                     
  4067  0000                     
  4068  0000                     
  4069  0000                     
  4070  0000                     
  4071  0000                     
  4072  0000                     
  4073  0000                     
  4074  0000                     
  4075  0000                     
  4076  0000                     
  4077  0000                     
  4078  0000                     
  4079  0000                     
  4080  0000                     
  4081  0000                     
  4082  0000                     
  4083  0000                     
  4084  0000                     
  4085  0000                     
  4086  0000                     
  4087  0000                     
  4088  0000                     
  4089  0000                     
  4090  0000                     
  4091  0000                     
  4092  0000                     
  4093  0000                     
  4094  0000                     
  4095  0000                     
  4096  0000                     
  4097  0000                     
  4098  0000                     
  4099  0000                     
  4100  0000                     
  4101  0000                     
  4102  0000                     
  4103  0000                     
  4104  0000                     
  4105  0000                     
  4106  0000                     
  4107  0000                     
  4108  0000                     
  4109  0000                     
  4110  0000                     
  4111  0000                     
  4112  0000                     
  4113  0000                     
  4114  0000                     
  4115  0000                     
  4116  0000                     
  4117  0000                     
  4118  0000                     
  4119  0000                     
  4120  0000                     
  4121  0000                     
  4122  0000                     
  4123  0000                     
  4124  0000                     
  4125  0000                     
  4126  0000                     
  4127  0000                     
  4128  0000                     
  4129  0000                     
  4130  0000                     
  4131  0000                     
  4132  0000                     
  4133  0000                     
  4134  0000                     
  4135  0000                     
  4136  0000                     
  4137  0000                     
  4138  0000                     
  4139  0000                     
  4140  0000                     
  4141  0000                     
  4142  0000                     
  4143  0000                     
  4144  0000                     
  4145  0000                     
  4146  0000                     
  4147  0000                     
  4148  0000                     
  4149  0000                     
  4150  0000                     
  4151  0000                     
  4152  0000                     
  4153  0000                     
  4154  0000                     
  4155  0000                     
  4156  0000                     
  4157  0000                     
  4158  0000                     
  4159  0000                     
  4160  0000                     
  4161  0000                     
  4162  0000                     
  4163  0000                     
  4164  0000                     
  4165                           
  4166                           	psect	temp
  4167  007A                     btemp
                     btemp
  4168  007A                     	ds	6


HI-TECH Software PICC Macro Assembler V9.60
Symbol Table                                          Thu Dec 13 10:03:28 2012

                   l2 09C1                     l5 09D3  
                   l6 09C3             ?_Show_RGB 0024  
                  l22 0EF0                    l15 08F5  
                  l32 0E3F                    l25 0F17  
                  l42 0EAB                    l18 08F7  
                  l51 0930                    l35 0EC9  
                  l60 0B45                    l36 0E81  
                  l28 0F1D                    l45 0FA4  
                  l62 0C9F                    l54 094C  
                  l46 0F3F                    l39 0EA5  
                  l56 0949                    l48 0F70  
                  l58 0934                    u25 09D9  
                  fsr 0004         ?a_LCD_PutChar 003C  
            ?_delayms 0024                   u175 093A  
                 u185 0952           _TFT_Initial 09DC  
          ?a_Put16x16 003C           _Device_code 0020  
           ?a_delayms 0026           ?_CLR_Screen 0024  
          ?_Put_pixel 0024                  f2863 0041  
          ?a_Show_RGB 002E                  f2883 0044  
                f2893 0031           ?_LCD_SetPos 0046  
                _ch16 0642         _LCD_PutString 0F3B  
                btemp 007A            ?_Write_Cmd 0053  
          _CLR_Screen 08E4                  lwmul 08B2  
          _LCD_SetPos 0988          ?a_Write_Data 0054  
     ?a_LCD_PutString 002D        ?_LCD_PutString 0024  
             _delayms 09BD        _Write_Data_U16 0963  
      _Write_Cmd_Data 097A          ?_LCD_PutChar 0033  
             code_ptr 006E           string_table 002C  
         ?_Write_Data 0053              _Font8x16 0042  
         ?a_Write_Cmd 0054                 status 0003  
    ?a_Write_Data_U16 0048      ?a_Write_Cmd_Data 0050  
            _Put16x16 0E23            _Write_Data 0955  
           _Put_pixel 08C7           _LCD_PutChar 0ED4  
     ?_Write_Data_U16 0046       ?_Write_Cmd_Data 004E  
            _Show_RGB 0915             _Write_Cmd 096B  
        used_code_ptr 0001          ?a_CLR_Screen 0026  
          used_btemp0 0001            used_btemp1 0001  
          used_btemp2 0001            used_btemp3 0001  
          used_btemp4 0001            used_btemp5 0001  
           ?_Put16x16 0033  
