	.module TFT.c
	.area data(ram, con, rel)
_ascii::
	.blkb 2
	.area idata
	.byte 0,0
	.area data(ram, con, rel)
	.blkb 2
	.area idata
	.byte 0,0
	.area data(ram, con, rel)
	.blkb 2
	.area idata
	.byte 0,0
	.area data(ram, con, rel)
	.blkb 2
	.area idata
	.byte 0,0
	.area data(ram, con, rel)
	.blkb 2
	.area idata
	.byte 0,0
	.area data(ram, con, rel)
	.blkb 2
	.area idata
	.byte 0,0
	.area data(ram, con, rel)
	.blkb 2
	.area idata
	.byte 0,0
	.area data(ram, con, rel)
	.blkb 2
	.area idata
	.byte 0,0
	.area data(ram, con, rel)
	.blkb 2
	.area idata
	.byte 0,0
	.area data(ram, con, rel)
	.blkb 2
	.area idata
	.byte 0,0
	.area data(ram, con, rel)
	.blkb 2
	.area idata
	.byte 0,0
	.area data(ram, con, rel)
	.blkb 2
	.area idata
	.byte 0,15
	.area data(ram, con, rel)
	.blkb 2
	.area idata
	.byte 8,8
	.area data(ram, con, rel)
	.blkb 2
	.area idata
	.byte 8,8
	.area data(ram, con, rel)
	.blkb 2
	.area idata
	.byte 8,8
	.area data(ram, con, rel)
	.blkb 2
	.area idata
	.byte 8,0
	.area data(ram, con, rel)
	.blkb 2
	.area idata
	.byte 0,0
	.area data(ram, con, rel)
	.blkb 2
	.area idata
	.byte 0,0
	.area data(ram, con, rel)
	.blkb 2
	.area idata
	.byte 0,0
	.area data(ram, con, rel)
	.blkb 2
	.area idata
	.byte 0,248
	.area data(ram, con, rel)
	.blkb 2
	.area idata
	.byte 8,8
	.area data(ram, con, rel)
	.blkb 2
	.area idata
	.byte 8,8
	.area data(ram, con, rel)
	.blkb 2
	.area idata
	.byte 8,8
	.area data(ram, con, rel)
	.blkb 2
	.area idata
	.byte 8,0
	.area data(ram, con, rel)
	.blkb 2
	.area idata
	.byte 8,8
	.area data(ram, con, rel)
	.blkb 2
	.area idata
	.byte 8,8
	.area data(ram, con, rel)
	.blkb 2
	.area idata
	.byte 8,8
	.area data(ram, con, rel)
	.blkb 2
	.area idata
	.byte 8,15
	.area data(ram, con, rel)
	.blkb 2
	.area idata
	.byte 0,0
	.area data(ram, con, rel)
	.blkb 2
	.area idata
	.byte 0,0
	.area data(ram, con, rel)
	.blkb 2
	.area idata
	.byte 0,0
	.area data(ram, con, rel)
	.blkb 2
	.area idata
	.byte 0,0
	.area data(ram, con, rel)
	.blkb 2
	.area idata
	.byte 8,8
	.area data(ram, con, rel)
	.blkb 2
	.area idata
	.byte 8,8
	.area data(ram, con, rel)
	.blkb 2
	.area idata
	.byte 8,8
	.area data(ram, con, rel)
	.blkb 2
	.area idata
	.byte 8,248
	.area data(ram, con, rel)
	.blkb 2
	.area idata
	.byte 0,0
	.area data(ram, con, rel)
	.blkb 2
	.area idata
	.byte 0,0
	.area data(ram, con, rel)
	.blkb 2
	.area idata
	.byte 0,0
	.area data(ram, con, rel)
	.blkb 2
	.area idata
	.byte 0,0
	.area data(ram, con, rel)
	.blkb 2
	.area idata
	.byte 8,8
	.area data(ram, con, rel)
	.blkb 2
	.area idata
	.byte 8,8
	.area data(ram, con, rel)
	.blkb 2
	.area idata
	.byte 8,8
	.area data(ram, con, rel)
	.blkb 2
	.area idata
	.byte 8,8
	.area data(ram, con, rel)
	.blkb 2
	.area idata
	.byte 8,8
	.area data(ram, con, rel)
	.blkb 2
	.area idata
	.byte 8,8
	.area data(ram, con, rel)
	.blkb 2
	.area idata
	.byte 8,8
	.area data(ram, con, rel)
	.blkb 2
	.area idata
	.byte 8,0
	.area data(ram, con, rel)
	.blkb 2
	.area idata
	.byte 0,0
	.area data(ram, con, rel)
	.blkb 2
	.area idata
	.byte 0,0
	.area data(ram, con, rel)
	.blkb 2
	.area idata
	.byte 0,0
	.area data(ram, con, rel)
	.blkb 2
	.area idata
	.byte 0,255
	.area data(ram, con, rel)
	.blkb 2
	.area idata
	.byte 0,0
	.area data(ram, con, rel)
	.blkb 2
	.area idata
	.byte 0,0
	.area data(ram, con, rel)
	.blkb 2
	.area idata
	.byte 0,0
	.area data(ram, con, rel)
	.blkb 2
	.area idata
	.byte 0,0
	.area data(ram, con, rel)
	.blkb 2
	.area idata
	.byte 0,0
	.area data(ram, con, rel)
	.blkb 2
	.area idata
	.byte 0,24
	.area data(ram, con, rel)
	.blkb 2
	.area idata
	.byte 60,126
	.area data(ram, con, rel)
	.blkb 2
	.area idata
	.byte 126,126
	.area data(ram, con, rel)
	.blkb 2
	.area idata
	.byte 60,24
	.area data(ram, con, rel)
	.blkb 2
	.area idata
	.byte 0,0
	.area data(ram, con, rel)
	.blkb 2
	.area idata
	.byte 0,0
	.area data(ram, con, rel)
	.blkb 2
	.area idata
	.byte 0,0
	.area data(ram, con, rel)
	.blkb 2
	.area idata
	.byte 255,255
	.area data(ram, con, rel)
	.blkb 2
	.area idata
	.byte 255,231
	.area data(ram, con, rel)
	.blkb 2
	.area idata
	.byte 195,129
	.area data(ram, con, rel)
	.blkb 2
	.area idata
	.byte 129,129
	.area data(ram, con, rel)
	.blkb 2
	.area idata
	.byte 195,231
	.area data(ram, con, rel)
	.blkb 2
	.area idata
	.byte 255,255
	.area data(ram, con, rel)
	.blkb 2
	.area idata
	.byte 255,255
	.area data(ram, con, rel)
	.blkb 2
	.area idata
	.byte 255,0
	.area data(ram, con, rel)
	.blkb 2
	.area idata
	.byte 0,0
	.area data(ram, con, rel)
	.blkb 2
	.area idata
	.byte 0,0
	.area data(ram, con, rel)
	.blkb 2
	.area idata
	.byte 0,0
	.area data(ram, con, rel)
	.blkb 2
	.area idata
	.byte 0,0
	.area data(ram, con, rel)
	.blkb 2
	.area idata
	.byte 0,0
	.area data(ram, con, rel)
	.blkb 2
	.area idata
	.byte 0,0
	.area data(ram, con, rel)
	.blkb 2
	.area idata
	.byte 0,0
	.area data(ram, con, rel)
	.blkb 2
	.area idata
	.byte 0,0
	.area data(ram, con, rel)
	.blkb 2
	.area idata
	.byte 0,0
	.area data(ram, con, rel)
	.blkb 2
	.area idata
	.byte 0,0
	.area data(ram, con, rel)
	.blkb 2
	.area idata
	.byte 0,0
	.area data(ram, con, rel)
	.blkb 2
	.area idata
	.byte 0,0
	.area data(ram, con, rel)
	.blkb 2
	.area idata
	.byte 0,0
	.area data(ram, con, rel)
	.blkb 2
	.area idata
	.byte 0,0
	.area data(ram, con, rel)
	.blkb 2
	.area idata
	.byte 0,0
	.area data(ram, con, rel)
	.blkb 2
	.area idata
	.byte 0,0
	.area data(ram, con, rel)
	.blkb 2
	.area idata
	.byte 0,31
	.area data(ram, con, rel)
	.blkb 2
	.area idata
	.byte 5,5
	.area data(ram, con, rel)
	.blkb 2
	.area idata
	.byte 9,9
	.area data(ram, con, rel)
	.blkb 2
	.area idata
	.byte 16,16
	.area data(ram, con, rel)
	.blkb 2
	.area idata
	.byte 56,'D
	.area data(ram, con, rel)
	.blkb 2
	.area idata
	.byte 'D,'D
	.area data(ram, con, rel)
	.blkb 2
	.area idata
	.byte 56,0
	.area data(ram, con, rel)
	.blkb 2
	.area idata
	.byte 0,0
	.area data(ram, con, rel)
	.blkb 2
	.area idata
	.byte 0,28
	.area data(ram, con, rel)
	.blkb 2
	.area idata
	.byte 34,34
	.area data(ram, con, rel)
	.blkb 2
	.area idata
	.byte 34,28
	.area data(ram, con, rel)
	.blkb 2
	.area idata
	.byte 8,8
	.area data(ram, con, rel)
	.blkb 2
	.area idata
	.byte 127,8
	.area data(ram, con, rel)
	.blkb 2
	.area idata
	.byte 8,8
	.area data(ram, con, rel)
	.blkb 2
	.area idata
	.byte 8,0
	.area data(ram, con, rel)
	.blkb 2
	.area idata
	.byte 0,0
	.area data(ram, con, rel)
	.blkb 2
	.area idata
	.byte 0,0
	.area data(ram, con, rel)
	.blkb 2
	.area idata
	.byte 0,0
	.area data(ram, con, rel)
	.blkb 2
	.area idata
	.byte 0,0
	.area data(ram, con, rel)
	.blkb 2
	.area idata
	.byte 0,0
	.area data(ram, con, rel)
	.blkb 2
	.area idata
	.byte 0,0
	.area data(ram, con, rel)
	.blkb 2
	.area idata
	.byte 0,0
	.area data(ram, con, rel)
	.blkb 2
	.area idata
	.byte 0,0
	.area data(ram, con, rel)
	.blkb 2
	.area idata
	.byte 0,0
	.area data(ram, con, rel)
	.blkb 2
	.area idata
	.byte 3,29
	.area data(ram, con, rel)
	.blkb 2
	.area idata
	.byte 17,19
	.area data(ram, con, rel)
	.blkb 2
	.area idata
	.byte 29,17
	.area data(ram, con, rel)
	.blkb 2
	.area idata
	.byte 17,17
	.area data(ram, con, rel)
	.blkb 2
	.area idata
	.byte 19,23
	.area data(ram, con, rel)
	.blkb 2
	.area idata
	.byte 54,'p
	.area data(ram, con, rel)
	.blkb 2
	.area idata
	.byte 96,0
	.area data(ram, con, rel)
	.blkb 2
	.area idata
	.byte 0,0
	.area data(ram, con, rel)
	.blkb 2
	.area idata
	.byte 8,8
	.area data(ram, con, rel)
	.blkb 2
	.area idata
	.byte 93,34
	.area data(ram, con, rel)
	.blkb 2
	.area idata
	.byte 34,34
	.area data(ram, con, rel)
	.blkb 2
	.area idata
	.byte 'c,34
	.area data(ram, con, rel)
	.blkb 2
	.area idata
	.byte 34,34
	.area data(ram, con, rel)
	.blkb 2
	.area idata
	.byte 93,8
	.area data(ram, con, rel)
	.blkb 2
	.area idata
	.byte 8,0
	.area data(ram, con, rel)
	.blkb 2
	.area idata
	.byte 0,0
	.area data(ram, con, rel)
	.blkb 2
	.area idata
	.byte 8,8
	.area data(ram, con, rel)
	.blkb 2
	.area idata
	.byte 8,8
	.area data(ram, con, rel)
	.blkb 2
	.area idata
	.byte 8,8
	.area data(ram, con, rel)
	.blkb 2
	.area idata
	.byte 8,255
	.area data(ram, con, rel)
	.blkb 2
	.area idata
	.byte 8,8
	.area data(ram, con, rel)
	.blkb 2
	.area idata
	.byte 8,8
	.area data(ram, con, rel)
	.blkb 2
	.area idata
	.byte 8,8
	.area data(ram, con, rel)
	.blkb 2
	.area idata
	.byte 8,0
	.area data(ram, con, rel)
	.blkb 2
	.area idata
	.byte 0,1
	.area data(ram, con, rel)
	.blkb 2
	.area idata
	.byte 3,7
	.area data(ram, con, rel)
	.blkb 2
	.area idata
	.byte 15,31
	.area data(ram, con, rel)
	.blkb 2
	.area idata
	.byte 63,127
	.area data(ram, con, rel)
	.blkb 2
	.area idata
	.byte 63,31
	.area data(ram, con, rel)
	.blkb 2
	.area idata
	.byte 15,7
	.area data(ram, con, rel)
	.blkb 2
	.area idata
	.byte 3,1
	.area data(ram, con, rel)
	.blkb 2
	.area idata
	.byte 0,0
	.area data(ram, con, rel)
	.blkb 2
	.area idata
	.byte 8,28
	.area data(ram, con, rel)
	.blkb 2
	.area idata
	.byte 42,8
	.area data(ram, con, rel)
	.blkb 2
	.area idata
	.byte 8,8
	.area data(ram, con, rel)
	.blkb 2
	.area idata
	.byte 8,8
	.area data(ram, con, rel)
	.blkb 2
	.area idata
	.byte 8,8
	.area data(ram, con, rel)
	.blkb 2
	.area idata
	.byte 8,42
	.area data(ram, con, rel)
	.blkb 2
	.area idata
	.byte 28,8
	.area data(ram, con, rel)
	.blkb 2
	.area idata
	.byte 0,0
	.area data(ram, con, rel)
	.blkb 2
	.area idata
	.byte 0,36
	.area data(ram, con, rel)
	.blkb 2
	.area idata
	.byte 36,36
	.area data(ram, con, rel)
	.blkb 2
	.area idata
	.byte 36,36
	.area data(ram, con, rel)
	.blkb 2
	.area idata
	.byte 36,36
	.area data(ram, con, rel)
	.blkb 2
	.area idata
	.byte 36,36
	.area data(ram, con, rel)
	.blkb 2
	.area idata
	.byte 0,0
	.area data(ram, con, rel)
	.blkb 2
	.area idata
	.byte 36,36
	.area data(ram, con, rel)
	.blkb 2
	.area idata
	.byte 0,0
	.area data(ram, con, rel)
	.blkb 2
	.area idata
	.byte 0,31
	.area data(ram, con, rel)
	.blkb 2
	.area idata
	.byte 37,'E
	.area data(ram, con, rel)
	.blkb 2
	.area idata
	.byte 'E,'E
	.area data(ram, con, rel)
	.blkb 2
	.area idata
	.byte 37,29
	.area data(ram, con, rel)
	.blkb 2
	.area idata
	.byte 5,5
	.area data(ram, con, rel)
	.blkb 2
	.area idata
	.byte 5,5
	.area data(ram, con, rel)
	.blkb 2
	.area idata
	.byte 5,0
	.area data(ram, con, rel)
	.blkb 2
	.area idata
	.byte 0,0
	.area data(ram, con, rel)
	.blkb 2
	.area idata
	.byte 8,8
	.area data(ram, con, rel)
	.blkb 2
	.area idata
	.byte 8,8
	.area data(ram, con, rel)
	.blkb 2
	.area idata
	.byte 8,8
	.area data(ram, con, rel)
	.blkb 2
	.area idata
	.byte 8,255
	.area data(ram, con, rel)
	.blkb 2
	.area idata
	.byte 0,0
	.area data(ram, con, rel)
	.blkb 2
	.area idata
	.byte 0,0
	.area data(ram, con, rel)
	.blkb 2
	.area idata
	.byte 0,0
	.area data(ram, con, rel)
	.blkb 2
	.area idata
	.byte 0,0
	.area data(ram, con, rel)
	.blkb 2
	.area idata
	.byte 0,0
	.area data(ram, con, rel)
	.blkb 2
	.area idata
	.byte 0,0
	.area data(ram, con, rel)
	.blkb 2
	.area idata
	.byte 0,0
	.area data(ram, con, rel)
	.blkb 2
	.area idata
	.byte 0,255
	.area data(ram, con, rel)
	.blkb 2
	.area idata
	.byte 8,8
	.area data(ram, con, rel)
	.blkb 2
	.area idata
	.byte 8,8
	.area data(ram, con, rel)
	.blkb 2
	.area idata
	.byte 8,8
	.area data(ram, con, rel)
	.blkb 2
	.area idata
	.byte 8,0
	.area data(ram, con, rel)
	.blkb 2
	.area idata
	.byte 8,8
	.area data(ram, con, rel)
	.blkb 2
	.area idata
	.byte 8,8
	.area data(ram, con, rel)
	.blkb 2
	.area idata
	.byte 8,8
	.area data(ram, con, rel)
	.blkb 2
	.area idata
	.byte 8,248
	.area data(ram, con, rel)
	.blkb 2
	.area idata
	.byte 8,8
	.area data(ram, con, rel)
	.blkb 2
	.area idata
	.byte 8,8
	.area data(ram, con, rel)
	.blkb 2
	.area idata
	.byte 8,8
	.area data(ram, con, rel)
	.blkb 2
	.area idata
	.byte 8,0
	.area data(ram, con, rel)
	.blkb 2
	.area idata
	.byte 8,28
	.area data(ram, con, rel)
	.blkb 2
	.area idata
	.byte 42,8
	.area data(ram, con, rel)
	.blkb 2
	.area idata
	.byte 8,8
	.area data(ram, con, rel)
	.blkb 2
	.area idata
	.byte 8,8
	.area data(ram, con, rel)
	.blkb 2
	.area idata
	.byte 8,8
	.area data(ram, con, rel)
	.blkb 2
	.area idata
	.byte 8,8
	.area data(ram, con, rel)
	.blkb 2
	.area idata
	.byte 8,8
	.area data(ram, con, rel)
	.blkb 2
	.area idata
	.byte 0,0
	.area data(ram, con, rel)
	.blkb 2
	.area idata
	.byte 8,8
	.area data(ram, con, rel)
	.blkb 2
	.area idata
	.byte 8,8
	.area data(ram, con, rel)
	.blkb 2
	.area idata
	.byte 8,8
	.area data(ram, con, rel)
	.blkb 2
	.area idata
	.byte 8,15
	.area data(ram, con, rel)
	.blkb 2
	.area idata
	.byte 8,8
	.area data(ram, con, rel)
	.blkb 2
	.area idata
	.byte 8,8
	.area data(ram, con, rel)
	.blkb 2
	.area idata
	.byte 8,8
	.area data(ram, con, rel)
	.blkb 2
	.area idata
	.byte 8,0
	.area data(ram, con, rel)
	.blkb 2
	.area idata
	.byte 0,0
	.area data(ram, con, rel)
	.blkb 2
	.area idata
	.byte 0,0
	.area data(ram, con, rel)
	.blkb 2
	.area idata
	.byte 0,4
	.area data(ram, con, rel)
	.blkb 2
	.area idata
	.byte 2,127
	.area data(ram, con, rel)
	.blkb 2
	.area idata
	.byte 2,4
	.area data(ram, con, rel)
	.blkb 2
	.area idata
	.byte 0,0
	.area data(ram, con, rel)
	.blkb 2
	.area idata
	.byte 0,0
	.area data(ram, con, rel)
	.blkb 2
	.area idata
	.byte 0,0
	.area data(ram, con, rel)
	.blkb 2
	.area idata
	.byte 0,0
	.area data(ram, con, rel)
	.blkb 2
	.area idata
	.byte 0,0
	.area data(ram, con, rel)
	.blkb 2
	.area idata
	.byte 0,16
	.area data(ram, con, rel)
	.blkb 2
	.area idata
	.byte 32,127
	.area data(ram, con, rel)
	.blkb 2
	.area idata
	.byte 32,16
	.area data(ram, con, rel)
	.blkb 2
	.area idata
	.byte 0,0
	.area data(ram, con, rel)
	.blkb 2
	.area idata
	.byte 0,0
	.area data(ram, con, rel)
	.blkb 2
	.area idata
	.byte 0,0
	.area data(ram, con, rel)
	.blkb 2
	.area idata
	.byte 0,0
	.area data(ram, con, rel)
	.blkb 2
	.area idata
	.byte 0,0
	.area data(ram, con, rel)
	.blkb 2
	.area idata
	.byte 0,0
	.area data(ram, con, rel)
	.blkb 2
	.area idata
	.byte 0,0
	.area data(ram, con, rel)
	.blkb 2
	.area idata
	.byte 0,0
	.area data(ram, con, rel)
	.blkb 2
	.area idata
	.byte 0,0
	.area data(ram, con, rel)
	.blkb 2
	.area idata
	.byte 0,0
	.area data(ram, con, rel)
	.blkb 2
	.area idata
	.byte 0,0
	.area data(ram, con, rel)
	.blkb 2
	.area idata
	.byte 0,0
	.area data(ram, con, rel)
	.blkb 2
	.area idata
	.byte 0,0
	.area data(ram, con, rel)
	.blkb 2
	.area idata
	.byte 0,0
	.area data(ram, con, rel)
	.blkb 2
	.area idata
	.byte 0,0
	.area data(ram, con, rel)
	.blkb 2
	.area idata
	.byte 0,0
	.area data(ram, con, rel)
	.blkb 2
	.area idata
	.byte 0,0
	.area data(ram, con, rel)
	.blkb 2
	.area idata
	.byte 0,0
	.area data(ram, con, rel)
	.blkb 2
	.area idata
	.byte 0,0
	.area data(ram, con, rel)
	.blkb 2
	.area idata
	.byte 0,0
	.area data(ram, con, rel)
	.blkb 2
	.area idata
	.byte 0,0
	.area data(ram, con, rel)
	.blkb 2
	.area idata
	.byte 0,0
	.area data(ram, con, rel)
	.blkb 2
	.area idata
	.byte 0,0
	.area data(ram, con, rel)
	.blkb 2
	.area idata
	.byte 0,0
	.area data(ram, con, rel)
	.blkb 2
	.area idata
	.byte 0,0
	.area data(ram, con, rel)
	.blkb 2
	.area idata
	.byte 0,0
	.area data(ram, con, rel)
	.blkb 2
	.area idata
	.byte 0,0
	.area data(ram, con, rel)
	.blkb 2
	.area idata
	.byte 0,0
	.area data(ram, con, rel)
	.blkb 2
	.area idata
	.byte 0,0
	.area data(ram, con, rel)
	.blkb 2
	.area idata
	.byte 0,0
	.area data(ram, con, rel)
	.blkb 2
	.area idata
	.byte 0,0
	.area data(ram, con, rel)
	.blkb 2
	.area idata
	.byte 0,0
	.area data(ram, con, rel)
	.blkb 2
	.area idata
	.byte 0,0
	.area data(ram, con, rel)
	.blkb 2
	.area idata
	.byte 0,0
	.area data(ram, con, rel)
	.blkb 2
	.area idata
	.byte 0,0
	.area data(ram, con, rel)
	.blkb 2
	.area idata
	.byte 0,0
	.area data(ram, con, rel)
	.blkb 2
	.area idata
	.byte 0,0
	.area data(ram, con, rel)
	.blkb 2
	.area idata
	.byte 0,0
	.area data(ram, con, rel)
	.blkb 2
	.area idata
	.byte 0,0
	.area data(ram, con, rel)
	.blkb 2
	.area idata
	.byte 0,0
	.area data(ram, con, rel)
	.blkb 2
	.area idata
	.byte 0,0
	.area data(ram, con, rel)
	.blkb 2
	.area idata
	.byte 0,0
	.area data(ram, con, rel)
	.blkb 2
	.area idata
	.byte 0,0
	.area data(ram, con, rel)
	.blkb 2
	.area idata
	.byte 0,0
	.area data(ram, con, rel)
	.blkb 2
	.area idata
	.byte 16,16
	.area data(ram, con, rel)
	.blkb 2
	.area idata
	.byte 16,16
	.area data(ram, con, rel)
	.blkb 2
	.area idata
	.byte 16,16
	.area data(ram, con, rel)
	.blkb 2
	.area idata
	.byte 16,0
	.area data(ram, con, rel)
	.blkb 2
	.area idata
	.byte 0,24
	.area data(ram, con, rel)
	.blkb 2
	.area idata
	.byte 24,0
	.area data(ram, con, rel)
	.blkb 2
	.area idata
	.byte 0,0
	.area data(ram, con, rel)
	.blkb 2
	.area idata
	.byte 18,54
	.area data(ram, con, rel)
	.blkb 2
	.area idata
	.byte 36,'H
	.area data(ram, con, rel)
	.blkb 2
	.area idata
	.byte 0,0
	.area data(ram, con, rel)
	.blkb 2
	.area idata
	.byte 0,0
	.area data(ram, con, rel)
	.blkb 2
	.area idata
	.byte 0,0
	.area data(ram, con, rel)
	.blkb 2
	.area idata
	.byte 0,0
	.area data(ram, con, rel)
	.blkb 2
	.area idata
	.byte 0,0
	.area data(ram, con, rel)
	.blkb 2
	.area idata
	.byte 0,0
	.area data(ram, con, rel)
	.blkb 2
	.area idata
	.byte 0,0
	.area data(ram, con, rel)
	.blkb 2
	.area idata
	.byte 36,36
	.area data(ram, con, rel)
	.blkb 2
	.area idata
	.byte 36,254
	.area data(ram, con, rel)
	.blkb 2
	.area idata
	.byte 'H,'H
	.area data(ram, con, rel)
	.blkb 2
	.area idata
	.byte 'H,254
	.area data(ram, con, rel)
	.blkb 2
	.area idata
	.byte 'H,'H
	.area data(ram, con, rel)
	.blkb 2
	.area idata
	.byte 'H,0
	.area data(ram, con, rel)
	.blkb 2
	.area idata
	.byte 0,0
	.area data(ram, con, rel)
	.blkb 2
	.area idata
	.byte 0,16
	.area data(ram, con, rel)
	.blkb 2
	.area idata
	.byte 56,'T
	.area data(ram, con, rel)
	.blkb 2
	.area idata
	.byte 'T,'P
	.area data(ram, con, rel)
	.blkb 2
	.area idata
	.byte 48,24
	.area data(ram, con, rel)
	.blkb 2
	.area idata
	.byte 20,20
	.area data(ram, con, rel)
	.blkb 2
	.area idata
	.byte 'T,'T
	.area data(ram, con, rel)
	.blkb 2
	.area idata
	.byte 56,16
	.area data(ram, con, rel)
	.blkb 2
	.area idata
	.byte 16,0
	.area data(ram, con, rel)
	.blkb 2
	.area idata
	.byte 0,0
	.area data(ram, con, rel)
	.blkb 2
	.area idata
	.byte 'D,164
	.area data(ram, con, rel)
	.blkb 2
	.area idata
	.byte 168,168
	.area data(ram, con, rel)
	.blkb 2
	.area idata
	.byte 168,'T
	.area data(ram, con, rel)
	.blkb 2
	.area idata
	.byte 26,42
	.area data(ram, con, rel)
	.blkb 2
	.area idata
	.byte 42,42
	.area data(ram, con, rel)
	.blkb 2
	.area idata
	.byte 'D,0
	.area data(ram, con, rel)
	.blkb 2
	.area idata
	.byte 0,0
	.area data(ram, con, rel)
	.blkb 2
	.area idata
	.byte 0,0
	.area data(ram, con, rel)
	.blkb 2
	.area idata
	.byte 48,'H
	.area data(ram, con, rel)
	.blkb 2
	.area idata
	.byte 'H,'H
	.area data(ram, con, rel)
	.blkb 2
	.area idata
	.byte 'P,'n
	.area data(ram, con, rel)
	.blkb 2
	.area idata
	.byte 164,148
	.area data(ram, con, rel)
	.blkb 2
	.area idata
	.byte 136,137
	.area data(ram, con, rel)
	.blkb 2
	.area idata
	.byte 'v,0
	.area data(ram, con, rel)
	.blkb 2
	.area idata
	.byte 0,0
	.area data(ram, con, rel)
	.blkb 2
	.area idata
	.byte 96,96
	.area data(ram, con, rel)
	.blkb 2
	.area idata
	.byte 32,192
	.area data(ram, con, rel)
	.blkb 2
	.area idata
	.byte 0,0
	.area data(ram, con, rel)
	.blkb 2
	.area idata
	.byte 0,0
	.area data(ram, con, rel)
	.blkb 2
	.area idata
	.byte 0,0
	.area data(ram, con, rel)
	.blkb 2
	.area idata
	.byte 0,0
	.area data(ram, con, rel)
	.blkb 2
	.area idata
	.byte 0,0
	.area data(ram, con, rel)
	.blkb 2
	.area idata
	.byte 0,0
	.area data(ram, con, rel)
	.blkb 2
	.area idata
	.byte 2,4
	.area data(ram, con, rel)
	.blkb 2
	.area idata
	.byte 8,8
	.area data(ram, con, rel)
	.blkb 2
	.area idata
	.byte 16,16
	.area data(ram, con, rel)
	.blkb 2
	.area idata
	.byte 16,16
	.area data(ram, con, rel)
	.blkb 2
	.area idata
	.byte 16,16
	.area data(ram, con, rel)
	.blkb 2
	.area idata
	.byte 8,8
	.area data(ram, con, rel)
	.blkb 2
	.area idata
	.byte 4,2
	.area data(ram, con, rel)
	.blkb 2
	.area idata
	.byte 0,0
	.area data(ram, con, rel)
	.blkb 2
	.area idata
	.byte 64,32
	.area data(ram, con, rel)
	.blkb 2
	.area idata
	.byte 16,16
	.area data(ram, con, rel)
	.blkb 2
	.area idata
	.byte 8,8
	.area data(ram, con, rel)
	.blkb 2
	.area idata
	.byte 8,8
	.area data(ram, con, rel)
	.blkb 2
	.area idata
	.byte 8,8
	.area data(ram, con, rel)
	.blkb 2
	.area idata
	.byte 16,16
	.area data(ram, con, rel)
	.blkb 2
	.area idata
	.byte 32,64
	.area data(ram, con, rel)
	.blkb 2
	.area idata
	.byte 0,0
	.area data(ram, con, rel)
	.blkb 2
	.area idata
	.byte 0,0
	.area data(ram, con, rel)
	.blkb 2
	.area idata
	.byte 0,16
	.area data(ram, con, rel)
	.blkb 2
	.area idata
	.byte 16,214
	.area data(ram, con, rel)
	.blkb 2
	.area idata
	.byte 56,56
	.area data(ram, con, rel)
	.blkb 2
	.area idata
	.byte 214,16
	.area data(ram, con, rel)
	.blkb 2
	.area idata
	.byte 16,0
	.area data(ram, con, rel)
	.blkb 2
	.area idata
	.byte 0,0
	.area data(ram, con, rel)
	.blkb 2
	.area idata
	.byte 0,0
	.area data(ram, con, rel)
	.blkb 2
	.area idata
	.byte 0,0
	.area data(ram, con, rel)
	.blkb 2
	.area idata
	.byte 0,16
	.area data(ram, con, rel)
	.blkb 2
	.area idata
	.byte 16,16
	.area data(ram, con, rel)
	.blkb 2
	.area idata
	.byte 16,254
	.area data(ram, con, rel)
	.blkb 2
	.area idata
	.byte 16,16
	.area data(ram, con, rel)
	.blkb 2
	.area idata
	.byte 16,16
	.area data(ram, con, rel)
	.blkb 2
	.area idata
	.byte 0,0
	.area data(ram, con, rel)
	.blkb 2
	.area idata
	.byte 0,0
	.area data(ram, con, rel)
	.blkb 2
	.area idata
	.byte 0,0
	.area data(ram, con, rel)
	.blkb 2
	.area idata
	.byte 0,0
	.area data(ram, con, rel)
	.blkb 2
	.area idata
	.byte 0,0
	.area data(ram, con, rel)
	.blkb 2
	.area idata
	.byte 0,0
	.area data(ram, con, rel)
	.blkb 2
	.area idata
	.byte 0,0
	.area data(ram, con, rel)
	.blkb 2
	.area idata
	.byte 0,96
	.area data(ram, con, rel)
	.blkb 2
	.area idata
	.byte 96,32
	.area data(ram, con, rel)
	.blkb 2
	.area idata
	.byte 192,0
	.area data(ram, con, rel)
	.blkb 2
	.area idata
	.byte 0,0
	.area data(ram, con, rel)
	.blkb 2
	.area idata
	.byte 0,0
	.area data(ram, con, rel)
	.blkb 2
	.area idata
	.byte 0,0
	.area data(ram, con, rel)
	.blkb 2
	.area idata
	.byte 0,127
	.area data(ram, con, rel)
	.blkb 2
	.area idata
	.byte 0,0
	.area data(ram, con, rel)
	.blkb 2
	.area idata
	.byte 0,0
	.area data(ram, con, rel)
	.blkb 2
	.area idata
	.byte 0,0
	.area data(ram, con, rel)
	.blkb 2
	.area idata
	.byte 0,0
	.area data(ram, con, rel)
	.blkb 2
	.area idata
	.byte 0,0
	.area data(ram, con, rel)
	.blkb 2
	.area idata
	.byte 0,0
	.area data(ram, con, rel)
	.blkb 2
	.area idata
	.byte 0,0
	.area data(ram, con, rel)
	.blkb 2
	.area idata
	.byte 0,0
	.area data(ram, con, rel)
	.blkb 2
	.area idata
	.byte 0,0
	.area data(ram, con, rel)
	.blkb 2
	.area idata
	.byte 0,96
	.area data(ram, con, rel)
	.blkb 2
	.area idata
	.byte 96,0
	.area data(ram, con, rel)
	.blkb 2
	.area idata
	.byte 0,0
	.area data(ram, con, rel)
	.blkb 2
	.area idata
	.byte 0,1
	.area data(ram, con, rel)
	.blkb 2
	.area idata
	.byte 2,2
	.area data(ram, con, rel)
	.blkb 2
	.area idata
	.byte 4,4
	.area data(ram, con, rel)
	.blkb 2
	.area idata
	.byte 8,8
	.area data(ram, con, rel)
	.blkb 2
	.area idata
	.byte 16,16
	.area data(ram, con, rel)
	.blkb 2
	.area idata
	.byte 32,32
	.area data(ram, con, rel)
	.blkb 2
	.area idata
	.byte 64,64
	.area data(ram, con, rel)
	.blkb 2
	.area idata
	.byte 0,0
	.area data(ram, con, rel)
	.blkb 2
	.area idata
	.byte 0,0
	.area data(ram, con, rel)
	.blkb 2
	.area idata
	.byte 24,36
	.area data(ram, con, rel)
	.blkb 2
	.area idata
	.byte 'B,'B
	.area data(ram, con, rel)
	.blkb 2
	.area idata
	.byte 'B,'B
	.area data(ram, con, rel)
	.blkb 2
	.area idata
	.byte 'B,'B
	.area data(ram, con, rel)
	.blkb 2
	.area idata
	.byte 'B,36
	.area data(ram, con, rel)
	.blkb 2
	.area idata
	.byte 24,0
	.area data(ram, con, rel)
	.blkb 2
	.area idata
	.byte 0,0
	.area data(ram, con, rel)
	.blkb 2
	.area idata
	.byte 0,0
	.area data(ram, con, rel)
	.blkb 2
	.area idata
	.byte 16,'p
	.area data(ram, con, rel)
	.blkb 2
	.area idata
	.byte 16,16
	.area data(ram, con, rel)
	.blkb 2
	.area idata
	.byte 16,16
	.area data(ram, con, rel)
	.blkb 2
	.area idata
	.byte 16,16
	.area data(ram, con, rel)
	.blkb 2
	.area idata
	.byte 16,16
	.area data(ram, con, rel)
	.blkb 2
	.area idata
	.byte 124,0
	.area data(ram, con, rel)
	.blkb 2
	.area idata
	.byte 0,0
	.area data(ram, con, rel)
	.blkb 2
	.area idata
	.byte 0,0
	.area data(ram, con, rel)
	.blkb 2
	.area idata
	.byte 60,'B
	.area data(ram, con, rel)
	.blkb 2
	.area idata
	.byte 'B,'B
	.area data(ram, con, rel)
	.blkb 2
	.area idata
	.byte 4,4
	.area data(ram, con, rel)
	.blkb 2
	.area idata
	.byte 8,16
	.area data(ram, con, rel)
	.blkb 2
	.area idata
	.byte 32,'B
	.area data(ram, con, rel)
	.blkb 2
	.area idata
	.byte 126,0
	.area data(ram, con, rel)
	.blkb 2
	.area idata
	.byte 0,0
	.area data(ram, con, rel)
	.blkb 2
	.area idata
	.byte 0,0
	.area data(ram, con, rel)
	.blkb 2
	.area idata
	.byte 60,'B
	.area data(ram, con, rel)
	.blkb 2
	.area idata
	.byte 'B,4
	.area data(ram, con, rel)
	.blkb 2
	.area idata
	.byte 24,4
	.area data(ram, con, rel)
	.blkb 2
	.area idata
	.byte 2,2
	.area data(ram, con, rel)
	.blkb 2
	.area idata
	.byte 'B,'D
	.area data(ram, con, rel)
	.blkb 2
	.area idata
	.byte 56,0
	.area data(ram, con, rel)
	.blkb 2
	.area idata
	.byte 0,0
	.area data(ram, con, rel)
	.blkb 2
	.area idata
	.byte 0,0
	.area data(ram, con, rel)
	.blkb 2
	.area idata
	.byte 4,12
	.area data(ram, con, rel)
	.blkb 2
	.area idata
	.byte 20,36
	.area data(ram, con, rel)
	.blkb 2
	.area idata
	.byte 36,'D
	.area data(ram, con, rel)
	.blkb 2
	.area idata
	.byte 'D,126
	.area data(ram, con, rel)
	.blkb 2
	.area idata
	.byte 4,4
	.area data(ram, con, rel)
	.blkb 2
	.area idata
	.byte 30,0
	.area data(ram, con, rel)
	.blkb 2
	.area idata
	.byte 0,0
	.area data(ram, con, rel)
	.blkb 2
	.area idata
	.byte 0,0
	.area data(ram, con, rel)
	.blkb 2
	.area idata
	.byte 126,64
	.area data(ram, con, rel)
	.blkb 2
	.area idata
	.byte 64,64
	.area data(ram, con, rel)
	.blkb 2
	.area idata
	.byte 'X,'d
	.area data(ram, con, rel)
	.blkb 2
	.area idata
	.byte 2,2
	.area data(ram, con, rel)
	.blkb 2
	.area idata
	.byte 'B,'D
	.area data(ram, con, rel)
	.blkb 2
	.area idata
	.byte 56,0
	.area data(ram, con, rel)
	.blkb 2
	.area idata
	.byte 0,0
	.area data(ram, con, rel)
	.blkb 2
	.area idata
	.byte 0,0
	.area data(ram, con, rel)
	.blkb 2
	.area idata
	.byte 28,36
	.area data(ram, con, rel)
	.blkb 2
	.area idata
	.byte 64,64
	.area data(ram, con, rel)
	.blkb 2
	.area idata
	.byte 'X,'d
	.area data(ram, con, rel)
	.blkb 2
	.area idata
	.byte 'B,'B
	.area data(ram, con, rel)
	.blkb 2
	.area idata
	.byte 'B,36
	.area data(ram, con, rel)
	.blkb 2
	.area idata
	.byte 24,0
	.area data(ram, con, rel)
	.blkb 2
	.area idata
	.byte 0,0
	.area data(ram, con, rel)
	.blkb 2
	.area idata
	.byte 0,0
	.area data(ram, con, rel)
	.blkb 2
	.area idata
	.byte 126,'D
	.area data(ram, con, rel)
	.blkb 2
	.area idata
	.byte 'D,8
	.area data(ram, con, rel)
	.blkb 2
	.area idata
	.byte 8,16
	.area data(ram, con, rel)
	.blkb 2
	.area idata
	.byte 16,16
	.area data(ram, con, rel)
	.blkb 2
	.area idata
	.byte 16,16
	.area data(ram, con, rel)
	.blkb 2
	.area idata
	.byte 16,0
	.area data(ram, con, rel)
	.blkb 2
	.area idata
	.byte 0,0
	.area data(ram, con, rel)
	.blkb 2
	.area idata
	.byte 0,0
	.area data(ram, con, rel)
	.blkb 2
	.area idata
	.byte 60,'B
	.area data(ram, con, rel)
	.blkb 2
	.area idata
	.byte 'B,'B
	.area data(ram, con, rel)
	.blkb 2
	.area idata
	.byte 36,24
	.area data(ram, con, rel)
	.blkb 2
	.area idata
	.byte 36,'B
	.area data(ram, con, rel)
	.blkb 2
	.area idata
	.byte 'B,'B
	.area data(ram, con, rel)
	.blkb 2
	.area idata
	.byte 60,0
	.area data(ram, con, rel)
	.blkb 2
	.area idata
	.byte 0,0
	.area data(ram, con, rel)
	.blkb 2
	.area idata
	.byte 0,0
	.area data(ram, con, rel)
	.blkb 2
	.area idata
	.byte 24,36
	.area data(ram, con, rel)
	.blkb 2
	.area idata
	.byte 'B,'B
	.area data(ram, con, rel)
	.blkb 2
	.area idata
	.byte 'B,38
	.area data(ram, con, rel)
	.blkb 2
	.area idata
	.byte 26,2
	.area data(ram, con, rel)
	.blkb 2
	.area idata
	.byte 2,36
	.area data(ram, con, rel)
	.blkb 2
	.area idata
	.byte 56,0
	.area data(ram, con, rel)
	.blkb 2
	.area idata
	.byte 0,0
	.area data(ram, con, rel)
	.blkb 2
	.area idata
	.byte 0,0
	.area data(ram, con, rel)
	.blkb 2
	.area idata
	.byte 0,0
	.area data(ram, con, rel)
	.blkb 2
	.area idata
	.byte 0,24
	.area data(ram, con, rel)
	.blkb 2
	.area idata
	.byte 24,0
	.area data(ram, con, rel)
	.blkb 2
	.area idata
	.byte 0,0
	.area data(ram, con, rel)
	.blkb 2
	.area idata
	.byte 0,24
	.area data(ram, con, rel)
	.blkb 2
	.area idata
	.byte 24,0
	.area data(ram, con, rel)
	.blkb 2
	.area idata
	.byte 0,0
	.area data(ram, con, rel)
	.blkb 2
	.area idata
	.byte 0,0
	.area data(ram, con, rel)
	.blkb 2
	.area idata
	.byte 0,0
	.area data(ram, con, rel)
	.blkb 2
	.area idata
	.byte 0,0
	.area data(ram, con, rel)
	.blkb 2
	.area idata
	.byte 16,0
	.area data(ram, con, rel)
	.blkb 2
	.area idata
	.byte 0,0
	.area data(ram, con, rel)
	.blkb 2
	.area idata
	.byte 0,0
	.area data(ram, con, rel)
	.blkb 2
	.area idata
	.byte 16,16
	.area data(ram, con, rel)
	.blkb 2
	.area idata
	.byte 32,0
	.area data(ram, con, rel)
	.blkb 2
	.area idata
	.byte 0,0
	.area data(ram, con, rel)
	.blkb 2
	.area idata
	.byte 2,4
	.area data(ram, con, rel)
	.blkb 2
	.area idata
	.byte 8,16
	.area data(ram, con, rel)
	.blkb 2
	.area idata
	.byte 32,64
	.area data(ram, con, rel)
	.blkb 2
	.area idata
	.byte 32,16
	.area data(ram, con, rel)
	.blkb 2
	.area idata
	.byte 8,4
	.area data(ram, con, rel)
	.blkb 2
	.area idata
	.byte 2,0
	.area data(ram, con, rel)
	.blkb 2
	.area idata
	.byte 0,0
	.area data(ram, con, rel)
	.blkb 2
	.area idata
	.byte 0,0
	.area data(ram, con, rel)
	.blkb 2
	.area idata
	.byte 0,0
	.area data(ram, con, rel)
	.blkb 2
	.area idata
	.byte 0,254
	.area data(ram, con, rel)
	.blkb 2
	.area idata
	.byte 0,0
	.area data(ram, con, rel)
	.blkb 2
	.area idata
	.byte 0,254
	.area data(ram, con, rel)
	.blkb 2
	.area idata
	.byte 0,0
	.area data(ram, con, rel)
	.blkb 2
	.area idata
	.byte 0,0
	.area data(ram, con, rel)
	.blkb 2
	.area idata
	.byte 0,0
	.area data(ram, con, rel)
	.blkb 2
	.area idata
	.byte 0,0
	.area data(ram, con, rel)
	.blkb 2
	.area idata
	.byte 64,32
	.area data(ram, con, rel)
	.blkb 2
	.area idata
	.byte 16,8
	.area data(ram, con, rel)
	.blkb 2
	.area idata
	.byte 4,2
	.area data(ram, con, rel)
	.blkb 2
	.area idata
	.byte 4,8
	.area data(ram, con, rel)
	.blkb 2
	.area idata
	.byte 16,32
	.area data(ram, con, rel)
	.blkb 2
	.area idata
	.byte 64,0
	.area data(ram, con, rel)
	.blkb 2
	.area idata
	.byte 0,0
	.area data(ram, con, rel)
	.blkb 2
	.area idata
	.byte 0,0
	.area data(ram, con, rel)
	.blkb 2
	.area idata
	.byte 60,'B
	.area data(ram, con, rel)
	.blkb 2
	.area idata
	.byte 'B,'b
	.area data(ram, con, rel)
	.blkb 2
	.area idata
	.byte 2,4
	.area data(ram, con, rel)
	.blkb 2
	.area idata
	.byte 8,8
	.area data(ram, con, rel)
	.blkb 2
	.area idata
	.byte 0,24
	.area data(ram, con, rel)
	.blkb 2
	.area idata
	.byte 24,0
	.area data(ram, con, rel)
	.blkb 2
	.area idata
	.byte 0,0
	.area data(ram, con, rel)
	.blkb 2
	.area idata
	.byte 0,0
	.area data(ram, con, rel)
	.blkb 2
	.area idata
	.byte 56,'D
	.area data(ram, con, rel)
	.blkb 2
	.area idata
	.byte 'Z,170
	.area data(ram, con, rel)
	.blkb 2
	.area idata
	.byte 170,170
	.area data(ram, con, rel)
	.blkb 2
	.area idata
	.byte 170,180
	.area data(ram, con, rel)
	.blkb 2
	.area idata
	.byte 'B,'D
	.area data(ram, con, rel)
	.blkb 2
	.area idata
	.byte 56,0
	.area data(ram, con, rel)
	.blkb 2
	.area idata
	.byte 0,0
	.area data(ram, con, rel)
	.blkb 2
	.area idata
	.byte 0,0
	.area data(ram, con, rel)
	.blkb 2
	.area idata
	.byte 16,16
	.area data(ram, con, rel)
	.blkb 2
	.area idata
	.byte 24,40
	.area data(ram, con, rel)
	.blkb 2
	.area idata
	.byte 40,36
	.area data(ram, con, rel)
	.blkb 2
	.area idata
	.byte 60,'D
	.area data(ram, con, rel)
	.blkb 2
	.area idata
	.byte 'B,'B
	.area data(ram, con, rel)
	.blkb 2
	.area idata
	.byte 231,0
	.area data(ram, con, rel)
	.blkb 2
	.area idata
	.byte 0,0
	.area data(ram, con, rel)
	.blkb 2
	.area idata
	.byte 0,0
	.area data(ram, con, rel)
	.blkb 2
	.area idata
	.byte 248,'D
	.area data(ram, con, rel)
	.blkb 2
	.area idata
	.byte 'D,'D
	.area data(ram, con, rel)
	.blkb 2
	.area idata
	.byte 'x,'D
	.area data(ram, con, rel)
	.blkb 2
	.area idata
	.byte 'B,'B
	.area data(ram, con, rel)
	.blkb 2
	.area idata
	.byte 'B,'D
	.area data(ram, con, rel)
	.blkb 2
	.area idata
	.byte 248,0
	.area data(ram, con, rel)
	.blkb 2
	.area idata
	.byte 0,0
	.area data(ram, con, rel)
	.blkb 2
	.area idata
	.byte 0,0
	.area data(ram, con, rel)
	.blkb 2
	.area idata
	.byte 62,'B
	.area data(ram, con, rel)
	.blkb 2
	.area idata
	.byte 'B,128
	.area data(ram, con, rel)
	.blkb 2
	.area idata
	.byte 128,128
	.area data(ram, con, rel)
	.blkb 2
	.area idata
	.byte 128,128
	.area data(ram, con, rel)
	.blkb 2
	.area idata
	.byte 'B,'D
	.area data(ram, con, rel)
	.blkb 2
	.area idata
	.byte 56,0
	.area data(ram, con, rel)
	.blkb 2
	.area idata
	.byte 0,0
	.area data(ram, con, rel)
	.blkb 2
	.area idata
	.byte 0,0
	.area data(ram, con, rel)
	.blkb 2
	.area idata
	.byte 248,'D
	.area data(ram, con, rel)
	.blkb 2
	.area idata
	.byte 'B,'B
	.area data(ram, con, rel)
	.blkb 2
	.area idata
	.byte 'B,'B
	.area data(ram, con, rel)
	.blkb 2
	.area idata
	.byte 'B,'B
	.area data(ram, con, rel)
	.blkb 2
	.area idata
	.byte 'B,'D
	.area data(ram, con, rel)
	.blkb 2
	.area idata
	.byte 248,0
	.area data(ram, con, rel)
	.blkb 2
	.area idata
	.byte 0,0
	.area data(ram, con, rel)
	.blkb 2
	.area idata
	.byte 0,0
	.area data(ram, con, rel)
	.blkb 2
	.area idata
	.byte 252,'B
	.area data(ram, con, rel)
	.blkb 2
	.area idata
	.byte 'H,'H
	.area data(ram, con, rel)
	.blkb 2
	.area idata
	.byte 'x,'H
	.area data(ram, con, rel)
	.blkb 2
	.area idata
	.byte 'H,64
	.area data(ram, con, rel)
	.blkb 2
	.area idata
	.byte 'B,'B
	.area data(ram, con, rel)
	.blkb 2
	.area idata
	.byte 252,0
	.area data(ram, con, rel)
	.blkb 2
	.area idata
	.byte 0,0
	.area data(ram, con, rel)
	.blkb 2
	.area idata
	.byte 0,0
	.area data(ram, con, rel)
	.blkb 2
	.area idata
	.byte 252,'B
	.area data(ram, con, rel)
	.blkb 2
	.area idata
	.byte 'H,'H
	.area data(ram, con, rel)
	.blkb 2
	.area idata
	.byte 'x,'H
	.area data(ram, con, rel)
	.blkb 2
	.area idata
	.byte 'H,64
	.area data(ram, con, rel)
	.blkb 2
	.area idata
	.byte 64,64
	.area data(ram, con, rel)
	.blkb 2
	.area idata
	.byte 224,0
	.area data(ram, con, rel)
	.blkb 2
	.area idata
	.byte 0,0
	.area data(ram, con, rel)
	.blkb 2
	.area idata
	.byte 0,0
	.area data(ram, con, rel)
	.blkb 2
	.area idata
	.byte 60,'D
	.area data(ram, con, rel)
	.blkb 2
	.area idata
	.byte 'D,128
	.area data(ram, con, rel)
	.blkb 2
	.area idata
	.byte 128,128
	.area data(ram, con, rel)
	.blkb 2
	.area idata
	.byte 142,132
	.area data(ram, con, rel)
	.blkb 2
	.area idata
	.byte 'D,'D
	.area data(ram, con, rel)
	.blkb 2
	.area idata
	.byte 56,0
	.area data(ram, con, rel)
	.blkb 2
	.area idata
	.byte 0,0
	.area data(ram, con, rel)
	.blkb 2
	.area idata
	.byte 0,0
	.area data(ram, con, rel)
	.blkb 2
	.area idata
	.byte 231,'B
	.area data(ram, con, rel)
	.blkb 2
	.area idata
	.byte 'B,'B
	.area data(ram, con, rel)
	.blkb 2
	.area idata
	.byte 'B,126
	.area data(ram, con, rel)
	.blkb 2
	.area idata
	.byte 'B,'B
	.area data(ram, con, rel)
	.blkb 2
	.area idata
	.byte 'B,'B
	.area data(ram, con, rel)
	.blkb 2
	.area idata
	.byte 231,0
	.area data(ram, con, rel)
	.blkb 2
	.area idata
	.byte 0,0
	.area data(ram, con, rel)
	.blkb 2
	.area idata
	.byte 0,0
	.area data(ram, con, rel)
	.blkb 2
	.area idata
	.byte 124,16
	.area data(ram, con, rel)
	.blkb 2
	.area idata
	.byte 16,16
	.area data(ram, con, rel)
	.blkb 2
	.area idata
	.byte 16,16
	.area data(ram, con, rel)
	.blkb 2
	.area idata
	.byte 16,16
	.area data(ram, con, rel)
	.blkb 2
	.area idata
	.byte 16,16
	.area data(ram, con, rel)
	.blkb 2
	.area idata
	.byte 124,0
	.area data(ram, con, rel)
	.blkb 2
	.area idata
	.byte 0,0
	.area data(ram, con, rel)
	.blkb 2
	.area idata
	.byte 0,0
	.area data(ram, con, rel)
	.blkb 2
	.area idata
	.byte 62,8
	.area data(ram, con, rel)
	.blkb 2
	.area idata
	.byte 8,8
	.area data(ram, con, rel)
	.blkb 2
	.area idata
	.byte 8,8
	.area data(ram, con, rel)
	.blkb 2
	.area idata
	.byte 8,8
	.area data(ram, con, rel)
	.blkb 2
	.area idata
	.byte 8,8
	.area data(ram, con, rel)
	.blkb 2
	.area idata
	.byte 8,136
	.area data(ram, con, rel)
	.blkb 2
	.area idata
	.byte 240,0
	.area data(ram, con, rel)
	.blkb 2
	.area idata
	.byte 0,0
	.area data(ram, con, rel)
	.blkb 2
	.area idata
	.byte 238,'D
	.area data(ram, con, rel)
	.blkb 2
	.area idata
	.byte 'H,'P
	.area data(ram, con, rel)
	.blkb 2
	.area idata
	.byte 'p,'P
	.area data(ram, con, rel)
	.blkb 2
	.area idata
	.byte 'H,'H
	.area data(ram, con, rel)
	.blkb 2
	.area idata
	.byte 'D,'D
	.area data(ram, con, rel)
	.blkb 2
	.area idata
	.byte 238,0
	.area data(ram, con, rel)
	.blkb 2
	.area idata
	.byte 0,0
	.area data(ram, con, rel)
	.blkb 2
	.area idata
	.byte 0,0
	.area data(ram, con, rel)
	.blkb 2
	.area idata
	.byte 224,64
	.area data(ram, con, rel)
	.blkb 2
	.area idata
	.byte 64,64
	.area data(ram, con, rel)
	.blkb 2
	.area idata
	.byte 64,64
	.area data(ram, con, rel)
	.blkb 2
	.area idata
	.byte 64,64
	.area data(ram, con, rel)
	.blkb 2
	.area idata
	.byte 64,'B
	.area data(ram, con, rel)
	.blkb 2
	.area idata
	.byte 254,0
	.area data(ram, con, rel)
	.blkb 2
	.area idata
	.byte 0,0
	.area data(ram, con, rel)
	.blkb 2
	.area idata
	.byte 0,0
	.area data(ram, con, rel)
	.blkb 2
	.area idata
	.byte 238,'l
	.area data(ram, con, rel)
	.blkb 2
	.area idata
	.byte 'l,'l
	.area data(ram, con, rel)
	.blkb 2
	.area idata
	.byte 'l,'T
	.area data(ram, con, rel)
	.blkb 2
	.area idata
	.byte 'T,'T
	.area data(ram, con, rel)
	.blkb 2
	.area idata
	.byte 'T,'T
	.area data(ram, con, rel)
	.blkb 2
	.area idata
	.byte 214,0
	.area data(ram, con, rel)
	.blkb 2
	.area idata
	.byte 0,0
	.area data(ram, con, rel)
	.blkb 2
	.area idata
	.byte 0,0
	.area data(ram, con, rel)
	.blkb 2
	.area idata
	.byte 199,'b
	.area data(ram, con, rel)
	.blkb 2
	.area idata
	.byte 'b,'R
	.area data(ram, con, rel)
	.blkb 2
	.area idata
	.byte 'R,'J
	.area data(ram, con, rel)
	.blkb 2
	.area idata
	.byte 'J,'J
	.area data(ram, con, rel)
	.blkb 2
	.area idata
	.byte 'F,'F
	.area data(ram, con, rel)
	.blkb 2
	.area idata
	.byte 226,0
	.area data(ram, con, rel)
	.blkb 2
	.area idata
	.byte 0,0
	.area data(ram, con, rel)
	.blkb 2
	.area idata
	.byte 0,0
	.area data(ram, con, rel)
	.blkb 2
	.area idata
	.byte 56,'D
	.area data(ram, con, rel)
	.blkb 2
	.area idata
	.byte 130,130
	.area data(ram, con, rel)
	.blkb 2
	.area idata
	.byte 130,130
	.area data(ram, con, rel)
	.blkb 2
	.area idata
	.byte 130,130
	.area data(ram, con, rel)
	.blkb 2
	.area idata
	.byte 130,'D
	.area data(ram, con, rel)
	.blkb 2
	.area idata
	.byte 56,0
	.area data(ram, con, rel)
	.blkb 2
	.area idata
	.byte 0,0
	.area data(ram, con, rel)
	.blkb 2
	.area idata
	.byte 0,0
	.area data(ram, con, rel)
	.blkb 2
	.area idata
	.byte 252,'B
	.area data(ram, con, rel)
	.blkb 2
	.area idata
	.byte 'B,'B
	.area data(ram, con, rel)
	.blkb 2
	.area idata
	.byte 'B,124
	.area data(ram, con, rel)
	.blkb 2
	.area idata
	.byte 64,64
	.area data(ram, con, rel)
	.blkb 2
	.area idata
	.byte 64,64
	.area data(ram, con, rel)
	.blkb 2
	.area idata
	.byte 224,0
	.area data(ram, con, rel)
	.blkb 2
	.area idata
	.byte 0,0
	.area data(ram, con, rel)
	.blkb 2
	.area idata
	.byte 0,0
	.area data(ram, con, rel)
	.blkb 2
	.area idata
	.byte 56,'D
	.area data(ram, con, rel)
	.blkb 2
	.area idata
	.byte 130,130
	.area data(ram, con, rel)
	.blkb 2
	.area idata
	.byte 130,130
	.area data(ram, con, rel)
	.blkb 2
	.area idata
	.byte 130,178
	.area data(ram, con, rel)
	.blkb 2
	.area idata
	.byte 202,'L
	.area data(ram, con, rel)
	.blkb 2
	.area idata
	.byte 56,6
	.area data(ram, con, rel)
	.blkb 2
	.area idata
	.byte 0,0
	.area data(ram, con, rel)
	.blkb 2
	.area idata
	.byte 0,0
	.area data(ram, con, rel)
	.blkb 2
	.area idata
	.byte 252,'B
	.area data(ram, con, rel)
	.blkb 2
	.area idata
	.byte 'B,'B
	.area data(ram, con, rel)
	.blkb 2
	.area idata
	.byte 124,'H
	.area data(ram, con, rel)
	.blkb 2
	.area idata
	.byte 'H,'D
	.area data(ram, con, rel)
	.blkb 2
	.area idata
	.byte 'D,'B
	.area data(ram, con, rel)
	.blkb 2
	.area idata
	.byte 227,0
	.area data(ram, con, rel)
	.blkb 2
	.area idata
	.byte 0,0
	.area data(ram, con, rel)
	.blkb 2
	.area idata
	.byte 0,0
	.area data(ram, con, rel)
	.blkb 2
	.area idata
	.byte 62,'B
	.area data(ram, con, rel)
	.blkb 2
	.area idata
	.byte 'B,64
	.area data(ram, con, rel)
	.blkb 2
	.area idata
	.byte 32,24
	.area data(ram, con, rel)
	.blkb 2
	.area idata
	.byte 4,2
	.area data(ram, con, rel)
	.blkb 2
	.area idata
	.byte 'B,'B
	.area data(ram, con, rel)
	.blkb 2
	.area idata
	.byte 124,0
	.area data(ram, con, rel)
	.blkb 2
	.area idata
	.byte 0,0
	.area data(ram, con, rel)
	.blkb 2
	.area idata
	.byte 0,0
	.area data(ram, con, rel)
	.blkb 2
	.area idata
	.byte 254,146
	.area data(ram, con, rel)
	.blkb 2
	.area idata
	.byte 16,16
	.area data(ram, con, rel)
	.blkb 2
	.area idata
	.byte 16,16
	.area data(ram, con, rel)
	.blkb 2
	.area idata
	.byte 16,16
	.area data(ram, con, rel)
	.blkb 2
	.area idata
	.byte 16,16
	.area data(ram, con, rel)
	.blkb 2
	.area idata
	.byte 56,0
	.area data(ram, con, rel)
	.blkb 2
	.area idata
	.byte 0,0
	.area data(ram, con, rel)
	.blkb 2
	.area idata
	.byte 0,0
	.area data(ram, con, rel)
	.blkb 2
	.area idata
	.byte 231,'B
	.area data(ram, con, rel)
	.blkb 2
	.area idata
	.byte 'B,'B
	.area data(ram, con, rel)
	.blkb 2
	.area idata
	.byte 'B,'B
	.area data(ram, con, rel)
	.blkb 2
	.area idata
	.byte 'B,'B
	.area data(ram, con, rel)
	.blkb 2
	.area idata
	.byte 'B,'B
	.area data(ram, con, rel)
	.blkb 2
	.area idata
	.byte 60,0
	.area data(ram, con, rel)
	.blkb 2
	.area idata
	.byte 0,0
	.area data(ram, con, rel)
	.blkb 2
	.area idata
	.byte 0,0
	.area data(ram, con, rel)
	.blkb 2
	.area idata
	.byte 231,'B
	.area data(ram, con, rel)
	.blkb 2
	.area idata
	.byte 'B,'D
	.area data(ram, con, rel)
	.blkb 2
	.area idata
	.byte 36,36
	.area data(ram, con, rel)
	.blkb 2
	.area idata
	.byte 40,40
	.area data(ram, con, rel)
	.blkb 2
	.area idata
	.byte 24,16
	.area data(ram, con, rel)
	.blkb 2
	.area idata
	.byte 16,0
	.area data(ram, con, rel)
	.blkb 2
	.area idata
	.byte 0,0
	.area data(ram, con, rel)
	.blkb 2
	.area idata
	.byte 0,0
	.area data(ram, con, rel)
	.blkb 2
	.area idata
	.byte 214,146
	.area data(ram, con, rel)
	.blkb 2
	.area idata
	.byte 146,146
	.area data(ram, con, rel)
	.blkb 2
	.area idata
	.byte 146,170
	.area data(ram, con, rel)
	.blkb 2
	.area idata
	.byte 170,'l
	.area data(ram, con, rel)
	.blkb 2
	.area idata
	.byte 'D,'D
	.area data(ram, con, rel)
	.blkb 2
	.area idata
	.byte 'D,0
	.area data(ram, con, rel)
	.blkb 2
	.area idata
	.byte 0,0
	.area data(ram, con, rel)
	.blkb 2
	.area idata
	.byte 0,0
	.area data(ram, con, rel)
	.blkb 2
	.area idata
	.byte 231,'B
	.area data(ram, con, rel)
	.blkb 2
	.area idata
	.byte 36,36
	.area data(ram, con, rel)
	.blkb 2
	.area idata
	.byte 24,24
	.area data(ram, con, rel)
	.blkb 2
	.area idata
	.byte 24,36
	.area data(ram, con, rel)
	.blkb 2
	.area idata
	.byte 36,'B
	.area data(ram, con, rel)
	.blkb 2
	.area idata
	.byte 231,0
	.area data(ram, con, rel)
	.blkb 2
	.area idata
	.byte 0,0
	.area data(ram, con, rel)
	.blkb 2
	.area idata
	.byte 0,0
	.area data(ram, con, rel)
	.blkb 2
	.area idata
	.byte 238,'D
	.area data(ram, con, rel)
	.blkb 2
	.area idata
	.byte 'D,40
	.area data(ram, con, rel)
	.blkb 2
	.area idata
	.byte 40,16
	.area data(ram, con, rel)
	.blkb 2
	.area idata
	.byte 16,16
	.area data(ram, con, rel)
	.blkb 2
	.area idata
	.byte 16,16
	.area data(ram, con, rel)
	.blkb 2
	.area idata
	.byte 56,0
	.area data(ram, con, rel)
	.blkb 2
	.area idata
	.byte 0,0
	.area data(ram, con, rel)
	.blkb 2
	.area idata
	.byte 0,0
	.area data(ram, con, rel)
	.blkb 2
	.area idata
	.byte 126,132
	.area data(ram, con, rel)
	.blkb 2
	.area idata
	.byte 4,8
	.area data(ram, con, rel)
	.blkb 2
	.area idata
	.byte 8,16
	.area data(ram, con, rel)
	.blkb 2
	.area idata
	.byte 32,32
	.area data(ram, con, rel)
	.blkb 2
	.area idata
	.byte 'B,'B
	.area data(ram, con, rel)
	.blkb 2
	.area idata
	.byte 252,0
	.area data(ram, con, rel)
	.blkb 2
	.area idata
	.byte 0,0
	.area data(ram, con, rel)
	.blkb 2
	.area idata
	.byte 30,16
	.area data(ram, con, rel)
	.blkb 2
	.area idata
	.byte 16,16
	.area data(ram, con, rel)
	.blkb 2
	.area idata
	.byte 16,16
	.area data(ram, con, rel)
	.blkb 2
	.area idata
	.byte 16,16
	.area data(ram, con, rel)
	.blkb 2
	.area idata
	.byte 16,16
	.area data(ram, con, rel)
	.blkb 2
	.area idata
	.byte 16,16
	.area data(ram, con, rel)
	.blkb 2
	.area idata
	.byte 16,30
	.area data(ram, con, rel)
	.blkb 2
	.area idata
	.byte 0,0
	.area data(ram, con, rel)
	.blkb 2
	.area idata
	.byte 0,64
	.area data(ram, con, rel)
	.blkb 2
	.area idata
	.byte 64,32
	.area data(ram, con, rel)
	.blkb 2
	.area idata
	.byte 32,16
	.area data(ram, con, rel)
	.blkb 2
	.area idata
	.byte 16,16
	.area data(ram, con, rel)
	.blkb 2
	.area idata
	.byte 8,8
	.area data(ram, con, rel)
	.blkb 2
	.area idata
	.byte 4,4
	.area data(ram, con, rel)
	.blkb 2
	.area idata
	.byte 4,2
	.area data(ram, con, rel)
	.blkb 2
	.area idata
	.byte 2,0
	.area data(ram, con, rel)
	.blkb 2
	.area idata
	.byte 'x,8
	.area data(ram, con, rel)
	.blkb 2
	.area idata
	.byte 8,8
	.area data(ram, con, rel)
	.blkb 2
	.area idata
	.byte 8,8
	.area data(ram, con, rel)
	.blkb 2
	.area idata
	.byte 8,8
	.area data(ram, con, rel)
	.blkb 2
	.area idata
	.byte 8,8
	.area data(ram, con, rel)
	.blkb 2
	.area idata
	.byte 8,8
	.area data(ram, con, rel)
	.blkb 2
	.area idata
	.byte 8,'x
	.area data(ram, con, rel)
	.blkb 2
	.area idata
	.byte 0,0
	.area data(ram, con, rel)
	.blkb 2
	.area idata
	.byte 28,34
	.area data(ram, con, rel)
	.blkb 2
	.area idata
	.byte 0,0
	.area data(ram, con, rel)
	.blkb 2
	.area idata
	.byte 0,0
	.area data(ram, con, rel)
	.blkb 2
	.area idata
	.byte 0,0
	.area data(ram, con, rel)
	.blkb 2
	.area idata
	.byte 0,0
	.area data(ram, con, rel)
	.blkb 2
	.area idata
	.byte 0,0
	.area data(ram, con, rel)
	.blkb 2
	.area idata
	.byte 0,0
	.area data(ram, con, rel)
	.blkb 2
	.area idata
	.byte 0,0
	.area data(ram, con, rel)
	.blkb 2
	.area idata
	.byte 0,0
	.area data(ram, con, rel)
	.blkb 2
	.area idata
	.byte 0,0
	.area data(ram, con, rel)
	.blkb 2
	.area idata
	.byte 0,0
	.area data(ram, con, rel)
	.blkb 2
	.area idata
	.byte 0,0
	.area data(ram, con, rel)
	.blkb 2
	.area idata
	.byte 0,0
	.area data(ram, con, rel)
	.blkb 2
	.area idata
	.byte 0,0
	.area data(ram, con, rel)
	.blkb 2
	.area idata
	.byte 0,0
	.area data(ram, con, rel)
	.blkb 2
	.area idata
	.byte 255,0
	.area data(ram, con, rel)
	.blkb 2
	.area idata
	.byte 96,16
	.area data(ram, con, rel)
	.blkb 2
	.area idata
	.byte 0,0
	.area data(ram, con, rel)
	.blkb 2
	.area idata
	.byte 0,0
	.area data(ram, con, rel)
	.blkb 2
	.area idata
	.byte 0,0
	.area data(ram, con, rel)
	.blkb 2
	.area idata
	.byte 0,0
	.area data(ram, con, rel)
	.blkb 2
	.area idata
	.byte 0,0
	.area data(ram, con, rel)
	.blkb 2
	.area idata
	.byte 0,0
	.area data(ram, con, rel)
	.blkb 2
	.area idata
	.byte 0,0
	.area data(ram, con, rel)
	.blkb 2
	.area idata
	.byte 0,0
	.area data(ram, con, rel)
	.blkb 2
	.area idata
	.byte 0,0
	.area data(ram, con, rel)
	.blkb 2
	.area idata
	.byte 0,0
	.area data(ram, con, rel)
	.blkb 2
	.area idata
	.byte 60,'B
	.area data(ram, con, rel)
	.blkb 2
	.area idata
	.byte 30,34
	.area data(ram, con, rel)
	.blkb 2
	.area idata
	.byte 'B,'B
	.area data(ram, con, rel)
	.blkb 2
	.area idata
	.byte 63,0
	.area data(ram, con, rel)
	.blkb 2
	.area idata
	.byte 0,0
	.area data(ram, con, rel)
	.blkb 2
	.area idata
	.byte 0,0
	.area data(ram, con, rel)
	.blkb 2
	.area idata
	.byte 192,64
	.area data(ram, con, rel)
	.blkb 2
	.area idata
	.byte 64,64
	.area data(ram, con, rel)
	.blkb 2
	.area idata
	.byte 'X,'d
	.area data(ram, con, rel)
	.blkb 2
	.area idata
	.byte 'B,'B
	.area data(ram, con, rel)
	.blkb 2
	.area idata
	.byte 'B,'d
	.area data(ram, con, rel)
	.blkb 2
	.area idata
	.byte 'X,0
	.area data(ram, con, rel)
	.blkb 2
	.area idata
	.byte 0,0
	.area data(ram, con, rel)
	.blkb 2
	.area idata
	.byte 0,0
	.area data(ram, con, rel)
	.blkb 2
	.area idata
	.byte 0,0
	.area data(ram, con, rel)
	.blkb 2
	.area idata
	.byte 0,0
	.area data(ram, con, rel)
	.blkb 2
	.area idata
	.byte 28,34
	.area data(ram, con, rel)
	.blkb 2
	.area idata
	.byte 64,64
	.area data(ram, con, rel)
	.blkb 2
	.area idata
	.byte 64,34
	.area data(ram, con, rel)
	.blkb 2
	.area idata
	.byte 28,0
	.area data(ram, con, rel)
	.blkb 2
	.area idata
	.byte 0,0
	.area data(ram, con, rel)
	.blkb 2
	.area idata
	.byte 0,0
	.area data(ram, con, rel)
	.blkb 2
	.area idata
	.byte 6,2
	.area data(ram, con, rel)
	.blkb 2
	.area idata
	.byte 2,2
	.area data(ram, con, rel)
	.blkb 2
	.area idata
	.byte 30,34
	.area data(ram, con, rel)
	.blkb 2
	.area idata
	.byte 'B,'B
	.area data(ram, con, rel)
	.blkb 2
	.area idata
	.byte 'B,38
	.area data(ram, con, rel)
	.blkb 2
	.area idata
	.byte 27,0
	.area data(ram, con, rel)
	.blkb 2
	.area idata
	.byte 0,0
	.area data(ram, con, rel)
	.blkb 2
	.area idata
	.byte 0,0
	.area data(ram, con, rel)
	.blkb 2
	.area idata
	.byte 0,0
	.area data(ram, con, rel)
	.blkb 2
	.area idata
	.byte 0,0
	.area data(ram, con, rel)
	.blkb 2
	.area idata
	.byte 60,'B
	.area data(ram, con, rel)
	.blkb 2
	.area idata
	.byte 126,64
	.area data(ram, con, rel)
	.blkb 2
	.area idata
	.byte 64,'B
	.area data(ram, con, rel)
	.blkb 2
	.area idata
	.byte 60,0
	.area data(ram, con, rel)
	.blkb 2
	.area idata
	.byte 0,0
	.area data(ram, con, rel)
	.blkb 2
	.area idata
	.byte 0,0
	.area data(ram, con, rel)
	.blkb 2
	.area idata
	.byte 15,17
	.area data(ram, con, rel)
	.blkb 2
	.area idata
	.byte 16,16
	.area data(ram, con, rel)
	.blkb 2
	.area idata
	.byte 126,16
	.area data(ram, con, rel)
	.blkb 2
	.area idata
	.byte 16,16
	.area data(ram, con, rel)
	.blkb 2
	.area idata
	.byte 16,16
	.area data(ram, con, rel)
	.blkb 2
	.area idata
	.byte 124,0
	.area data(ram, con, rel)
	.blkb 2
	.area idata
	.byte 0,0
	.area data(ram, con, rel)
	.blkb 2
	.area idata
	.byte 0,0
	.area data(ram, con, rel)
	.blkb 2
	.area idata
	.byte 0,0
	.area data(ram, con, rel)
	.blkb 2
	.area idata
	.byte 0,0
	.area data(ram, con, rel)
	.blkb 2
	.area idata
	.byte 62,'D
	.area data(ram, con, rel)
	.blkb 2
	.area idata
	.byte 'D,56
	.area data(ram, con, rel)
	.blkb 2
	.area idata
	.byte 64,60
	.area data(ram, con, rel)
	.blkb 2
	.area idata
	.byte 'B,'B
	.area data(ram, con, rel)
	.blkb 2
	.area idata
	.byte 60,0
	.area data(ram, con, rel)
	.blkb 2
	.area idata
	.byte 0,0
	.area data(ram, con, rel)
	.blkb 2
	.area idata
	.byte 192,64
	.area data(ram, con, rel)
	.blkb 2
	.area idata
	.byte 64,64
	.area data(ram, con, rel)
	.blkb 2
	.area idata
	.byte 92,'b
	.area data(ram, con, rel)
	.blkb 2
	.area idata
	.byte 'B,'B
	.area data(ram, con, rel)
	.blkb 2
	.area idata
	.byte 'B,'B
	.area data(ram, con, rel)
	.blkb 2
	.area idata
	.byte 231,0
	.area data(ram, con, rel)
	.blkb 2
	.area idata
	.byte 0,0
	.area data(ram, con, rel)
	.blkb 2
	.area idata
	.byte 0,0
	.area data(ram, con, rel)
	.blkb 2
	.area idata
	.byte 48,48
	.area data(ram, con, rel)
	.blkb 2
	.area idata
	.byte 0,0
	.area data(ram, con, rel)
	.blkb 2
	.area idata
	.byte 'p,16
	.area data(ram, con, rel)
	.blkb 2
	.area idata
	.byte 16,16
	.area data(ram, con, rel)
	.blkb 2
	.area idata
	.byte 16,16
	.area data(ram, con, rel)
	.blkb 2
	.area idata
	.byte 124,0
	.area data(ram, con, rel)
	.blkb 2
	.area idata
	.byte 0,0
	.area data(ram, con, rel)
	.blkb 2
	.area idata
	.byte 0,0
	.area data(ram, con, rel)
	.blkb 2
	.area idata
	.byte 12,12
	.area data(ram, con, rel)
	.blkb 2
	.area idata
	.byte 0,0
	.area data(ram, con, rel)
	.blkb 2
	.area idata
	.byte 28,4
	.area data(ram, con, rel)
	.blkb 2
	.area idata
	.byte 4,4
	.area data(ram, con, rel)
	.blkb 2
	.area idata
	.byte 4,4
	.area data(ram, con, rel)
	.blkb 2
	.area idata
	.byte 4,'D
	.area data(ram, con, rel)
	.blkb 2
	.area idata
	.byte 'x,0
	.area data(ram, con, rel)
	.blkb 2
	.area idata
	.byte 0,0
	.area data(ram, con, rel)
	.blkb 2
	.area idata
	.byte 192,64
	.area data(ram, con, rel)
	.blkb 2
	.area idata
	.byte 64,64
	.area data(ram, con, rel)
	.blkb 2
	.area idata
	.byte 'N,'H
	.area data(ram, con, rel)
	.blkb 2
	.area idata
	.byte 'P,'h
	.area data(ram, con, rel)
	.blkb 2
	.area idata
	.byte 'H,'D
	.area data(ram, con, rel)
	.blkb 2
	.area idata
	.byte 238,0
	.area data(ram, con, rel)
	.blkb 2
	.area idata
	.byte 0,0
	.area data(ram, con, rel)
	.blkb 2
	.area idata
	.byte 0,0
	.area data(ram, con, rel)
	.blkb 2
	.area idata
	.byte 'p,16
	.area data(ram, con, rel)
	.blkb 2
	.area idata
	.byte 16,16
	.area data(ram, con, rel)
	.blkb 2
	.area idata
	.byte 16,16
	.area data(ram, con, rel)
	.blkb 2
	.area idata
	.byte 16,16
	.area data(ram, con, rel)
	.blkb 2
	.area idata
	.byte 16,16
	.area data(ram, con, rel)
	.blkb 2
	.area idata
	.byte 124,0
	.area data(ram, con, rel)
	.blkb 2
	.area idata
	.byte 0,0
	.area data(ram, con, rel)
	.blkb 2
	.area idata
	.byte 0,0
	.area data(ram, con, rel)
	.blkb 2
	.area idata
	.byte 0,0
	.area data(ram, con, rel)
	.blkb 2
	.area idata
	.byte 0,0
	.area data(ram, con, rel)
	.blkb 2
	.area idata
	.byte 254,'I
	.area data(ram, con, rel)
	.blkb 2
	.area idata
	.byte 'I,'I
	.area data(ram, con, rel)
	.blkb 2
	.area idata
	.byte 'I,'I
	.area data(ram, con, rel)
	.blkb 2
	.area idata
	.byte 237,0
	.area data(ram, con, rel)
	.blkb 2
	.area idata
	.byte 0,0
	.area data(ram, con, rel)
	.blkb 2
	.area idata
	.byte 0,0
	.area data(ram, con, rel)
	.blkb 2
	.area idata
	.byte 0,0
	.area data(ram, con, rel)
	.blkb 2
	.area idata
	.byte 0,0
	.area data(ram, con, rel)
	.blkb 2
	.area idata
	.byte 220,'b
	.area data(ram, con, rel)
	.blkb 2
	.area idata
	.byte 'B,'B
	.area data(ram, con, rel)
	.blkb 2
	.area idata
	.byte 'B,'B
	.area data(ram, con, rel)
	.blkb 2
	.area idata
	.byte 231,0
	.area data(ram, con, rel)
	.blkb 2
	.area idata
	.byte 0,0
	.area data(ram, con, rel)
	.blkb 2
	.area idata
	.byte 0,0
	.area data(ram, con, rel)
	.blkb 2
	.area idata
	.byte 0,0
	.area data(ram, con, rel)
	.blkb 2
	.area idata
	.byte 0,0
	.area data(ram, con, rel)
	.blkb 2
	.area idata
	.byte 60,'B
	.area data(ram, con, rel)
	.blkb 2
	.area idata
	.byte 'B,'B
	.area data(ram, con, rel)
	.blkb 2
	.area idata
	.byte 'B,'B
	.area data(ram, con, rel)
	.blkb 2
	.area idata
	.byte 60,0
	.area data(ram, con, rel)
	.blkb 2
	.area idata
	.byte 0,0
	.area data(ram, con, rel)
	.blkb 2
	.area idata
	.byte 0,0
	.area data(ram, con, rel)
	.blkb 2
	.area idata
	.byte 0,0
	.area data(ram, con, rel)
	.blkb 2
	.area idata
	.byte 0,0
	.area data(ram, con, rel)
	.blkb 2
	.area idata
	.byte 216,'d
	.area data(ram, con, rel)
	.blkb 2
	.area idata
	.byte 'B,'B
	.area data(ram, con, rel)
	.blkb 2
	.area idata
	.byte 'B,'D
	.area data(ram, con, rel)
	.blkb 2
	.area idata
	.byte 'x,64
	.area data(ram, con, rel)
	.blkb 2
	.area idata
	.byte 224,0
	.area data(ram, con, rel)
	.blkb 2
	.area idata
	.byte 0,0
	.area data(ram, con, rel)
	.blkb 2
	.area idata
	.byte 0,0
	.area data(ram, con, rel)
	.blkb 2
	.area idata
	.byte 0,0
	.area data(ram, con, rel)
	.blkb 2
	.area idata
	.byte 30,34
	.area data(ram, con, rel)
	.blkb 2
	.area idata
	.byte 'B,'B
	.area data(ram, con, rel)
	.blkb 2
	.area idata
	.byte 'B,34
	.area data(ram, con, rel)
	.blkb 2
	.area idata
	.byte 30,2
	.area data(ram, con, rel)
	.blkb 2
	.area idata
	.byte 7,0
	.area data(ram, con, rel)
	.blkb 2
	.area idata
	.byte 0,0
	.area data(ram, con, rel)
	.blkb 2
	.area idata
	.byte 0,0
	.area data(ram, con, rel)
	.blkb 2
	.area idata
	.byte 0,0
	.area data(ram, con, rel)
	.blkb 2
	.area idata
	.byte 238,50
	.area data(ram, con, rel)
	.blkb 2
	.area idata
	.byte 32,32
	.area data(ram, con, rel)
	.blkb 2
	.area idata
	.byte 32,32
	.area data(ram, con, rel)
	.blkb 2
	.area idata
	.byte 248,0
	.area data(ram, con, rel)
	.blkb 2
	.area idata
	.byte 0,0
	.area data(ram, con, rel)
	.blkb 2
	.area idata
	.byte 0,0
	.area data(ram, con, rel)
	.blkb 2
	.area idata
	.byte 0,0
	.area data(ram, con, rel)
	.blkb 2
	.area idata
	.byte 0,0
	.area data(ram, con, rel)
	.blkb 2
	.area idata
	.byte 62,'B
	.area data(ram, con, rel)
	.blkb 2
	.area idata
	.byte 64,60
	.area data(ram, con, rel)
	.blkb 2
	.area idata
	.byte 2,'B
	.area data(ram, con, rel)
	.blkb 2
	.area idata
	.byte 124,0
	.area data(ram, con, rel)
	.blkb 2
	.area idata
	.byte 0,0
	.area data(ram, con, rel)
	.blkb 2
	.area idata
	.byte 0,0
	.area data(ram, con, rel)
	.blkb 2
	.area idata
	.byte 0,0
	.area data(ram, con, rel)
	.blkb 2
	.area idata
	.byte 16,16
	.area data(ram, con, rel)
	.blkb 2
	.area idata
	.byte 124,16
	.area data(ram, con, rel)
	.blkb 2
	.area idata
	.byte 16,16
	.area data(ram, con, rel)
	.blkb 2
	.area idata
	.byte 16,16
	.area data(ram, con, rel)
	.blkb 2
	.area idata
	.byte 12,0
	.area data(ram, con, rel)
	.blkb 2
	.area idata
	.byte 0,0
	.area data(ram, con, rel)
	.blkb 2
	.area idata
	.byte 0,0
	.area data(ram, con, rel)
	.blkb 2
	.area idata
	.byte 0,0
	.area data(ram, con, rel)
	.blkb 2
	.area idata
	.byte 0,0
	.area data(ram, con, rel)
	.blkb 2
	.area idata
	.byte 198,'B
	.area data(ram, con, rel)
	.blkb 2
	.area idata
	.byte 'B,'B
	.area data(ram, con, rel)
	.blkb 2
	.area idata
	.byte 'B,'F
	.area data(ram, con, rel)
	.blkb 2
	.area idata
	.byte 59,0
	.area data(ram, con, rel)
	.blkb 2
	.area idata
	.byte 0,0
	.area data(ram, con, rel)
	.blkb 2
	.area idata
	.byte 0,0
	.area data(ram, con, rel)
	.blkb 2
	.area idata
	.byte 0,0
	.area data(ram, con, rel)
	.blkb 2
	.area idata
	.byte 0,0
	.area data(ram, con, rel)
	.blkb 2
	.area idata
	.byte 231,'B
	.area data(ram, con, rel)
	.blkb 2
	.area idata
	.byte 36,36
	.area data(ram, con, rel)
	.blkb 2
	.area idata
	.byte 40,16
	.area data(ram, con, rel)
	.blkb 2
	.area idata
	.byte 16,0
	.area data(ram, con, rel)
	.blkb 2
	.area idata
	.byte 0,0
	.area data(ram, con, rel)
	.blkb 2
	.area idata
	.byte 0,0
	.area data(ram, con, rel)
	.blkb 2
	.area idata
	.byte 0,0
	.area data(ram, con, rel)
	.blkb 2
	.area idata
	.byte 0,0
	.area data(ram, con, rel)
	.blkb 2
	.area idata
	.byte 215,146
	.area data(ram, con, rel)
	.blkb 2
	.area idata
	.byte 146,170
	.area data(ram, con, rel)
	.blkb 2
	.area idata
	.byte 170,'D
	.area data(ram, con, rel)
	.blkb 2
	.area idata
	.byte 'D,0
	.area data(ram, con, rel)
	.blkb 2
	.area idata
	.byte 0,0
	.area data(ram, con, rel)
	.blkb 2
	.area idata
	.byte 0,0
	.area data(ram, con, rel)
	.blkb 2
	.area idata
	.byte 0,0
	.area data(ram, con, rel)
	.blkb 2
	.area idata
	.byte 0,0
	.area data(ram, con, rel)
	.blkb 2
	.area idata
	.byte 'n,36
	.area data(ram, con, rel)
	.blkb 2
	.area idata
	.byte 24,24
	.area data(ram, con, rel)
	.blkb 2
	.area idata
	.byte 24,36
	.area data(ram, con, rel)
	.blkb 2
	.area idata
	.byte 'v,0
	.area data(ram, con, rel)
	.blkb 2
	.area idata
	.byte 0,0
	.area data(ram, con, rel)
	.blkb 2
	.area idata
	.byte 0,0
	.area data(ram, con, rel)
	.blkb 2
	.area idata
	.byte 0,0
	.area data(ram, con, rel)
	.blkb 2
	.area idata
	.byte 0,0
	.area data(ram, con, rel)
	.blkb 2
	.area idata
	.byte 231,'B
	.area data(ram, con, rel)
	.blkb 2
	.area idata
	.byte 36,36
	.area data(ram, con, rel)
	.blkb 2
	.area idata
	.byte 40,24
	.area data(ram, con, rel)
	.blkb 2
	.area idata
	.byte 16,16
	.area data(ram, con, rel)
	.blkb 2
	.area idata
	.byte 224,0
	.area data(ram, con, rel)
	.blkb 2
	.area idata
	.byte 0,0
	.area data(ram, con, rel)
	.blkb 2
	.area idata
	.byte 0,0
	.area data(ram, con, rel)
	.blkb 2
	.area idata
	.byte 0,0
	.area data(ram, con, rel)
	.blkb 2
	.area idata
	.byte 126,'D
	.area data(ram, con, rel)
	.blkb 2
	.area idata
	.byte 8,16
	.area data(ram, con, rel)
	.blkb 2
	.area idata
	.byte 16,34
	.area data(ram, con, rel)
	.blkb 2
	.area idata
	.byte 126,0
	.area data(ram, con, rel)
	.blkb 2
	.area idata
	.byte 0,0
	.area data(ram, con, rel)
	.blkb 2
	.area idata
	.byte 3,4
	.area data(ram, con, rel)
	.blkb 2
	.area idata
	.byte 4,4
	.area data(ram, con, rel)
	.blkb 2
	.area idata
	.byte 4,4
	.area data(ram, con, rel)
	.blkb 2
	.area idata
	.byte 8,4
	.area data(ram, con, rel)
	.blkb 2
	.area idata
	.byte 4,4
	.area data(ram, con, rel)
	.blkb 2
	.area idata
	.byte 4,4
	.area data(ram, con, rel)
	.blkb 2
	.area idata
	.byte 4,3
	.area data(ram, con, rel)
	.blkb 2
	.area idata
	.byte 0,0
	.area data(ram, con, rel)
	.blkb 2
	.area idata
	.byte 8,8
	.area data(ram, con, rel)
	.blkb 2
	.area idata
	.byte 8,8
	.area data(ram, con, rel)
	.blkb 2
	.area idata
	.byte 8,8
	.area data(ram, con, rel)
	.blkb 2
	.area idata
	.byte 8,8
	.area data(ram, con, rel)
	.blkb 2
	.area idata
	.byte 8,8
	.area data(ram, con, rel)
	.blkb 2
	.area idata
	.byte 8,8
	.area data(ram, con, rel)
	.blkb 2
	.area idata
	.byte 8,8
	.area data(ram, con, rel)
	.blkb 2
	.area idata
	.byte 8,0
	.area data(ram, con, rel)
	.blkb 2
	.area idata
	.byte 96,16
	.area data(ram, con, rel)
	.blkb 2
	.area idata
	.byte 16,16
	.area data(ram, con, rel)
	.blkb 2
	.area idata
	.byte 16,16
	.area data(ram, con, rel)
	.blkb 2
	.area idata
	.byte 8,16
	.area data(ram, con, rel)
	.blkb 2
	.area idata
	.byte 16,16
	.area data(ram, con, rel)
	.blkb 2
	.area idata
	.byte 16,16
	.area data(ram, con, rel)
	.blkb 2
	.area idata
	.byte 16,96
	.area data(ram, con, rel)
	.blkb 2
	.area idata
	.byte 0,0
	.area data(ram, con, rel)
	.blkb 2
	.area idata
	.byte 'L,'C
	.area data(ram, con, rel)
	.blkb 2
	.area idata
	.byte 0,0
	.area data(ram, con, rel)
	.blkb 2
	.area idata
	.byte 0,0
	.area data(ram, con, rel)
	.blkb 2
	.area idata
	.byte 0,0
	.area data(ram, con, rel)
	.blkb 2
	.area idata
	.byte 0,0
	.area data(ram, con, rel)
	.blkb 2
	.area idata
	.byte 0,0
	.area data(ram, con, rel)
	.blkb 2
	.area idata
	.byte 0,0
	.area data(ram, con, rel)
	.blkb 2
	.area idata
	.byte 0,0
	.area data(ram, con, rel)
	.blkb 2
	.area idata
	.byte 0,0
	.area data(ram, con, rel)
	.blkb 2
	.area idata
	.byte 0,0
	.area data(ram, con, rel)
	.blkb 2
	.area idata
	.byte 0,0
	.area data(ram, con, rel)
	.blkb 2
	.area idata
	.byte 0,0
	.area data(ram, con, rel)
	.blkb 2
	.area idata
	.byte 0,0
	.area data(ram, con, rel)
	.blkb 2
	.area idata
	.byte 0,0
	.area data(ram, con, rel)
	.blkb 2
	.area idata
	.byte 0,0
	.area data(ram, con, rel)
	.blkb 2
	.area idata
	.byte 0,0
	.area data(ram, con, rel)
	.dbfile C:/icc/include/ascii8x16.h
	.dbsym e ascii _ascii A[2048:2048]c
_GB2312::
	.blkb 2
	.area idata
	.byte 8,0
	.area data(ram, con, rel)
	.dbfile C:/icc/include/ascii8x16.h
	.blkb 2
	.area idata
	.byte 15,252
	.area data(ram, con, rel)
	.dbfile C:/icc/include/ascii8x16.h
	.blkb 2
	.area idata
	.byte 16,128
	.area data(ram, con, rel)
	.dbfile C:/icc/include/ascii8x16.h
	.blkb 2
	.area idata
	.byte 16,128
	.area data(ram, con, rel)
	.dbfile C:/icc/include/ascii8x16.h
	.blkb 2
	.area idata
	.byte 32,128
	.area data(ram, con, rel)
	.dbfile C:/icc/include/ascii8x16.h
	.blkb 2
	.area idata
	.byte 'O,248
	.area data(ram, con, rel)
	.dbfile C:/icc/include/ascii8x16.h
	.blkb 2
	.area idata
	.byte 136,128
	.area data(ram, con, rel)
	.dbfile C:/icc/include/ascii8x16.h
	.blkb 2
	.area idata
	.byte 8,128
	.area data(ram, con, rel)
	.dbfile C:/icc/include/ascii8x16.h
	.blkb 2
	.area idata
	.byte 8,128
	.area data(ram, con, rel)
	.dbfile C:/icc/include/ascii8x16.h
	.blkb 2
	.area idata
	.byte 8,128
	.area data(ram, con, rel)
	.dbfile C:/icc/include/ascii8x16.h
	.blkb 2
	.area idata
	.byte 255,254
	.area data(ram, con, rel)
	.dbfile C:/icc/include/ascii8x16.h
	.blkb 2
	.area idata
	.byte 0,128
	.area data(ram, con, rel)
	.dbfile C:/icc/include/ascii8x16.h
	.blkb 2
	.area idata
	.byte 0,128
	.area data(ram, con, rel)
	.dbfile C:/icc/include/ascii8x16.h
	.blkb 2
	.area idata
	.byte 0,128
	.area data(ram, con, rel)
	.dbfile C:/icc/include/ascii8x16.h
	.blkb 2
	.area idata
	.byte 0,128
	.area data(ram, con, rel)
	.dbfile C:/icc/include/ascii8x16.h
	.blkb 2
	.area idata
	.byte 0,128
	.area data(ram, con, rel)
	.dbfile C:/icc/include/ascii8x16.h
	.blkb 2
	.area idata
	.byte 7,240
	.area data(ram, con, rel)
	.dbfile C:/icc/include/ascii8x16.h
	.blkb 2
	.area idata
	.byte 4,16
	.area data(ram, con, rel)
	.dbfile C:/icc/include/ascii8x16.h
	.blkb 2
	.area idata
	.byte 4,16
	.area data(ram, con, rel)
	.dbfile C:/icc/include/ascii8x16.h
	.blkb 2
	.area idata
	.byte 4,16
	.area data(ram, con, rel)
	.dbfile C:/icc/include/ascii8x16.h
	.blkb 2
	.area idata
	.byte 7,240
	.area data(ram, con, rel)
	.dbfile C:/icc/include/ascii8x16.h
	.blkb 2
	.area idata
	.byte 4,16
	.area data(ram, con, rel)
	.dbfile C:/icc/include/ascii8x16.h
	.blkb 2
	.area idata
	.byte 4,16
	.area data(ram, con, rel)
	.dbfile C:/icc/include/ascii8x16.h
	.blkb 2
	.area idata
	.byte 4,16
	.area data(ram, con, rel)
	.dbfile C:/icc/include/ascii8x16.h
	.blkb 2
	.area idata
	.byte 7,240
	.area data(ram, con, rel)
	.dbfile C:/icc/include/ascii8x16.h
	.blkb 2
	.area idata
	.byte 4,16
	.area data(ram, con, rel)
	.dbfile C:/icc/include/ascii8x16.h
	.blkb 2
	.area idata
	.byte 8,16
	.area data(ram, con, rel)
	.dbfile C:/icc/include/ascii8x16.h
	.blkb 2
	.area idata
	.byte 8,16
	.area data(ram, con, rel)
	.dbfile C:/icc/include/ascii8x16.h
	.blkb 2
	.area idata
	.byte 16,16
	.area data(ram, con, rel)
	.dbfile C:/icc/include/ascii8x16.h
	.blkb 2
	.area idata
	.byte 32,'P
	.area data(ram, con, rel)
	.dbfile C:/icc/include/ascii8x16.h
	.blkb 2
	.area idata
	.byte 64,32
	.area data(ram, con, rel)
	.dbfile C:/icc/include/ascii8x16.h
	.blkb 2
	.area idata
	.byte 0,0
	.area data(ram, con, rel)
	.dbfile C:/icc/include/ascii8x16.h
	.blkb 2
	.area idata
	.byte 0,0
	.area data(ram, con, rel)
	.dbfile C:/icc/include/ascii8x16.h
	.blkb 2
	.area idata
	.byte 31,240
	.area data(ram, con, rel)
	.dbfile C:/icc/include/ascii8x16.h
	.blkb 2
	.area idata
	.byte 16,16
	.area data(ram, con, rel)
	.dbfile C:/icc/include/ascii8x16.h
	.blkb 2
	.area idata
	.byte 16,16
	.area data(ram, con, rel)
	.dbfile C:/icc/include/ascii8x16.h
	.blkb 2
	.area idata
	.byte 16,16
	.area data(ram, con, rel)
	.dbfile C:/icc/include/ascii8x16.h
	.blkb 2
	.area idata
	.byte 16,16
	.area data(ram, con, rel)
	.dbfile C:/icc/include/ascii8x16.h
	.blkb 2
	.area idata
	.byte 31,240
	.area data(ram, con, rel)
	.dbfile C:/icc/include/ascii8x16.h
	.blkb 2
	.area idata
	.byte 16,16
	.area data(ram, con, rel)
	.dbfile C:/icc/include/ascii8x16.h
	.blkb 2
	.area idata
	.byte 16,16
	.area data(ram, con, rel)
	.dbfile C:/icc/include/ascii8x16.h
	.blkb 2
	.area idata
	.byte 16,16
	.area data(ram, con, rel)
	.dbfile C:/icc/include/ascii8x16.h
	.blkb 2
	.area idata
	.byte 16,16
	.area data(ram, con, rel)
	.dbfile C:/icc/include/ascii8x16.h
	.blkb 2
	.area idata
	.byte 16,16
	.area data(ram, con, rel)
	.dbfile C:/icc/include/ascii8x16.h
	.blkb 2
	.area idata
	.byte 31,240
	.area data(ram, con, rel)
	.dbfile C:/icc/include/ascii8x16.h
	.blkb 2
	.area idata
	.byte 16,16
	.area data(ram, con, rel)
	.dbfile C:/icc/include/ascii8x16.h
	.blkb 2
	.area idata
	.byte 0,0
	.area data(ram, con, rel)
	.dbfile C:/icc/include/ascii8x16.h
	.blkb 2
	.area idata
	.byte 0,0
	.area data(ram, con, rel)
	.dbfile C:/icc/include/ascii8x16.h
	.blkb 2
	.area idata
	.byte 0,16
	.area data(ram, con, rel)
	.dbfile C:/icc/include/ascii8x16.h
	.blkb 2
	.area idata
	.byte 0,16
	.area data(ram, con, rel)
	.dbfile C:/icc/include/ascii8x16.h
	.blkb 2
	.area idata
	.byte 124,16
	.area data(ram, con, rel)
	.dbfile C:/icc/include/ascii8x16.h
	.blkb 2
	.area idata
	.byte 'D,16
	.area data(ram, con, rel)
	.dbfile C:/icc/include/ascii8x16.h
	.blkb 2
	.area idata
	.byte 'G,254
	.area data(ram, con, rel)
	.dbfile C:/icc/include/ascii8x16.h
	.blkb 2
	.area idata
	.byte 'D,16
	.area data(ram, con, rel)
	.dbfile C:/icc/include/ascii8x16.h
	.blkb 2
	.area idata
	.byte 124,16
	.area data(ram, con, rel)
	.dbfile C:/icc/include/ascii8x16.h
	.blkb 2
	.area idata
	.byte 'E,16
	.area data(ram, con, rel)
	.dbfile C:/icc/include/ascii8x16.h
	.blkb 2
	.area idata
	.byte 'D,144
	.area data(ram, con, rel)
	.dbfile C:/icc/include/ascii8x16.h
	.blkb 2
	.area idata
	.byte 'D,144
	.area data(ram, con, rel)
	.dbfile C:/icc/include/ascii8x16.h
	.blkb 2
	.area idata
	.byte 124,16
	.area data(ram, con, rel)
	.dbfile C:/icc/include/ascii8x16.h
	.blkb 2
	.area idata
	.byte 0,16
	.area data(ram, con, rel)
	.dbfile C:/icc/include/ascii8x16.h
	.blkb 2
	.area idata
	.byte 0,16
	.area data(ram, con, rel)
	.dbfile C:/icc/include/ascii8x16.h
	.blkb 2
	.area idata
	.byte 0,16
	.area data(ram, con, rel)
	.dbfile C:/icc/include/ascii8x16.h
	.blkb 2
	.area idata
	.byte 0,'P
	.area data(ram, con, rel)
	.dbfile C:/icc/include/ascii8x16.h
	.blkb 2
	.area idata
	.byte 0,32
	.area data(ram, con, rel)
	.dbfile C:/icc/include/ascii8x16.h
	.blkb 2
	.area idata
	.byte 8,128
	.area data(ram, con, rel)
	.dbfile C:/icc/include/ascii8x16.h
	.blkb 2
	.area idata
	.byte 12,128
	.area data(ram, con, rel)
	.dbfile C:/icc/include/ascii8x16.h
	.blkb 2
	.area idata
	.byte 8,64
	.area data(ram, con, rel)
	.dbfile C:/icc/include/ascii8x16.h
	.blkb 2
	.area idata
	.byte 16,32
	.area data(ram, con, rel)
	.dbfile C:/icc/include/ascii8x16.h
	.blkb 2
	.area idata
	.byte 16,48
	.area data(ram, con, rel)
	.dbfile C:/icc/include/ascii8x16.h
	.blkb 2
	.area idata
	.byte 32,24
	.area data(ram, con, rel)
	.dbfile C:/icc/include/ascii8x16.h
	.blkb 2
	.area idata
	.byte 64,14
	.area data(ram, con, rel)
	.dbfile C:/icc/include/ascii8x16.h
	.blkb 2
	.area idata
	.byte 159,228
	.area data(ram, con, rel)
	.dbfile C:/icc/include/ascii8x16.h
	.blkb 2
	.area idata
	.byte 4,32
	.area data(ram, con, rel)
	.dbfile C:/icc/include/ascii8x16.h
	.blkb 2
	.area idata
	.byte 4,32
	.area data(ram, con, rel)
	.dbfile C:/icc/include/ascii8x16.h
	.blkb 2
	.area idata
	.byte 4,32
	.area data(ram, con, rel)
	.dbfile C:/icc/include/ascii8x16.h
	.blkb 2
	.area idata
	.byte 4,32
	.area data(ram, con, rel)
	.dbfile C:/icc/include/ascii8x16.h
	.blkb 2
	.area idata
	.byte 8,32
	.area data(ram, con, rel)
	.dbfile C:/icc/include/ascii8x16.h
	.blkb 2
	.area idata
	.byte 16,160
	.area data(ram, con, rel)
	.dbfile C:/icc/include/ascii8x16.h
	.blkb 2
	.area idata
	.byte 32,64
	.area data(ram, con, rel)
	.dbfile C:/icc/include/ascii8x16.h
	.blkb 2
	.area idata
	.byte 64,0
	.area data(ram, con, rel)
	.dbfile C:/icc/include/ascii8x16.h
	.blkb 2
	.area idata
	.byte 12,32
	.area data(ram, con, rel)
	.dbfile C:/icc/include/ascii8x16.h
	.blkb 2
	.area idata
	.byte 240,32
	.area data(ram, con, rel)
	.dbfile C:/icc/include/ascii8x16.h
	.blkb 2
	.area idata
	.byte 16,32
	.area data(ram, con, rel)
	.dbfile C:/icc/include/ascii8x16.h
	.blkb 2
	.area idata
	.byte 17,40
	.area data(ram, con, rel)
	.dbfile C:/icc/include/ascii8x16.h
	.blkb 2
	.area idata
	.byte 253,164
	.area data(ram, con, rel)
	.dbfile C:/icc/include/ascii8x16.h
	.blkb 2
	.area idata
	.byte 17,34
	.area data(ram, con, rel)
	.dbfile C:/icc/include/ascii8x16.h
	.blkb 2
	.area idata
	.byte 50,34
	.area data(ram, con, rel)
	.dbfile C:/icc/include/ascii8x16.h
	.blkb 2
	.area idata
	.byte 58,32
	.area data(ram, con, rel)
	.dbfile C:/icc/include/ascii8x16.h
	.blkb 2
	.area idata
	.byte 'T,34
	.area data(ram, con, rel)
	.dbfile C:/icc/include/ascii8x16.h
	.blkb 2
	.area idata
	.byte 'T,34
	.area data(ram, con, rel)
	.dbfile C:/icc/include/ascii8x16.h
	.blkb 2
	.area idata
	.byte 144,4
	.area data(ram, con, rel)
	.dbfile C:/icc/include/ascii8x16.h
	.blkb 2
	.area idata
	.byte 16,8
	.area data(ram, con, rel)
	.dbfile C:/icc/include/ascii8x16.h
	.blkb 2
	.area idata
	.byte 16,16
	.area data(ram, con, rel)
	.dbfile C:/icc/include/ascii8x16.h
	.blkb 2
	.area idata
	.byte 16,96
	.area data(ram, con, rel)
	.dbfile C:/icc/include/ascii8x16.h
	.blkb 2
	.area idata
	.byte 17,128
	.area data(ram, con, rel)
	.dbfile C:/icc/include/ascii8x16.h
	.blkb 2
	.area idata
	.byte 22,0
	.area data(ram, con, rel)
	.dbfile C:/icc/include/ascii8x16.h
	.blkb 2
	.area idata
	.byte 0,8
	.area data(ram, con, rel)
	.dbfile C:/icc/include/ascii8x16.h
	.blkb 2
	.area idata
	.byte 63,252
	.area data(ram, con, rel)
	.dbfile C:/icc/include/ascii8x16.h
	.blkb 2
	.area idata
	.byte 32,8
	.area data(ram, con, rel)
	.dbfile C:/icc/include/ascii8x16.h
	.blkb 2
	.area idata
	.byte 63,248
	.area data(ram, con, rel)
	.dbfile C:/icc/include/ascii8x16.h
	.blkb 2
	.area idata
	.byte 32,8
	.area data(ram, con, rel)
	.dbfile C:/icc/include/ascii8x16.h
	.blkb 2
	.area idata
	.byte 63,248
	.area data(ram, con, rel)
	.dbfile C:/icc/include/ascii8x16.h
	.blkb 2
	.area idata
	.byte 1,0
	.area data(ram, con, rel)
	.dbfile C:/icc/include/ascii8x16.h
	.blkb 2
	.area idata
	.byte 33,8
	.area data(ram, con, rel)
	.dbfile C:/icc/include/ascii8x16.h
	.blkb 2
	.area idata
	.byte 63,252
	.area data(ram, con, rel)
	.dbfile C:/icc/include/ascii8x16.h
	.blkb 2
	.area idata
	.byte 33,0
	.area data(ram, con, rel)
	.dbfile C:/icc/include/ascii8x16.h
	.blkb 2
	.area idata
	.byte 'A,16
	.area data(ram, con, rel)
	.dbfile C:/icc/include/ascii8x16.h
	.blkb 2
	.area idata
	.byte 191,248
	.area data(ram, con, rel)
	.dbfile C:/icc/include/ascii8x16.h
	.blkb 2
	.area idata
	.byte 1,0
	.area data(ram, con, rel)
	.dbfile C:/icc/include/ascii8x16.h
	.blkb 2
	.area idata
	.byte 1,4
	.area data(ram, con, rel)
	.dbfile C:/icc/include/ascii8x16.h
	.blkb 2
	.area idata
	.byte 255,254
	.area data(ram, con, rel)
	.dbfile C:/icc/include/ascii8x16.h
	.blkb 2
	.area idata
	.byte 0,0
	.area data(ram, con, rel)
	.dbfile C:/icc/include/ascii8x16.h
	.blkb 2
	.area idata
	.byte 34,4
	.area data(ram, con, rel)
	.dbfile C:/icc/include/ascii8x16.h
	.blkb 2
	.area idata
	.byte 34,126
	.area data(ram, con, rel)
	.dbfile C:/icc/include/ascii8x16.h
	.blkb 2
	.area idata
	.byte 34,'D
	.area data(ram, con, rel)
	.dbfile C:/icc/include/ascii8x16.h
	.blkb 2
	.area idata
	.byte 127,'D
	.area data(ram, con, rel)
	.dbfile C:/icc/include/ascii8x16.h
	.blkb 2
	.area idata
	.byte 34,'D
	.area data(ram, con, rel)
	.dbfile C:/icc/include/ascii8x16.h
	.blkb 2
	.area idata
	.byte 62,124
	.area data(ram, con, rel)
	.dbfile C:/icc/include/ascii8x16.h
	.blkb 2
	.area idata
	.byte 34,'D
	.area data(ram, con, rel)
	.dbfile C:/icc/include/ascii8x16.h
	.blkb 2
	.area idata
	.byte 62,'D
	.area data(ram, con, rel)
	.dbfile C:/icc/include/ascii8x16.h
	.blkb 2
	.area idata
	.byte 34,'D
	.area data(ram, con, rel)
	.dbfile C:/icc/include/ascii8x16.h
	.blkb 2
	.area idata
	.byte 34,124
	.area data(ram, con, rel)
	.dbfile C:/icc/include/ascii8x16.h
	.blkb 2
	.area idata
	.byte 255,196
	.area data(ram, con, rel)
	.dbfile C:/icc/include/ascii8x16.h
	.blkb 2
	.area idata
	.byte 0,'D
	.area data(ram, con, rel)
	.dbfile C:/icc/include/ascii8x16.h
	.blkb 2
	.area idata
	.byte 36,'D
	.area data(ram, con, rel)
	.dbfile C:/icc/include/ascii8x16.h
	.blkb 2
	.area idata
	.byte 34,132
	.area data(ram, con, rel)
	.dbfile C:/icc/include/ascii8x16.h
	.blkb 2
	.area idata
	.byte 'A,20
	.area data(ram, con, rel)
	.dbfile C:/icc/include/ascii8x16.h
	.blkb 2
	.area idata
	.byte 130,8
	.area data(ram, con, rel)
	.dbfile C:/icc/include/ascii8x16.h
	.blkb 2
	.area idata
	.byte 0,0
	.area data(ram, con, rel)
	.dbfile C:/icc/include/ascii8x16.h
	.blkb 2
	.area idata
	.byte 0,0
	.area data(ram, con, rel)
	.dbfile C:/icc/include/ascii8x16.h
	.blkb 2
	.area idata
	.byte 0,0
	.area data(ram, con, rel)
	.dbfile C:/icc/include/ascii8x16.h
	.blkb 2
	.area idata
	.byte 0,0
	.area data(ram, con, rel)
	.dbfile C:/icc/include/ascii8x16.h
	.blkb 2
	.area idata
	.byte 0,0
	.area data(ram, con, rel)
	.dbfile C:/icc/include/ascii8x16.h
	.blkb 2
	.area idata
	.byte 0,0
	.area data(ram, con, rel)
	.dbfile C:/icc/include/ascii8x16.h
	.blkb 2
	.area idata
	.byte 0,4
	.area data(ram, con, rel)
	.dbfile C:/icc/include/ascii8x16.h
	.blkb 2
	.area idata
	.byte 255,254
	.area data(ram, con, rel)
	.dbfile C:/icc/include/ascii8x16.h
	.blkb 2
	.area idata
	.byte 0,0
	.area data(ram, con, rel)
	.dbfile C:/icc/include/ascii8x16.h
	.blkb 2
	.area idata
	.byte 0,0
	.area data(ram, con, rel)
	.dbfile C:/icc/include/ascii8x16.h
	.blkb 2
	.area idata
	.byte 0,0
	.area data(ram, con, rel)
	.dbfile C:/icc/include/ascii8x16.h
	.blkb 2
	.area idata
	.byte 0,0
	.area data(ram, con, rel)
	.dbfile C:/icc/include/ascii8x16.h
	.blkb 2
	.area idata
	.byte 0,0
	.area data(ram, con, rel)
	.dbfile C:/icc/include/ascii8x16.h
	.blkb 2
	.area idata
	.byte 0,0
	.area data(ram, con, rel)
	.dbfile C:/icc/include/ascii8x16.h
	.blkb 2
	.area idata
	.byte 0,0
	.area data(ram, con, rel)
	.dbfile C:/icc/include/ascii8x16.h
	.blkb 2
	.area idata
	.byte 0,0
	.area data(ram, con, rel)
	.dbfile C:/icc/include/ascii8x16.h
	.blkb 2
	.area idata
	.byte 0,0
	.area data(ram, con, rel)
	.dbfile C:/icc/include/ascii8x16.h
	.blkb 2
	.area idata
	.byte 0,0
	.area data(ram, con, rel)
	.dbfile C:/icc/include/ascii8x16.h
	.blkb 2
	.area idata
	.byte 0,16
	.area data(ram, con, rel)
	.dbfile C:/icc/include/ascii8x16.h
	.blkb 2
	.area idata
	.byte 63,248
	.area data(ram, con, rel)
	.dbfile C:/icc/include/ascii8x16.h
	.blkb 2
	.area idata
	.byte 0,0
	.area data(ram, con, rel)
	.dbfile C:/icc/include/ascii8x16.h
	.blkb 2
	.area idata
	.byte 0,0
	.area data(ram, con, rel)
	.dbfile C:/icc/include/ascii8x16.h
	.blkb 2
	.area idata
	.byte 0,0
	.area data(ram, con, rel)
	.dbfile C:/icc/include/ascii8x16.h
	.blkb 2
	.area idata
	.byte 0,0
	.area data(ram, con, rel)
	.dbfile C:/icc/include/ascii8x16.h
	.blkb 2
	.area idata
	.byte 0,0
	.area data(ram, con, rel)
	.dbfile C:/icc/include/ascii8x16.h
	.blkb 2
	.area idata
	.byte 0,0
	.area data(ram, con, rel)
	.dbfile C:/icc/include/ascii8x16.h
	.blkb 2
	.area idata
	.byte 0,0
	.area data(ram, con, rel)
	.dbfile C:/icc/include/ascii8x16.h
	.blkb 2
	.area idata
	.byte 0,4
	.area data(ram, con, rel)
	.dbfile C:/icc/include/ascii8x16.h
	.blkb 2
	.area idata
	.byte 255,254
	.area data(ram, con, rel)
	.dbfile C:/icc/include/ascii8x16.h
	.blkb 2
	.area idata
	.byte 0,0
	.area data(ram, con, rel)
	.dbfile C:/icc/include/ascii8x16.h
	.blkb 2
	.area idata
	.byte 0,0
	.area data(ram, con, rel)
	.dbfile C:/icc/include/ascii8x16.h
	.blkb 2
	.area idata
	.byte 0,0
	.area data(ram, con, rel)
	.dbfile C:/icc/include/ascii8x16.h
	.blkb 2
	.area idata
	.byte 0,0
	.area data(ram, con, rel)
	.dbfile C:/icc/include/ascii8x16.h
	.blkb 2
	.area idata
	.byte 0,8
	.area data(ram, con, rel)
	.dbfile C:/icc/include/ascii8x16.h
	.blkb 2
	.area idata
	.byte 127,252
	.area data(ram, con, rel)
	.dbfile C:/icc/include/ascii8x16.h
	.blkb 2
	.area idata
	.byte 0,0
	.area data(ram, con, rel)
	.dbfile C:/icc/include/ascii8x16.h
	.blkb 2
	.area idata
	.byte 0,0
	.area data(ram, con, rel)
	.dbfile C:/icc/include/ascii8x16.h
	.blkb 2
	.area idata
	.byte 0,0
	.area data(ram, con, rel)
	.dbfile C:/icc/include/ascii8x16.h
	.blkb 2
	.area idata
	.byte 0,16
	.area data(ram, con, rel)
	.dbfile C:/icc/include/ascii8x16.h
	.blkb 2
	.area idata
	.byte 63,248
	.area data(ram, con, rel)
	.dbfile C:/icc/include/ascii8x16.h
	.blkb 2
	.area idata
	.byte 0,0
	.area data(ram, con, rel)
	.dbfile C:/icc/include/ascii8x16.h
	.blkb 2
	.area idata
	.byte 0,0
	.area data(ram, con, rel)
	.dbfile C:/icc/include/ascii8x16.h
	.blkb 2
	.area idata
	.byte 0,0
	.area data(ram, con, rel)
	.dbfile C:/icc/include/ascii8x16.h
	.blkb 2
	.area idata
	.byte 0,0
	.area data(ram, con, rel)
	.dbfile C:/icc/include/ascii8x16.h
	.blkb 2
	.area idata
	.byte 0,4
	.area data(ram, con, rel)
	.dbfile C:/icc/include/ascii8x16.h
	.blkb 2
	.area idata
	.byte 255,254
	.area data(ram, con, rel)
	.dbfile C:/icc/include/ascii8x16.h
	.blkb 2
	.area idata
	.byte 0,0
	.area data(ram, con, rel)
	.dbfile C:/icc/include/ascii8x16.h
	.blkb 2
	.area idata
	.byte 0,0
	.area data(ram, con, rel)
	.dbfile C:/icc/include/ascii8x16.h
	.blkb 2
	.area idata
	.byte 0,0
	.area data(ram, con, rel)
	.dbfile C:/icc/include/ascii8x16.h
	.blkb 2
	.area idata
	.byte 0,4
	.area data(ram, con, rel)
	.dbfile C:/icc/include/ascii8x16.h
	.blkb 2
	.area idata
	.byte 127,254
	.area data(ram, con, rel)
	.dbfile C:/icc/include/ascii8x16.h
	.blkb 2
	.area idata
	.byte 'D,'D
	.area data(ram, con, rel)
	.dbfile C:/icc/include/ascii8x16.h
	.blkb 2
	.area idata
	.byte 'D,'D
	.area data(ram, con, rel)
	.dbfile C:/icc/include/ascii8x16.h
	.blkb 2
	.area idata
	.byte 'D,'D
	.area data(ram, con, rel)
	.dbfile C:/icc/include/ascii8x16.h
	.blkb 2
	.area idata
	.byte 'D,'D
	.area data(ram, con, rel)
	.dbfile C:/icc/include/ascii8x16.h
	.blkb 2
	.area idata
	.byte 'D,'D
	.area data(ram, con, rel)
	.dbfile C:/icc/include/ascii8x16.h
	.blkb 2
	.area idata
	.byte 'D,'D
	.area data(ram, con, rel)
	.dbfile C:/icc/include/ascii8x16.h
	.blkb 2
	.area idata
	.byte 'D,60
	.area data(ram, con, rel)
	.dbfile C:/icc/include/ascii8x16.h
	.blkb 2
	.area idata
	.byte 'H,4
	.area data(ram, con, rel)
	.dbfile C:/icc/include/ascii8x16.h
	.blkb 2
	.area idata
	.byte 'P,4
	.area data(ram, con, rel)
	.dbfile C:/icc/include/ascii8x16.h
	.blkb 2
	.area idata
	.byte 64,4
	.area data(ram, con, rel)
	.dbfile C:/icc/include/ascii8x16.h
	.blkb 2
	.area idata
	.byte 127,252
	.area data(ram, con, rel)
	.dbfile C:/icc/include/ascii8x16.h
	.blkb 2
	.area idata
	.byte 64,4
	.area data(ram, con, rel)
	.dbfile C:/icc/include/ascii8x16.h
	.blkb 2
	.area idata
	.byte 0,0
	.area data(ram, con, rel)
	.dbfile C:/icc/include/ascii8x16.h
	.blkb 2
	.area idata
	.byte 0,0
	.area data(ram, con, rel)
	.dbfile C:/icc/include/ascii8x16.h
	.blkb 2
	.area idata
	.byte 0,8
	.area data(ram, con, rel)
	.dbfile C:/icc/include/ascii8x16.h
	.blkb 2
	.area idata
	.byte 127,252
	.area data(ram, con, rel)
	.dbfile C:/icc/include/ascii8x16.h
	.blkb 2
	.area idata
	.byte 2,0
	.area data(ram, con, rel)
	.dbfile C:/icc/include/ascii8x16.h
	.blkb 2
	.area idata
	.byte 2,0
	.area data(ram, con, rel)
	.dbfile C:/icc/include/ascii8x16.h
	.blkb 2
	.area idata
	.byte 2,0
	.area data(ram, con, rel)
	.dbfile C:/icc/include/ascii8x16.h
	.blkb 2
	.area idata
	.byte 2,16
	.area data(ram, con, rel)
	.dbfile C:/icc/include/ascii8x16.h
	.blkb 2
	.area idata
	.byte 63,252
	.area data(ram, con, rel)
	.dbfile C:/icc/include/ascii8x16.h
	.blkb 2
	.area idata
	.byte 4,16
	.area data(ram, con, rel)
	.dbfile C:/icc/include/ascii8x16.h
	.blkb 2
	.area idata
	.byte 4,16
	.area data(ram, con, rel)
	.dbfile C:/icc/include/ascii8x16.h
	.blkb 2
	.area idata
	.byte 4,16
	.area data(ram, con, rel)
	.dbfile C:/icc/include/ascii8x16.h
	.blkb 2
	.area idata
	.byte 8,16
	.area data(ram, con, rel)
	.dbfile C:/icc/include/ascii8x16.h
	.blkb 2
	.area idata
	.byte 8,16
	.area data(ram, con, rel)
	.dbfile C:/icc/include/ascii8x16.h
	.blkb 2
	.area idata
	.byte 8,20
	.area data(ram, con, rel)
	.dbfile C:/icc/include/ascii8x16.h
	.blkb 2
	.area idata
	.byte 255,254
	.area data(ram, con, rel)
	.dbfile C:/icc/include/ascii8x16.h
	.blkb 2
	.area idata
	.byte 0,0
	.area data(ram, con, rel)
	.dbfile C:/icc/include/ascii8x16.h
	.blkb 2
	.area idata
	.byte 0,0
	.area data(ram, con, rel)
	.dbfile C:/icc/include/ascii8x16.h
	.blkb 2
	.area idata
	.byte 4,0
	.area data(ram, con, rel)
	.dbfile C:/icc/include/ascii8x16.h
	.blkb 2
	.area idata
	.byte 2,0
	.area data(ram, con, rel)
	.dbfile C:/icc/include/ascii8x16.h
	.blkb 2
	.area idata
	.byte 3,0
	.area data(ram, con, rel)
	.dbfile C:/icc/include/ascii8x16.h
	.blkb 2
	.area idata
	.byte 1,4
	.area data(ram, con, rel)
	.dbfile C:/icc/include/ascii8x16.h
	.blkb 2
	.area idata
	.byte 255,254
	.area data(ram, con, rel)
	.dbfile C:/icc/include/ascii8x16.h
	.blkb 2
	.area idata
	.byte 0,0
	.area data(ram, con, rel)
	.dbfile C:/icc/include/ascii8x16.h
	.blkb 2
	.area idata
	.byte 0,0
	.area data(ram, con, rel)
	.dbfile C:/icc/include/ascii8x16.h
	.blkb 2
	.area idata
	.byte 4,64
	.area data(ram, con, rel)
	.dbfile C:/icc/include/ascii8x16.h
	.blkb 2
	.area idata
	.byte 12,32
	.area data(ram, con, rel)
	.dbfile C:/icc/include/ascii8x16.h
	.blkb 2
	.area idata
	.byte 8,16
	.area data(ram, con, rel)
	.dbfile C:/icc/include/ascii8x16.h
	.blkb 2
	.area idata
	.byte 16,24
	.area data(ram, con, rel)
	.dbfile C:/icc/include/ascii8x16.h
	.blkb 2
	.area idata
	.byte 16,12
	.area data(ram, con, rel)
	.dbfile C:/icc/include/ascii8x16.h
	.blkb 2
	.area idata
	.byte 32,12
	.area data(ram, con, rel)
	.dbfile C:/icc/include/ascii8x16.h
	.blkb 2
	.area idata
	.byte 64,4
	.area data(ram, con, rel)
	.dbfile C:/icc/include/ascii8x16.h
	.blkb 2
	.area idata
	.byte 0,0
	.area data(ram, con, rel)
	.dbfile C:/icc/include/ascii8x16.h
	.blkb 2
	.area idata
	.byte 0,16
	.area data(ram, con, rel)
	.dbfile C:/icc/include/ascii8x16.h
	.blkb 2
	.area idata
	.byte 31,248
	.area data(ram, con, rel)
	.dbfile C:/icc/include/ascii8x16.h
	.blkb 2
	.area idata
	.byte 16,16
	.area data(ram, con, rel)
	.dbfile C:/icc/include/ascii8x16.h
	.blkb 2
	.area idata
	.byte 16,16
	.area data(ram, con, rel)
	.dbfile C:/icc/include/ascii8x16.h
	.blkb 2
	.area idata
	.byte 16,16
	.area data(ram, con, rel)
	.dbfile C:/icc/include/ascii8x16.h
	.blkb 2
	.area idata
	.byte 16,16
	.area data(ram, con, rel)
	.dbfile C:/icc/include/ascii8x16.h
	.blkb 2
	.area idata
	.byte 16,16
	.area data(ram, con, rel)
	.dbfile C:/icc/include/ascii8x16.h
	.blkb 2
	.area idata
	.byte 31,240
	.area data(ram, con, rel)
	.dbfile C:/icc/include/ascii8x16.h
	.blkb 2
	.area idata
	.byte 16,16
	.area data(ram, con, rel)
	.dbfile C:/icc/include/ascii8x16.h
	.blkb 2
	.area idata
	.byte 16,16
	.area data(ram, con, rel)
	.dbfile C:/icc/include/ascii8x16.h
	.blkb 2
	.area idata
	.byte 16,16
	.area data(ram, con, rel)
	.dbfile C:/icc/include/ascii8x16.h
	.blkb 2
	.area idata
	.byte 16,16
	.area data(ram, con, rel)
	.dbfile C:/icc/include/ascii8x16.h
	.blkb 2
	.area idata
	.byte 16,16
	.area data(ram, con, rel)
	.dbfile C:/icc/include/ascii8x16.h
	.blkb 2
	.area idata
	.byte 31,240
	.area data(ram, con, rel)
	.dbfile C:/icc/include/ascii8x16.h
	.blkb 2
	.area idata
	.byte 16,16
	.area data(ram, con, rel)
	.dbfile C:/icc/include/ascii8x16.h
	.blkb 2
	.area idata
	.byte 0,0
	.area data(ram, con, rel)
	.dbfile C:/icc/include/ascii8x16.h
	.blkb 2
	.area idata
	.byte 1,0
	.area data(ram, con, rel)
	.dbfile C:/icc/include/ascii8x16.h
	.blkb 2
	.area idata
	.byte 1,0
	.area data(ram, con, rel)
	.dbfile C:/icc/include/ascii8x16.h
	.blkb 2
	.area idata
	.byte 1,0
	.area data(ram, con, rel)
	.dbfile C:/icc/include/ascii8x16.h
	.blkb 2
	.area idata
	.byte 1,0
	.area data(ram, con, rel)
	.dbfile C:/icc/include/ascii8x16.h
	.blkb 2
	.area idata
	.byte 1,16
	.area data(ram, con, rel)
	.dbfile C:/icc/include/ascii8x16.h
	.blkb 2
	.area idata
	.byte 1,248
	.area data(ram, con, rel)
	.dbfile C:/icc/include/ascii8x16.h
	.blkb 2
	.area idata
	.byte 1,0
	.area data(ram, con, rel)
	.dbfile C:/icc/include/ascii8x16.h
	.blkb 2
	.area idata
	.byte 1,0
	.area data(ram, con, rel)
	.dbfile C:/icc/include/ascii8x16.h
	.blkb 2
	.area idata
	.byte 1,0
	.area data(ram, con, rel)
	.dbfile C:/icc/include/ascii8x16.h
	.blkb 2
	.area idata
	.byte 1,0
	.area data(ram, con, rel)
	.dbfile C:/icc/include/ascii8x16.h
	.blkb 2
	.area idata
	.byte 1,0
	.area data(ram, con, rel)
	.dbfile C:/icc/include/ascii8x16.h
	.blkb 2
	.area idata
	.byte 1,0
	.area data(ram, con, rel)
	.dbfile C:/icc/include/ascii8x16.h
	.blkb 2
	.area idata
	.byte 1,0
	.area data(ram, con, rel)
	.dbfile C:/icc/include/ascii8x16.h
	.blkb 2
	.area idata
	.byte 1,4
	.area data(ram, con, rel)
	.dbfile C:/icc/include/ascii8x16.h
	.blkb 2
	.area idata
	.byte 255,254
	.area data(ram, con, rel)
	.dbfile C:/icc/include/ascii8x16.h
	.blkb 2
	.area idata
	.byte 0,0
	.area data(ram, con, rel)
	.dbfile C:/icc/include/ascii8x16.h
	.blkb 2
	.area idata
	.byte 0,4
	.area data(ram, con, rel)
	.dbfile C:/icc/include/ascii8x16.h
	.blkb 2
	.area idata
	.byte 255,254
	.area data(ram, con, rel)
	.dbfile C:/icc/include/ascii8x16.h
	.blkb 2
	.area idata
	.byte 2,0
	.area data(ram, con, rel)
	.dbfile C:/icc/include/ascii8x16.h
	.blkb 2
	.area idata
	.byte 2,0
	.area data(ram, con, rel)
	.dbfile C:/icc/include/ascii8x16.h
	.blkb 2
	.area idata
	.byte 2,0
	.area data(ram, con, rel)
	.dbfile C:/icc/include/ascii8x16.h
	.blkb 2
	.area idata
	.byte 2,128
	.area data(ram, con, rel)
	.dbfile C:/icc/include/ascii8x16.h
	.blkb 2
	.area idata
	.byte 2,64
	.area data(ram, con, rel)
	.dbfile C:/icc/include/ascii8x16.h
	.blkb 2
	.area idata
	.byte 2,48
	.area data(ram, con, rel)
	.dbfile C:/icc/include/ascii8x16.h
	.blkb 2
	.area idata
	.byte 2,16
	.area data(ram, con, rel)
	.dbfile C:/icc/include/ascii8x16.h
	.blkb 2
	.area idata
	.byte 2,0
	.area data(ram, con, rel)
	.dbfile C:/icc/include/ascii8x16.h
	.blkb 2
	.area idata
	.byte 2,0
	.area data(ram, con, rel)
	.dbfile C:/icc/include/ascii8x16.h
	.blkb 2
	.area idata
	.byte 2,0
	.area data(ram, con, rel)
	.dbfile C:/icc/include/ascii8x16.h
	.blkb 2
	.area idata
	.byte 2,0
	.area data(ram, con, rel)
	.dbfile C:/icc/include/ascii8x16.h
	.blkb 2
	.area idata
	.byte 2,0
	.area data(ram, con, rel)
	.dbfile C:/icc/include/ascii8x16.h
	.blkb 2
	.area idata
	.byte 2,0
	.area data(ram, con, rel)
	.dbfile C:/icc/include/ascii8x16.h
	.blkb 2
	.area idata
	.byte 2,0
	.area data(ram, con, rel)
	.dbfile C:/icc/include/ascii8x16.h
	.blkb 2
	.area idata
	.byte 8,0
	.area data(ram, con, rel)
	.dbfile C:/icc/include/ascii8x16.h
	.blkb 2
	.area idata
	.byte 8,16
	.area data(ram, con, rel)
	.dbfile C:/icc/include/ascii8x16.h
	.blkb 2
	.area idata
	.byte 15,248
	.area data(ram, con, rel)
	.dbfile C:/icc/include/ascii8x16.h
	.blkb 2
	.area idata
	.byte 17,0
	.area data(ram, con, rel)
	.dbfile C:/icc/include/ascii8x16.h
	.blkb 2
	.area idata
	.byte 17,0
	.area data(ram, con, rel)
	.dbfile C:/icc/include/ascii8x16.h
	.blkb 2
	.area idata
	.byte 33,0
	.area data(ram, con, rel)
	.dbfile C:/icc/include/ascii8x16.h
	.blkb 2
	.area idata
	.byte 'A,0
	.area data(ram, con, rel)
	.dbfile C:/icc/include/ascii8x16.h
	.blkb 2
	.area idata
	.byte 1,4
	.area data(ram, con, rel)
	.dbfile C:/icc/include/ascii8x16.h
	.blkb 2
	.area idata
	.byte 255,254
	.area data(ram, con, rel)
	.dbfile C:/icc/include/ascii8x16.h
	.blkb 2
	.area idata
	.byte 1,0
	.area data(ram, con, rel)
	.dbfile C:/icc/include/ascii8x16.h
	.blkb 2
	.area idata
	.byte 1,0
	.area data(ram, con, rel)
	.dbfile C:/icc/include/ascii8x16.h
	.blkb 2
	.area idata
	.byte 1,0
	.area data(ram, con, rel)
	.dbfile C:/icc/include/ascii8x16.h
	.blkb 2
	.area idata
	.byte 1,0
	.area data(ram, con, rel)
	.dbfile C:/icc/include/ascii8x16.h
	.blkb 2
	.area idata
	.byte 1,0
	.area data(ram, con, rel)
	.dbfile C:/icc/include/ascii8x16.h
	.blkb 2
	.area idata
	.byte 1,0
	.area data(ram, con, rel)
	.dbfile C:/icc/include/ascii8x16.h
	.blkb 2
	.area idata
	.byte 1,0
	.area data(ram, con, rel)
	.dbfile C:/icc/include/ascii8x16.h
	.blkb 2
	.area idata
	.byte 2,64
	.area data(ram, con, rel)
	.dbfile C:/icc/include/ascii8x16.h
	.blkb 2
	.area idata
	.byte 7,64
	.area data(ram, con, rel)
	.dbfile C:/icc/include/ascii8x16.h
	.blkb 2
	.area idata
	.byte 56,64
	.area data(ram, con, rel)
	.dbfile C:/icc/include/ascii8x16.h
	.blkb 2
	.area idata
	.byte 32,64
	.area data(ram, con, rel)
	.dbfile C:/icc/include/ascii8x16.h
	.blkb 2
	.area idata
	.byte 32,126
	.area data(ram, con, rel)
	.dbfile C:/icc/include/ascii8x16.h
	.blkb 2
	.area idata
	.byte 32,130
	.area data(ram, con, rel)
	.dbfile C:/icc/include/ascii8x16.h
	.blkb 2
	.area idata
	.byte 63,36
	.area data(ram, con, rel)
	.dbfile C:/icc/include/ascii8x16.h
	.blkb 2
	.area idata
	.byte 36,32
	.area data(ram, con, rel)
	.dbfile C:/icc/include/ascii8x16.h
	.blkb 2
	.area idata
	.byte 36,32
	.area data(ram, con, rel)
	.dbfile C:/icc/include/ascii8x16.h
	.blkb 2
	.area idata
	.byte 36,32
	.area data(ram, con, rel)
	.dbfile C:/icc/include/ascii8x16.h
	.blkb 2
	.area idata
	.byte 36,'P
	.area data(ram, con, rel)
	.dbfile C:/icc/include/ascii8x16.h
	.blkb 2
	.area idata
	.byte 36,'P
	.area data(ram, con, rel)
	.dbfile C:/icc/include/ascii8x16.h
	.blkb 2
	.area idata
	.byte 'D,136
	.area data(ram, con, rel)
	.dbfile C:/icc/include/ascii8x16.h
	.blkb 2
	.area idata
	.byte 'D,136
	.area data(ram, con, rel)
	.dbfile C:/icc/include/ascii8x16.h
	.blkb 2
	.area idata
	.byte 133,6
	.area data(ram, con, rel)
	.dbfile C:/icc/include/ascii8x16.h
	.blkb 2
	.area idata
	.byte 2,4
	.area data(ram, con, rel)
	.dbfile C:/icc/include/ascii8x16.h
	.blkb 2
	.area idata
	.byte 1,16
	.area data(ram, con, rel)
	.dbfile C:/icc/include/ascii8x16.h
	.blkb 2
	.area idata
	.byte 17,16
	.area data(ram, con, rel)
	.dbfile C:/icc/include/ascii8x16.h
	.blkb 2
	.area idata
	.byte 17,16
	.area data(ram, con, rel)
	.dbfile C:/icc/include/ascii8x16.h
	.blkb 2
	.area idata
	.byte 17,16
	.area data(ram, con, rel)
	.dbfile C:/icc/include/ascii8x16.h
	.blkb 2
	.area idata
	.byte 17,20
	.area data(ram, con, rel)
	.dbfile C:/icc/include/ascii8x16.h
	.blkb 2
	.area idata
	.byte 255,254
	.area data(ram, con, rel)
	.dbfile C:/icc/include/ascii8x16.h
	.blkb 2
	.area idata
	.byte 17,16
	.area data(ram, con, rel)
	.dbfile C:/icc/include/ascii8x16.h
	.blkb 2
	.area idata
	.byte 17,16
	.area data(ram, con, rel)
	.dbfile C:/icc/include/ascii8x16.h
	.blkb 2
	.area idata
	.byte 17,16
	.area data(ram, con, rel)
	.dbfile C:/icc/include/ascii8x16.h
	.blkb 2
	.area idata
	.byte 17,16
	.area data(ram, con, rel)
	.dbfile C:/icc/include/ascii8x16.h
	.blkb 2
	.area idata
	.byte 17,240
	.area data(ram, con, rel)
	.dbfile C:/icc/include/ascii8x16.h
	.blkb 2
	.area idata
	.byte 17,16
	.area data(ram, con, rel)
	.dbfile C:/icc/include/ascii8x16.h
	.blkb 2
	.area idata
	.byte 16,0
	.area data(ram, con, rel)
	.dbfile C:/icc/include/ascii8x16.h
	.blkb 2
	.area idata
	.byte 16,8
	.area data(ram, con, rel)
	.dbfile C:/icc/include/ascii8x16.h
	.blkb 2
	.area idata
	.byte 31,252
	.area data(ram, con, rel)
	.dbfile C:/icc/include/ascii8x16.h
	.blkb 2
	.area idata
	.byte 0,0
	.area data(ram, con, rel)
	.dbfile C:/icc/include/ascii8x16.h
	.blkb 2
	.area idata
	.byte 8,0
	.area data(ram, con, rel)
	.dbfile C:/icc/include/ascii8x16.h
	.blkb 2
	.area idata
	.byte 8,4
	.area data(ram, con, rel)
	.dbfile C:/icc/include/ascii8x16.h
	.blkb 2
	.area idata
	.byte 19,254
	.area data(ram, con, rel)
	.dbfile C:/icc/include/ascii8x16.h
	.blkb 2
	.area idata
	.byte 16,4
	.area data(ram, con, rel)
	.dbfile C:/icc/include/ascii8x16.h
	.blkb 2
	.area idata
	.byte 36,4
	.area data(ram, con, rel)
	.dbfile C:/icc/include/ascii8x16.h
	.blkb 2
	.area idata
	.byte 252,4
	.area data(ram, con, rel)
	.dbfile C:/icc/include/ascii8x16.h
	.blkb 2
	.area idata
	.byte 8,4
	.area data(ram, con, rel)
	.dbfile C:/icc/include/ascii8x16.h
	.blkb 2
	.area idata
	.byte 17,252
	.area data(ram, con, rel)
	.dbfile C:/icc/include/ascii8x16.h
	.blkb 2
	.area idata
	.byte 33,4
	.area data(ram, con, rel)
	.dbfile C:/icc/include/ascii8x16.h
	.blkb 2
	.area idata
	.byte 253,0
	.area data(ram, con, rel)
	.dbfile C:/icc/include/ascii8x16.h
	.blkb 2
	.area idata
	.byte 'A,0
	.area data(ram, con, rel)
	.dbfile C:/icc/include/ascii8x16.h
	.blkb 2
	.area idata
	.byte 1,0
	.area data(ram, con, rel)
	.dbfile C:/icc/include/ascii8x16.h
	.blkb 2
	.area idata
	.byte 29,2
	.area data(ram, con, rel)
	.dbfile C:/icc/include/ascii8x16.h
	.blkb 2
	.area idata
	.byte 225,2
	.area data(ram, con, rel)
	.dbfile C:/icc/include/ascii8x16.h
	.blkb 2
	.area idata
	.byte 64,254
	.area data(ram, con, rel)
	.dbfile C:/icc/include/ascii8x16.h
	.blkb 2
	.area idata
	.byte 0,0
	.area data(ram, con, rel)
	.dbfile C:/icc/include/ascii8x16.h
	.blkb 2
	.area idata
	.byte 2,0
	.area data(ram, con, rel)
	.dbfile C:/icc/include/ascii8x16.h
	.blkb 2
	.area idata
	.byte 2,0
	.area data(ram, con, rel)
	.dbfile C:/icc/include/ascii8x16.h
	.blkb 2
	.area idata
	.byte 2,16
	.area data(ram, con, rel)
	.dbfile C:/icc/include/ascii8x16.h
	.blkb 2
	.area idata
	.byte 127,248
	.area data(ram, con, rel)
	.dbfile C:/icc/include/ascii8x16.h
	.blkb 2
	.area idata
	.byte 'B,16
	.area data(ram, con, rel)
	.dbfile C:/icc/include/ascii8x16.h
	.blkb 2
	.area idata
	.byte 'B,16
	.area data(ram, con, rel)
	.dbfile C:/icc/include/ascii8x16.h
	.blkb 2
	.area idata
	.byte 127,240
	.area data(ram, con, rel)
	.dbfile C:/icc/include/ascii8x16.h
	.blkb 2
	.area idata
	.byte 'B,16
	.area data(ram, con, rel)
	.dbfile C:/icc/include/ascii8x16.h
	.blkb 2
	.area idata
	.byte 'B,16
	.area data(ram, con, rel)
	.dbfile C:/icc/include/ascii8x16.h
	.blkb 2
	.area idata
	.byte 127,240
	.area data(ram, con, rel)
	.dbfile C:/icc/include/ascii8x16.h
	.blkb 2
	.area idata
	.byte 'B,16
	.area data(ram, con, rel)
	.dbfile C:/icc/include/ascii8x16.h
	.blkb 2
	.area idata
	.byte 2,0
	.area data(ram, con, rel)
	.dbfile C:/icc/include/ascii8x16.h
	.blkb 2
	.area idata
	.byte 2,4
	.area data(ram, con, rel)
	.dbfile C:/icc/include/ascii8x16.h
	.blkb 2
	.area idata
	.byte 2,4
	.area data(ram, con, rel)
	.dbfile C:/icc/include/ascii8x16.h
	.blkb 2
	.area idata
	.byte 1,252
	.area data(ram, con, rel)
	.dbfile C:/icc/include/ascii8x16.h
	.blkb 2
	.area idata
	.byte 0,0
	.area data(ram, con, rel)
	.dbfile C:/icc/include/ascii8x16.h
	.blkb 2
	.area idata
	.byte 0,0
	.area data(ram, con, rel)
	.dbfile C:/icc/include/ascii8x16.h
	.blkb 2
	.area idata
	.byte 63,240
	.area data(ram, con, rel)
	.dbfile C:/icc/include/ascii8x16.h
	.blkb 2
	.area idata
	.byte 0,16
	.area data(ram, con, rel)
	.dbfile C:/icc/include/ascii8x16.h
	.blkb 2
	.area idata
	.byte 0,32
	.area data(ram, con, rel)
	.dbfile C:/icc/include/ascii8x16.h
	.blkb 2
	.area idata
	.byte 0,64
	.area data(ram, con, rel)
	.dbfile C:/icc/include/ascii8x16.h
	.blkb 2
	.area idata
	.byte 1,128
	.area data(ram, con, rel)
	.dbfile C:/icc/include/ascii8x16.h
	.blkb 2
	.area idata
	.byte 1,4
	.area data(ram, con, rel)
	.dbfile C:/icc/include/ascii8x16.h
	.blkb 2
	.area idata
	.byte 255,254
	.area data(ram, con, rel)
	.dbfile C:/icc/include/ascii8x16.h
	.blkb 2
	.area idata
	.byte 1,0
	.area data(ram, con, rel)
	.dbfile C:/icc/include/ascii8x16.h
	.blkb 2
	.area idata
	.byte 1,0
	.area data(ram, con, rel)
	.dbfile C:/icc/include/ascii8x16.h
	.blkb 2
	.area idata
	.byte 1,0
	.area data(ram, con, rel)
	.dbfile C:/icc/include/ascii8x16.h
	.blkb 2
	.area idata
	.byte 1,0
	.area data(ram, con, rel)
	.dbfile C:/icc/include/ascii8x16.h
	.blkb 2
	.area idata
	.byte 1,0
	.area data(ram, con, rel)
	.dbfile C:/icc/include/ascii8x16.h
	.blkb 2
	.area idata
	.byte 1,0
	.area data(ram, con, rel)
	.dbfile C:/icc/include/ascii8x16.h
	.blkb 2
	.area idata
	.byte 5,0
	.area data(ram, con, rel)
	.dbfile C:/icc/include/ascii8x16.h
	.blkb 2
	.area idata
	.byte 2,0
	.area data(ram, con, rel)
	.dbfile C:/icc/include/ascii8x16.h
	.dbfile C:/icc/include/GB2312.h
	.dbsym e GB2312 _GB2312 A[736:736]c
_color::
	.blkb 2
	.area idata
	.word 63488
	.area data(ram, con, rel)
	.dbfile C:/icc/include/GB2312.h
	.blkb 2
	.area idata
	.word 2016
	.area data(ram, con, rel)
	.dbfile C:/icc/include/GB2312.h
	.blkb 2
	.area idata
	.word 31
	.area data(ram, con, rel)
	.dbfile C:/icc/include/GB2312.h
	.blkb 2
	.area idata
	.word 65504
	.area data(ram, con, rel)
	.dbfile C:/icc/include/GB2312.h
	.blkb 2
	.area idata
	.word 0
	.area data(ram, con, rel)
	.dbfile C:/icc/include/GB2312.h
	.blkb 2
	.area idata
	.word 65535
	.area data(ram, con, rel)
	.dbfile C:/icc/include/GB2312.h
	.blkb 2
	.area idata
	.word 2047
	.area data(ram, con, rel)
	.dbfile C:/icc/include/GB2312.h
	.blkb 2
	.area idata
	.word 63519
	.area data(ram, con, rel)
	.dbfile C:/icc/include/GB2312.h
	.dbfile E:\ATMEGA128\ATMEGA128\M128_ZZX_1\27.SDBMP\ReadBmp\TFT.c
	.dbsym e color _color A[16:8]i
	.area text(rom, con, rel)
	.dbfile E:\ATMEGA128\ATMEGA128\M128_ZZX_1\27.SDBMP\ReadBmp\TFT.c
	.dbfunc e McuInit _McuInit fV
	.even
_McuInit::
	.dbline -1
	.dbline 16
; //TFT
; // TFT.h
; 
; 
; #include  <BMP_TFT.h>
; 
; 
; uint color[]={0xf800,0x07e0,0x001f,0xffe0,0x0000,0xffff,0x07ff,0xf81f}; //
; //unsigned char RamVar_1[512];            				//(Ram)
; 
; //***********************************************************************
; //	  IO
; //***********************************************************************
; 
; void McuInit()
; {
	.dbline 17
; 	LCD_Data=0xFF;                     //IO
	ldi R24,255
	out 0x1b,R24
	.dbline 18
; 	DDR_Data=0xFF;
	out 0x1a,R24
	.dbline 20
; 
; 	PORTF=0xFF;
	sts 98,R24
	.dbline 21
; 	DDRF=0xFF;
	sts 97,R24
	.dbline 23
; 
; 	PORTG=0x0F;                        
	ldi R24,15
	sts 101,R24
	.dbline 24
; 	DDRG=0x0F;
	sts 100,R24
	.dbline 26
; 
; 	PORTD=0xFF;
	ldi R24,255
	out 0x12,R24
	.dbline 27
; 	DDRD=0xFF;
	out 0x11,R24
	.dbline 29
;   	
; 	D_LE1;                             //PA                   
	sbi 0x12,4
	.dbline 30
;     W_LE1;                     
	sbi 0x12,5
	.dbline 31
;     LCD_Data=0xFF;                      //            
	out 0x1b,R24
	.dbline 32
;     W_LE0; 
	cbi 0x12,5
	.dbline 34
; 
;     PORTB=0xFF;
	out 0x18,R24
	.dbline 35
; 	DDRB=0xFF;
	out 0x17,R24
	.dbline 37
; 
; 	LCD_BL0;
	lds R24,101
	andi R24,251
	sts 101,R24
	.dbline -2
L1:
	.dbline 0 ; func end
	ret
	.dbend
	.dbfunc e LCD_WR_REG _LCD_WR_REG fV
;          index -> R16
	.even
_LCD_WR_REG::
	.dbline -1
	.dbline 48
; 
; 
; }
; 
; 
; //***********************************************************************
; //	   0x22
; //***********************************************************************
; 
; void LCD_WR_REG(uchar index)           
; {
	.dbline 49
; 	LCD_RS0;                            //datasheetRS0
	lds R24,98
	andi R24,253
	sts 98,R24
	.dbline 50
; 	LCD_EC0;
	lds R24,98
	andi R24,247
	sts 98,R24
	.dbline 51
; 	LCD_Data = 0x00;
	clr R2
	out 0x1b,R2
	.dbline 52
; 	LCD_WR0;
	lds R24,98
	andi R24,251
	sts 98,R24
	.dbline 53
; 	LCD_WR1;
	lds R24,98
	ori R24,4
	sts 98,R24
	.dbline 54
; 	LCD_Data = index;
	out 0x1b,R16
	.dbline 55
; 	LCD_WR0;
	lds R24,98
	andi R24,251
	sts 98,R24
	.dbline 56
; 	LCD_WR1;
	lds R24,98
	ori R24,4
	sts 98,R24
	.dbline 57
; 	LCD_EC1;
	lds R24,98
	ori R24,8
	sts 98,R24
	.dbline 58
; 	LCD_RS0;
	lds R24,98
	andi R24,253
	sts 98,R24
	.dbline -2
L2:
	.dbline 0 ; func end
	ret
	.dbsym r index 16 c
	.dbend
	.dbfunc e LCD_RD_REG16 _LCD_RD_REG16 fi
;             pd -> R20,R21
;          index -> R20
	.even
_LCD_RD_REG16::
	xcall push_gset1
	mov R20,R16
	.dbline -1
	.dbline 66
; }
; 
; //***********************************************************************
; //	   GRAM
; //***********************************************************************
; 
; unsigned int LCD_RD_REG16(uchar index)
; {
	.dbline 69
; 	unsigned int pd;
; 
; 	LCD_RS0;
	lds R24,98
	andi R24,253
	sts 98,R24
	.dbline 70
; 	LCD_EC0;
	lds R24,98
	andi R24,247
	sts 98,R24
	.dbline 72
; 	
; 	delay_3us();
	xcall _delay_3us
	.dbline 74
; 	
; 	LCD_Data = 0x00;
	clr R2
	out 0x1b,R2
	.dbline 75
; 	delay_3us();
	xcall _delay_3us
	.dbline 77
; 
; 	LCD_WR0;
	lds R24,98
	andi R24,251
	sts 98,R24
	.dbline 78
; 	delay_3us();
	xcall _delay_3us
	.dbline 80
; 
; 	LCD_WR1;
	lds R24,98
	ori R24,4
	sts 98,R24
	.dbline 81
; 	delay_3us();
	xcall _delay_3us
	.dbline 83
; 
; 	LCD_Data = index;
	out 0x1b,R20
	.dbline 84
; 	delay_3us();
	xcall _delay_3us
	.dbline 86
; 
; 	LCD_WR0;
	lds R24,98
	andi R24,251
	sts 98,R24
	.dbline 87
; 	delay_3us();
	xcall _delay_3us
	.dbline 89
; 
; 	LCD_WR1;
	lds R24,98
	ori R24,4
	sts 98,R24
	.dbline 90
; 	delay_3us();
	xcall _delay_3us
	.dbline 92
; 
; 	LCD_RS1;
	lds R24,98
	ori R24,2
	sts 98,R24
	.dbline 93
; 	delay_3us();
	xcall _delay_3us
	.dbline 95
; 
; 	LCD_Data = 0xFF;
	ldi R24,255
	out 0x1b,R24
	.dbline 96
; 	delay_3us();
	xcall _delay_3us
	.dbline 98
; 
; 	LCD_RD0;
	lds R24,101
	andi R24,239
	sts 101,R24
	.dbline 99
; 	delay_3us();
	xcall _delay_3us
	.dbline 102
; 
;     //DDR_IN;  //
; 	delay_3us();
	xcall _delay_3us
	.dbline 104
; 
; 	LCD_RD1;
	lds R24,101
	ori R24,16
	sts 101,R24
	.dbline 105
; 	pd = LCD_Data;
	in R20,0x1b
	clr R21
	.dbline 106
; 	delay_3us();
	xcall _delay_3us
	.dbline 108
; 
; 	LCD_Data = 0xFF;
	ldi R24,255
	out 0x1b,R24
	.dbline 109
; 	LCD_RD0;
	lds R24,101
	andi R24,239
	sts 101,R24
	.dbline 110
; 	delay_3us();
	xcall _delay_3us
	.dbline 112
; 
; 	LCD_RD1;
	lds R24,101
	ori R24,16
	sts 101,R24
	.dbline 113
; 	pd = pd + LCD_Data*256;
	in R18,0x1b
	clr R19
	ldi R16,256
	ldi R17,1
	xcall empy16s
	add R20,R16
	adc R21,R17
	.dbline 114
; 	LCD_EC1;
	lds R24,98
	ori R24,8
	sts 98,R24
	.dbline 115
; 	LCD_RS0;
	lds R24,98
	andi R24,253
	sts 98,R24
	.dbline 116
; 	return pd;
	movw R16,R20
	.dbline -2
L3:
	xcall pop_gset1
	.dbline 0 ; func end
	ret
	.dbsym r pd 20 i
	.dbsym r index 20 c
	.dbend
	.dbfunc e LCD_WR_CMD _LCD_WR_CMD fV
;            val -> R18,R19
;          index -> R16
	.even
_LCD_WR_CMD::
	.dbline -1
	.dbline 124
; }
; 
; //***********************************************************************
; //	   indexval16
; //***********************************************************************
; 
; void LCD_WR_CMD(uchar index,uint val)
; {
	.dbline 125
; 	LCD_RS0;
	lds R24,98
	andi R24,253
	sts 98,R24
	.dbline 126
; 	LCD_EC0;
	lds R24,98
	andi R24,247
	sts 98,R24
	.dbline 127
; 	LCD_Data = 0x00;
	clr R2
	out 0x1b,R2
	.dbline 128
; 	LCD_WR0;
	lds R24,98
	andi R24,251
	sts 98,R24
	.dbline 129
; 	LCD_WR1;
	lds R24,98
	ori R24,4
	sts 98,R24
	.dbline 130
; 	LCD_Data = index;
	out 0x1b,R16
	.dbline 131
; 	LCD_WR0;
	lds R24,98
	andi R24,251
	sts 98,R24
	.dbline 132
; 	LCD_WR1;
	lds R24,98
	ori R24,4
	sts 98,R24
	.dbline 133
; 	LCD_EC1;
	lds R24,98
	ori R24,8
	sts 98,R24
	.dbline 134
; 	LCD_RS0;
	lds R24,98
	andi R24,253
	sts 98,R24
	.dbline 136
; 
; 	LCD_RS1;                             //datasheetRS1GRAM
	lds R24,98
	ori R24,2
	sts 98,R24
	.dbline 137
; 	LCD_EC0;
	lds R24,98
	andi R24,247
	sts 98,R24
	.dbline 138
; 	LCD_Data = (uchar)(val>>8);
	movw R2,R18
	mov R2,R3
	clr R3
	out 0x1b,R2
	.dbline 139
; 	LCD_WR0;
	lds R24,98
	andi R24,251
	sts 98,R24
	.dbline 140
; 	LCD_WR1;
	lds R24,98
	ori R24,4
	sts 98,R24
	.dbline 141
; 	LCD_EC1;
	lds R24,98
	ori R24,8
	sts 98,R24
	.dbline 142
; 	LCD_RS0;
	lds R24,98
	andi R24,253
	sts 98,R24
	.dbline 143
; 	LCD_RS1;
	lds R24,98
	ori R24,2
	sts 98,R24
	.dbline 144
; 	LCD_EC0;
	lds R24,98
	andi R24,247
	sts 98,R24
	.dbline 145
; 	LCD_Data = (uchar)val;
	out 0x1b,R18
	.dbline 146
; 	LCD_WR0;
	lds R24,98
	andi R24,251
	sts 98,R24
	.dbline 147
; 	LCD_WR1;
	lds R24,98
	ori R24,4
	sts 98,R24
	.dbline 148
; 	LCD_EC1;
	lds R24,98
	ori R24,8
	sts 98,R24
	.dbline 149
; 	LCD_RS0;
	lds R24,98
	andi R24,253
	sts 98,R24
	.dbline -2
L4:
	.dbline 0 ; func end
	ret
	.dbsym r val 18 i
	.dbsym r index 16 c
	.dbend
	.dbfunc e LCD_WR_Data _LCD_WR_Data fV
;            val -> R16,R17
	.even
_LCD_WR_Data::
	.dbline -1
	.dbline 157
; }
; 
; //***********************************************************************
; //	   GRAM16
; //***********************************************************************
; 
; void LCD_WR_Data(uint val)
; {
	.dbline 160
; 
; 
; 	LCD_Data = (uchar)(val>>8);
	movw R2,R16
	mov R2,R3
	clr R3
	out 0x1b,R2
	.dbline 161
; 	LCD_WR0;
	lds R24,98
	andi R24,251
	sts 98,R24
	.dbline 162
; 	LCD_WR1;
	lds R24,98
	ori R24,4
	sts 98,R24
	.dbline 164
; 	//LCD_RS1;
; 	LCD_Data = (uchar)val;
	out 0x1b,R16
	.dbline 165
; 	LCD_WR0;
	lds R24,98
	andi R24,251
	sts 98,R24
	.dbline 166
; 	LCD_WR1;
	lds R24,98
	ori R24,4
	sts 98,R24
	.dbline -2
L5:
	.dbline 0 ; func end
	ret
	.dbsym r val 16 i
	.dbend
	.dbfunc e LCD_WR_DataP _LCD_WR_DataP fV
;            val -> R16,R17
	.even
_LCD_WR_DataP::
	.dbline -1
	.dbline 174
; 
; }
; 
; //***********************************************************************
; //	   GRAM8
; //***********************************************************************
; void LCD_WR_DataP(uint val)
; {
	.dbline 176
; 
; 	LCD_Data = (uchar)val;
	out 0x1b,R16
	.dbline 177
; 	LCD_WR0;
	lds R24,98
	andi R24,251
	sts 98,R24
	.dbline 178
; 	LCD_WR1;
	lds R24,98
	ori R24,4
	sts 98,R24
	.dbline -2
L6:
	.dbline 0 ; func end
	ret
	.dbsym r val 16 i
	.dbend
	.dbfunc e LCD_Init _LCD_Init fV
	.even
_LCD_Init::
	.dbline -1
	.dbline 183
; }
; 
; 
; void LCD_Init()
; {
	.dbline 184
; 	LCD_RST0;                      //2ms
	cbi 0x12,7
	.dbline 185
; 	delay_nms(10);
	ldi R16,10
	ldi R17,0
	xcall _delay_nms
	.dbline 186
; 	LCD_RST1;                      //
	sbi 0x12,7
	.dbline 187
; 	delay_nms(10);
	ldi R16,10
	ldi R17,0
	xcall _delay_nms
	.dbline 189
; 
;     LCD_WR_CMD(0x00,0x0001);		//10ms
	ldi R18,1
	ldi R19,0
	clr R16
	xcall _LCD_WR_CMD
	.dbline 190
;     delay_nms(10);
	ldi R16,10
	ldi R17,0
	xcall _delay_nms
	.dbline 191
;     LCD_WR_CMD(0x03,0x0030);        //
	ldi R18,48
	ldi R19,0
	ldi R16,3
	xcall _LCD_WR_CMD
	.dbline 193
;     //LCD_WR_CMD(0x03,0x0230);      //HWM=1
;     LCD_WR_CMD(0x01,0x011D);
	ldi R18,285
	ldi R19,1
	ldi R16,1
	xcall _LCD_WR_CMD
	.dbline 195
;     //delay_us(1000);
;     LCD_WR_CMD(0x0a,0x0106); 
	ldi R18,262
	ldi R19,1
	ldi R16,10
	xcall _LCD_WR_CMD
	.dbline 197
;     //delay_us(1000);
;     LCD_WR_CMD(0x07,0x0037);        //8,
	ldi R18,55
	ldi R19,0
	ldi R16,7
	xcall _LCD_WR_CMD
	.dbline 199
; 
;     LCD_WR_CMD(0x08,0x0707);        //70
	ldi R18,1799
	ldi R19,7
	ldi R16,8
	xcall _LCD_WR_CMD
	.dbline 200
;     LCD_WR_CMD(0x0c,0x01);
	ldi R18,1
	ldi R19,0
	ldi R16,12
	xcall _LCD_WR_CMD
	.dbline 201
;     LCD_WR_CMD(0x02,0x0400);        //
	ldi R18,1024
	ldi R19,4
	ldi R16,2
	xcall _LCD_WR_CMD
	.dbline 203
;     //delay_us(1000);
;     LCD_WR_CMD(0x0a,0x0107);        //IC
	ldi R18,263
	ldi R19,1
	ldi R16,10
	xcall _LCD_WR_CMD
	.dbline 206
;  //   delay_us(1000);
; 
;     LCD_WR_CMD(0x12,0x0001);        //VciOUT = 3V  0.83 = 2.49V
	ldi R18,1
	ldi R19,0
	ldi R16,18
	xcall _LCD_WR_CMD
	.dbline 209
;     // only 100(=VCI), 000(.92 VCI),001(.83),010(.73VCI) is valid. other is inhibited
;   //  delay_us(1000);
;     LCD_WR_CMD(0x0a,0x0101); 
	ldi R18,257
	ldi R19,1
	ldi R16,10
	xcall _LCD_WR_CMD
	.dbline 215
;    // delay_us(1000);
;    
;    // LCD_WR_CMD(0x13,0x404);
;    // delay_us(1);LCD_WR_CMD(0x0a,0x0101); delay_us(1);
; 
;     LCD_WR_CMD(0x11,0x0505);   //CAD=0
	ldi R18,1285
	ldi R19,5
	ldi R16,17
	xcall _LCD_WR_CMD
	.dbline 220
;    // delay_us(1);LCD_WR_CMD(0x0a,0x0101); delay_us(1);
; 
; 
; 
;     LCD_WR_CMD(0x14,0x2c0f); // last 4 bit must be 1!!! vcomg = 1, 
	ldi R18,11279
	ldi R19,44
	ldi R16,20
	xcall _LCD_WR_CMD
	.dbline 222
;     // VDV4-0 == 09-0e,10-12 // other is inhibited.!!! 
;     delay_3us();
	xcall _delay_3us
	.dbline 223
;     LCD_WR_CMD(0x0a,0x0102); 
	ldi R18,258
	ldi R19,1
	ldi R16,10
	xcall _LCD_WR_CMD
	.dbline 226
;    // delay_us(1);
; 
;     LCD_WR_CMD(0x10,0x1a10);// if Vci > 3.0V, use 0x1a10.
	ldi R18,6672
	ldi R19,26
	ldi R16,16
	xcall _LCD_WR_CMD
	.dbline 227
;     delay_3us();
	xcall _delay_3us
	.dbline 228
;     LCD_WR_CMD(0x0a,0x0100); 
	ldi R18,256
	ldi R19,1
	ldi R16,10
	xcall _LCD_WR_CMD
	.dbline 231
;   //  delay_3us();
; 
;     LCD_WR_CMD(0x13,0x0616); //////////!!!!!!!!!!!!! VERY IMPORTANT!!!
	ldi R18,1558
	ldi R19,6
	ldi R16,19
	xcall _LCD_WR_CMD
	.dbline 233
;     //set VRH3-0 to fit REG1out= 3 to DDVDH-0.5
;     delay_3us();
	xcall _delay_3us
	.dbline 234
;     LCD_WR_CMD(0x0a,0x0101); 
	ldi R18,257
	ldi R19,1
	ldi R16,10
	xcall _LCD_WR_CMD
	.dbline 237
;   //  delay_nms(1);
; 
;     LCD_WR_CMD(0x30,0x0003);
	ldi R18,3
	ldi R19,0
	ldi R16,48
	xcall _LCD_WR_CMD
	.dbline 238
;     LCD_WR_CMD(0x31,0x0404);
	ldi R18,1028
	ldi R19,4
	ldi R16,49
	xcall _LCD_WR_CMD
	.dbline 239
;     LCD_WR_CMD(0x32,0x0303);
	ldi R18,771
	ldi R19,3
	ldi R16,50
	xcall _LCD_WR_CMD
	.dbline 240
;     LCD_WR_CMD(0x33,0x0406);
	ldi R18,1030
	ldi R19,4
	ldi R16,51
	xcall _LCD_WR_CMD
	.dbline 241
;     LCD_WR_CMD(0x34,0x0404);
	ldi R18,1028
	ldi R19,4
	ldi R16,52
	xcall _LCD_WR_CMD
	.dbline 242
;     LCD_WR_CMD(0x35,0x0303);
	ldi R18,771
	ldi R19,3
	ldi R16,53
	xcall _LCD_WR_CMD
	.dbline 243
;     LCD_WR_CMD(0x36,0x0407);
	ldi R18,1031
	ldi R19,4
	ldi R16,54
	xcall _LCD_WR_CMD
	.dbline 244
;     LCD_WR_CMD(0x37,0x0604);
	ldi R18,1540
	ldi R19,6
	ldi R16,55
	xcall _LCD_WR_CMD
	.dbline 246
;     
;     delay_3us();
	xcall _delay_3us
	.dbline 251
;   //  LCD_WR_CMD(0x0a,0x0100);
;    // delay_nms(1); 
;     
;     //*********** SAP, AP set****************	
;     LCD_WR_CMD(0x10,0x1a10);//BT2-0 Ok,and...
	ldi R18,6672
	ldi R19,26
	ldi R16,16
	xcall _LCD_WR_CMD
	.dbline 252
;     delay_3us();
	xcall _delay_3us
	.dbline 253
;     LCD_WR_CMD(0x0a,0x0100); 
	ldi R18,256
	ldi R19,1
	ldi R16,10
	xcall _LCD_WR_CMD
	.dbline 256
;   //  delay_us(100);	
; 	//*********** PON  set********************
; 	LCD_WR_CMD(0x13,0x0616); //////////
	ldi R18,1558
	ldi R19,6
	ldi R16,19
	xcall _LCD_WR_CMD
	.dbline 266
;     
;  //   delay_3us();
;   //  LCD_WR_CMD(0x0a,0x0101); 
;    // delay_us(100);
;     
;     //***********Display ON set*****************
;    // LCD_WR_CMD(0x07,0x0037);
;  //   delay_3us();
;   // LCD_WR_CMD(0x0a,0x0100); 
;     delay_n100us(1); 
	ldi R16,1
	ldi R17,0
	xcall _delay_n100us
	.dbline -2
L7:
	.dbline 0 ; func end
	ret
	.dbend
	.dbfunc e LCD_clear _LCD_clear fV
;            num -> R20,R21
;              p -> R22,R23
	.even
_LCD_clear::
	xcall push_gset2
	movw R22,R16
	.dbline -1
	.dbline 281
;      
; }
; 
; 
; 
; 
; 
; 
; //***********************************************************************
; //	   
; //***********************************************************************
; 
; 
; void LCD_clear(uint p)
; {
	.dbline 284
; 	uint num;
; 	
; 	LCD_WR_CMD(0x44,127*256+0);
	ldi R18,32512
	ldi R19,127
	ldi R16,68
	xcall _LCD_WR_CMD
	.dbline 285
; 	LCD_WR_CMD(0x45,239*256+80);
	ldi R18,61264
	ldi R19,239
	ldi R16,69
	xcall _LCD_WR_CMD
	.dbline 286
; 	LCD_WR_CMD(0x21,80*256+0);	
	ldi R18,20480
	ldi R19,80
	ldi R16,33
	xcall _LCD_WR_CMD
	.dbline 287
; 	LCD_WR_REG(0x22);
	ldi R16,34
	xcall _LCD_WR_REG
	.dbline 288
; 	LCD_EC0;
	lds R24,98
	andi R24,247
	sts 98,R24
	.dbline 289
; 	LCD_RS1;
	lds R24,98
	ori R24,2
	sts 98,R24
	.dbline 290
; 	for(num=160*128;num>0;num--)
	ldi R20,20480
	ldi R21,80
	xjmp L12
L9:
	.dbline 291
	.dbline 292
	movw R16,R22
	xcall _LCD_WR_Data
	.dbline 293
L10:
	.dbline 290
	subi R20,1
	sbci R21,0
L12:
	.dbline 290
	cpi R20,0
	cpc R20,R21
	brne L9
X0:
	.dbline 294
; 	{
; 		LCD_WR_Data(p);
; 	}
; 	LCD_WR_CMD(0x44,95*256+0);
	ldi R18,24320
	ldi R19,95
	ldi R16,68
	xcall _LCD_WR_CMD
	.dbline 295
; 	LCD_WR_CMD(0x45,79*256+16);
	ldi R18,20240
	ldi R19,79
	ldi R16,69
	xcall _LCD_WR_CMD
	.dbline 296
; 	LCD_WR_CMD(0x21,16*256+0);	
	ldi R18,4096
	ldi R19,16
	ldi R16,33
	xcall _LCD_WR_CMD
	.dbline 297
; 	LCD_WR_REG(0x22);
	ldi R16,34
	xcall _LCD_WR_REG
	.dbline 298
; 	LCD_EC0;
	lds R24,98
	andi R24,247
	sts 98,R24
	.dbline 299
; 	LCD_RS1;
	lds R24,98
	ori R24,2
	sts 98,R24
	.dbline 300
; 	for(num=64*96;num>0;num--)
	ldi R20,6144
	ldi R21,24
	xjmp L16
L13:
	.dbline 301
	.dbline 302
	movw R16,R22
	xcall _LCD_WR_Data
	.dbline 303
L14:
	.dbline 300
	subi R20,1
	sbci R21,0
L16:
	.dbline 300
	cpi R20,0
	cpc R20,R21
	brne L13
X1:
	.dbline 304
; 	{
; 		LCD_WR_Data(p);
; 	}
; 	LCD_EC1;
	lds R24,98
	ori R24,8
	sts 98,R24
	.dbline -2
L8:
	xcall pop_gset2
	.dbline 0 ; func end
	ret
	.dbsym r num 20 i
	.dbsym r p 22 i
	.dbend
	.dbfunc e DisplayChar _DisplayChar fV
;              p -> R20,R21
;              j -> R22
;              i -> R12
;              b -> R14
;     char_color -> R10,R11
;      postion_y -> y+10
;      postion_x -> R20
;           casc -> R22
	.even
_DisplayChar::
	xcall push_gset5
	mov R20,R18
	mov R22,R16
	ldd R10,y+12
	ldd R11,y+13
	.dbline -1
	.dbline 316
; }
; 
; //***********************************************************************
; //	   8X16
; //	   casc:
; //     x:,128/8 ==16
; //     y:,160/16==10
; //     char_color:
; //***********************************************************************
; 
; void DisplayChar(uchar casc,uchar postion_x,uchar postion_y,uint char_color)
; {
	.dbline 323
; 
; 	uchar i,j,b;
; 	 
; 	 uchar *p;
; 	
; 	
; 	LCD_WR_CMD(0x44,(postion_x*8+7)*256+(postion_x*8));	            //x end point
	ldi R24,8
	mul R24,R20
	movw R2,R0
	ldi R16,256
	ldi R17,1
	movw R18,R2
	xcall empy16s
	movw R18,R16
	subi R18,0  ; offset = 1792
	sbci R19,249
	add R18,R2
	adc R19,R3
	ldi R16,68
	xcall _LCD_WR_CMD
	.dbline 324
; 	LCD_WR_CMD(0x45,(postion_y*16+15+80)*256+(postion_y*16+80));	//y end point
	ldi R24,16
	ldd R0,y+10
	mul R24,R0
	movw R2,R0
	ldi R16,256
	ldi R17,1
	movw R18,R2
	xcall empy16s
	movw R18,R16
	subi R18,0  ; offset = 24320
	sbci R19,161
	movw R24,R2
	subi R24,176  ; offset = 80
	sbci R25,255
	add R18,R24
	adc R19,R25
	ldi R16,69
	xcall _LCD_WR_CMD
	.dbline 325
; 	LCD_WR_CMD(0x21,(postion_y*16+80)*256+(postion_x*8));	
	ldi R24,16
	ldd R0,y+10
	mul R24,R0
	movw R18,R0
	ldi R16,256
	ldi R17,1
	xcall empy16s
	movw R18,R16
	subi R18,0  ; offset = 20480
	sbci R19,176
	ldi R24,8
	mul R24,R20
	add R18,R0
	adc R19,R1
	ldi R16,33
	xcall _LCD_WR_CMD
	.dbline 326
; 	LCD_WR_REG(0x22);
	ldi R16,34
	xcall _LCD_WR_REG
	.dbline 327
; 	LCD_EC0;
	lds R24,98
	andi R24,247
	sts 98,R24
	.dbline 328
; 	LCD_RS1;
	lds R24,98
	ori R24,2
	sts 98,R24
	.dbline 329
; 	p=ascii;
	ldi R20,<_ascii
	ldi R21,>_ascii
	.dbline 330
; 	p+=casc*16;
	ldi R24,16
	mul R24,R22
	add R20,R0
	adc R21,R1
	.dbline 331
; 	for(j=0;j<16;j++)
	clr R22
	xjmp L21
L18:
	.dbline 332
; 	{
	.dbline 333
; 		b=*(p+j);
	mov R30,R22
	clr R31
	add R30,R20
	adc R31,R21
	ldd R14,z+0
	.dbline 334
; 		for(i=0;i<8;i++)
	clr R12
	xjmp L25
L22:
	.dbline 335
; 		{
	.dbline 336
; 			if(b&0x80)
	sbrs R14,7
	rjmp L26
	.dbline 337
; 			{
	.dbline 338
; 				LCD_WR_Data(char_color);                //
	movw R16,R10
	xcall _LCD_WR_Data
	.dbline 339
; 			}
	xjmp L27
L26:
	.dbline 341
; 			else
; 			{
	.dbline 342
; 				LCD_WR_Data(0x0000);       				//
	clr R16
	clr R17
	xcall _LCD_WR_Data
	.dbline 343
; 			}
L27:
	.dbline 344
	lsl R14
	.dbline 346
L23:
	.dbline 334
	inc R12
L25:
	.dbline 334
	mov R24,R12
	cpi R24,8
	brlo L22
	.dbline 347
L19:
	.dbline 331
	inc R22
L21:
	.dbline 331
	cpi R22,16
	brlo L18
	.dbline 348
; 			b=b<<1;
; 			
; 		}	
; 	}
; 	LCD_EC1;
	lds R24,98
	ori R24,8
	sts 98,R24
	.dbline -2
L17:
	xcall pop_gset5
	.dbline 0 ; func end
	ret
	.dbsym r p 20 pc
	.dbsym r j 22 c
	.dbsym r i 12 c
	.dbsym r b 14 c
	.dbsym r char_color 10 i
	.dbsym l postion_y 10 c
	.dbsym r postion_x 20 c
	.dbsym r casc 22 c
	.dbend
	.dbfunc e DisplayGB2312 _DisplayGB2312 fV
;              p -> R20,R21
;              j -> R22
;              i -> R12
;              b -> R14
;       gb_color -> R10,R11
;      postion_y -> y+10
;      postion_x -> R20
;             gb -> R22
	.even
_DisplayGB2312::
	xcall push_gset5
	mov R20,R18
	mov R22,R16
	ldd R10,y+12
	ldd R11,y+13
	.dbline -1
	.dbline 359
; }
; //***********************************************************************
; //        16X16
; //		  gb:
; //         x:
; //         y:
; //		  color:
; //***********************************************************************
; 
; void DisplayGB2312(uchar gb,uchar postion_x,uchar postion_y,uint gb_color)
; {
	.dbline 364
; 
; 	uchar i,j,b;
; 	uchar *p;
; 	
; 	LCD_WR_CMD(0x44,(postion_x*16+15)*256+(postion_x*16));	        //x end point
	ldi R24,16
	mul R24,R20
	movw R2,R0
	ldi R16,256
	ldi R17,1
	movw R18,R2
	xcall empy16s
	movw R18,R16
	subi R18,0  ; offset = 3840
	sbci R19,241
	add R18,R2
	adc R19,R3
	ldi R16,68
	xcall _LCD_WR_CMD
	.dbline 365
; 	LCD_WR_CMD(0x45,(postion_y*16+15+80)*256+(postion_y*16+80));	//y end point
	ldi R24,16
	ldd R0,y+10
	mul R24,R0
	movw R2,R0
	ldi R16,256
	ldi R17,1
	movw R18,R2
	xcall empy16s
	movw R18,R16
	subi R18,0  ; offset = 24320
	sbci R19,161
	movw R24,R2
	subi R24,176  ; offset = 80
	sbci R25,255
	add R18,R24
	adc R19,R25
	ldi R16,69
	xcall _LCD_WR_CMD
	.dbline 366
; 	LCD_WR_CMD(0x21,(postion_y*16+80)*256+(postion_x*16));	
	ldi R24,16
	ldd R0,y+10
	mul R24,R0
	movw R18,R0
	ldi R16,256
	ldi R17,1
	xcall empy16s
	movw R18,R16
	subi R18,0  ; offset = 20480
	sbci R19,176
	ldi R24,16
	mul R24,R20
	add R18,R0
	adc R19,R1
	ldi R16,33
	xcall _LCD_WR_CMD
	.dbline 367
; 	LCD_WR_REG(0x22);
	ldi R16,34
	xcall _LCD_WR_REG
	.dbline 368
; 	LCD_EC0;
	lds R24,98
	andi R24,247
	sts 98,R24
	.dbline 369
; 	LCD_RS1;
	lds R24,98
	ori R24,2
	sts 98,R24
	.dbline 370
; 	p=GB2312;
	ldi R20,<_GB2312
	ldi R21,>_GB2312
	.dbline 371
; 	p+=gb*32;
	ldi R24,32
	mul R24,R22
	add R20,R0
	adc R21,R1
	.dbline 372
; 	for(j=0;j<32;j++)
	clr R22
	xjmp L32
L29:
	.dbline 373
; 	{
	.dbline 374
; 		b=*(p+j);
	mov R30,R22
	clr R31
	add R30,R20
	adc R31,R21
	ldd R14,z+0
	.dbline 375
; 		for(i=0;i<8;i++)
	clr R12
	xjmp L36
L33:
	.dbline 376
; 		{
	.dbline 377
; 			if(b&0x80)
	sbrs R14,7
	rjmp L37
	.dbline 378
; 			{
	.dbline 379
; 				LCD_WR_Data(gb_color);          //
	movw R16,R10
	xcall _LCD_WR_Data
	.dbline 380
; 			}
	xjmp L38
L37:
	.dbline 382
; 			else
; 			{
	.dbline 383
; 				LCD_WR_Data(0x0000);         //
	clr R16
	clr R17
	xcall _LCD_WR_Data
	.dbline 384
; 			}
L38:
	.dbline 385
	lsl R14
	.dbline 387
L34:
	.dbline 375
	inc R12
L36:
	.dbline 375
	mov R24,R12
	cpi R24,8
	brlo L33
	.dbline 388
L30:
	.dbline 372
	inc R22
L32:
	.dbline 372
	cpi R22,32
	brlo L29
	.dbline 389
; 			b=b<<1;
; 			
; 		}	
; 	}
; 	LCD_EC1;
	lds R24,98
	ori R24,8
	sts 98,R24
	.dbline -2
L28:
	xcall pop_gset5
	.dbline 0 ; func end
	ret
	.dbsym r p 20 pc
	.dbsym r j 22 c
	.dbsym r i 12 c
	.dbsym r b 14 c
	.dbsym r gb_color 10 i
	.dbsym l postion_y 10 c
	.dbsym r postion_x 20 c
	.dbsym r gb 22 c
	.dbend
	.dbfunc e DisplayString _DisplayString fV
;        s_color -> R20,R21
;              y -> R22
;              x -> R10
;              s -> R12,R13
	.even
_DisplayString::
	xcall push_gset4
	mov R10,R18
	movw R12,R16
	sbiw R28,4
	ldd R22,y+12
	ldd R20,y+14
	ldd R21,y+15
	.dbline -1
	.dbline 400
; }
; 
; //***********************************************************************
; //         
; //		   s:ASCII
; //         x:
; //         y:
; //***********************************************************************
; 
; void DisplayString(uchar *s,uchar x,uchar y,uint s_color)                      //.
; {
	xjmp L41
L40:
	.dbline 402
; 	while (*s) 
; 	{ 
	.dbline 403
; 		DisplayChar(*s,x,y,s_color);
	std y+3,R21
	std y+2,R20
	std y+0,R22
	mov R18,R10
	movw R30,R12
	ldd R16,z+0
	xcall _DisplayChar
	.dbline 404
; 		if(++x>=16)
	mov R24,R10
	subi R24,255    ; addi 1
	mov R10,R24
	cpi R24,16
	brlo L43
	.dbline 405
; 		{
	.dbline 406
; 			x=0;
	clr R10
	.dbline 407
; 			if(++y>=10)
	mov R24,R22
	subi R24,255    ; addi 1
	mov R22,R24
	cpi R22,10
	brlo L45
	.dbline 408
; 			{
	.dbline 409
; 				y=0;
	clr R22
	.dbline 410
; 			}
L45:
	.dbline 411
; 		}
L43:
	.dbline 412
	movw R24,R12
	adiw R24,1
	movw R12,R24
	.dbline 413
L41:
	.dbline 401
	movw R30,R12
	ldd R2,z+0
	tst R2
	brne L40
	.dbline -2
L39:
	adiw R28,4
	xcall pop_gset4
	.dbline 0 ; func end
	ret
	.dbsym r s_color 20 i
	.dbsym r y 22 c
	.dbsym r x 10 c
	.dbsym r s 12 pc
	.dbend
	.dbfunc e GUIback _GUIback fV
;            num -> R20,R21
;     back_color -> R22,R23
	.even
_GUIback::
	xcall push_gset2
	movw R22,R16
	.dbline -1
	.dbline 421
; 		s++;
;     }
; }
; 
; //***********************************************************************
; //          ,
; //***********************************************************************
; 
; void GUIback(uint back_color)                 //
;   {
	.dbline 423
;   	uint num;
; 	LCD_WR_CMD(0x44,127*256+0);              //
	ldi R18,32512
	ldi R19,127
	ldi R16,68
	xcall _LCD_WR_CMD
	.dbline 424
; 	LCD_WR_CMD(0x45,239*256+80);			 //
	ldi R18,61264
	ldi R19,239
	ldi R16,69
	xcall _LCD_WR_CMD
	.dbline 425
; 	LCD_WR_CMD(0x21,80*256);				 //RAM0x5000
	ldi R18,20480
	ldi R19,80
	ldi R16,33
	xcall _LCD_WR_CMD
	.dbline 426
; 	LCD_WR_REG(0x22);                     	 //GRAM
	ldi R16,34
	xcall _LCD_WR_REG
	.dbline 427
;     LCD_EC0;
	lds R24,98
	andi R24,247
	sts 98,R24
	.dbline 428
; 	LCD_RS1;
	lds R24,98
	ori R24,2
	sts 98,R24
	.dbline 429
; 	for(num=160*128;num>0;num--)
	ldi R20,20480
	ldi R21,80
	xjmp L51
L48:
	.dbline 430
	.dbline 431
	movw R16,R22
	xcall _LCD_WR_Data
	.dbline 432
L49:
	.dbline 429
	subi R20,1
	sbci R21,0
L51:
	.dbline 429
	cpi R20,0
	cpc R20,R21
	brne L48
X2:
	.dbline 433
; 	{
; 		LCD_WR_Data(back_color);
; 	}
; 	LCD_EC1;
	lds R24,98
	ori R24,8
	sts 98,R24
	.dbline -2
L47:
	xcall pop_gset2
	.dbline 0 ; func end
	ret
	.dbsym r num 20 i
	.dbsym r back_color 22 i
	.dbend
	.dbfunc e GUIpoint _GUIpoint fV
;    point_color -> y+4
;              y -> R22
;              x -> R20
	.even
_GUIpoint::
	xcall push_gset2
	mov R22,R18
	mov R20,R16
	.dbline -1
	.dbline 441
;   }
; 
; //***********************************************************************
; //         GUIx,y
; //***********************************************************************
; 
; void GUIpoint(uchar x,uchar y,uint point_color)                      //
; {
	.dbline 443
; 	
; 	LCD_WR_CMD(0x44,127*256+0);              //
	ldi R18,32512
	ldi R19,127
	ldi R16,68
	xcall _LCD_WR_CMD
	.dbline 444
; 	LCD_WR_CMD(0x45,239*256+80);			 //
	ldi R18,61264
	ldi R19,239
	ldi R16,69
	xcall _LCD_WR_CMD
	.dbline 445
; 	LCD_WR_CMD(0x21,(y+80)*256+x);			 //RAM0x5000
	mov R18,R22
	clr R19
	ldi R16,256
	ldi R17,1
	xcall empy16s
	movw R18,R16
	subi R18,0  ; offset = 20480
	sbci R19,176
	mov R2,R20
	clr R3
	add R18,R2
	adc R19,R3
	ldi R16,33
	xcall _LCD_WR_CMD
	.dbline 446
; 	LCD_WR_REG(0x22);                     	 //GRAM
	ldi R16,34
	xcall _LCD_WR_REG
	.dbline 447
; 	LCD_EC0;
	lds R24,98
	andi R24,247
	sts 98,R24
	.dbline 448
; 	LCD_RS1;
	lds R24,98
	ori R24,2
	sts 98,R24
	.dbline 450
; 	
; 	LCD_WR_Data(point_color);               //	
	ldd R16,y+4
	ldd R17,y+5
	xcall _LCD_WR_Data
	.dbline 452
; 	
; 	LCD_EC1;	
	lds R24,98
	ori R24,8
	sts 98,R24
	.dbline -2
L52:
	xcall pop_gset2
	.dbline 0 ; func end
	ret
	.dbsym l point_color 4 i
	.dbsym r y 22 c
	.dbsym r x 20 c
	.dbend
	.dbfunc e GUIline _GUIline fV
;           temp -> y+10
;             dy -> y+8
;             dx -> y+6
;             s2 -> y+4
;             s1 -> y+2
;         status -> R20,R21
;              i -> R22,R23
;             Dx -> R10,R11
;             Dy -> R12,R13
;            sub -> R14,R15
;     line_color -> y+30
;             y1 -> y+28
;             x1 -> y+26
;             y0 -> y+24
;             x0 -> y+22
	.even
_GUIline::
	xcall push_arg4
	xcall push_gset5
	sbiw R28,12
	.dbline -1
	.dbline 463
; }
; 
; 
; 
; //***********************************************************************
; //         GUIx0,y0,x1,y1
; //		   line_color 
; //***********************************************************************
; 
; void GUIline(uchar x0,uchar y0,uchar x1,uchar y1,uint line_color)   //
; {
	.dbline 469
;   	int temp; 
;     int dx,dy;               	// 
;     int s1,s2,status,i; 
;     int Dx,Dy,sub; 
; 	
; 	dx = x1 - x0; 
	ldd R2,y+22
	clr R3
	ldd R4,y+26
	clr R5
	sub R4,R2
	sbc R5,R3
	std y+7,R5
	std y+6,R4
	.dbline 470
;     if(dx >= 0)                 //X 
	movw R24,R4
	cpi R24,0
	ldi R30,0
	cpc R25,R30
	brlt L54
	.dbline 471
;         s1 = 1; 
	ldi R24,1
	ldi R25,0
	std y+3,R25
	std y+2,R24
	xjmp L55
L54:
	.dbline 473
;     else                     	//X 
;         s1 = -1;      
	ldi R24,-1
	ldi R25,-1
	std y+3,R25
	std y+2,R24
L55:
	.dbline 474
;     dy = y1 - y0;                 //Y 
	ldd R2,y+24
	clr R3
	ldd R4,y+28
	clr R5
	sub R4,R2
	sbc R5,R3
	std y+9,R5
	std y+8,R4
	.dbline 475
;     if(dy >= 0) 
	movw R24,R4
	cpi R24,0
	ldi R30,0
	cpc R25,R30
	brlt L56
	.dbline 476
;         s2 = 1; 
	ldi R24,1
	ldi R25,0
	std y+5,R25
	std y+4,R24
	xjmp L57
L56:
	.dbline 478
;     else 
;         s2 =- 1; 
	ldi R24,-1
	ldi R25,-1
	std y+5,R25
	std y+4,R24
L57:
	.dbline 480
;    
;     Dx = abs(x1-x0);             // 
	ldd R2,y+22
	clr R3
	ldd R16,y+26
	clr R17
	sub R16,R2
	sbc R17,R3
	xcall _abs
	movw R10,R16
	.dbline 481
;     Dy = abs(y1-y0); 
	ldd R2,y+24
	clr R3
	ldd R16,y+28
	clr R17
	sub R16,R2
	sbc R17,R3
	xcall _abs
	movw R12,R16
	.dbline 483
;         
;     if(Dy > Dx)                               
	cp R10,R16
	cpc R11,R17
	brge L58
	.dbline 484
;     {                     		//45Ystatus=1,Xstatus=0  
	.dbline 485
;         temp = Dx; 
	std y+11,R11
	std y+10,R10
	.dbline 486
;         Dx = Dy; 
	movw R10,R12
	.dbline 487
;         Dy = temp; 
	ldd R12,y+10
	ldd R13,y+11
	.dbline 488
;     status = 1; 
	ldi R20,1
	ldi R21,0
	.dbline 489
;     }  
	xjmp L59
L58:
	.dbline 491
;     else 
;         status = 0; 
	clr R20
	clr R21
L59:
	.dbline 494
; 
; /*********Bresenham********/  
;     sub = Dy + Dy - Dx;                 //1 
	movw R14,R12
	add R14,R12
	adc R15,R13
	sub R14,R10
	sbc R15,R11
	.dbline 495
;     for(i = 0;i < Dx;i ++) 
	clr R22
	clr R23
	xjmp L63
L60:
	.dbline 496
;     {  
	.dbline 497
;         GUIpoint(x0,y0,line_color);           //  
	ldd R0,y+30
	ldd R1,y+31
	std y+1,R1
	std y+0,R0
	ldd R18,y+24
	ldd R16,y+22
	xcall _GUIpoint
	.dbline 498
;         if(sub >= 0)                                
	movw R24,R14
	cpi R24,0
	ldi R30,0
	cpc R25,R30
	brlt L64
	.dbline 499
;         {  
	.dbline 500
;             if(status == 1)               //Yx1 
	cpi R20,1
	ldi R30,0
	cpc R21,R30
	brne L66
	.dbline 501
;                 x0 += s1;  
	ldd R2,y+2
	ldd R3,y+3
	ldd R4,y+22
	clr R5
	add R4,R2
	adc R5,R3
	std y+22,R4
	xjmp L67
L66:
	.dbline 503
;             else                     //Xy1                
;                 y0 += s2;  
	ldd R2,y+4
	ldd R3,y+5
	ldd R4,y+24
	clr R5
	add R4,R2
	adc R5,R3
	std y+24,R4
L67:
	.dbline 504
;             sub -= (Dx + Dx);                 //  
	movw R2,R10
	add R2,R10
	adc R3,R11
	sub R14,R2
	sbc R15,R3
	.dbline 505
;         }  
L64:
	.dbline 506
;         if(status == 1) 
	cpi R20,1
	ldi R30,0
	cpc R21,R30
	brne L68
	.dbline 507
;             y0 += s2;  
	ldd R2,y+4
	ldd R3,y+5
	ldd R4,y+24
	clr R5
	add R4,R2
	adc R5,R3
	std y+24,R4
	xjmp L69
L68:
	.dbline 509
;         else        
;             x0 += s1;  
	ldd R2,y+2
	ldd R3,y+3
	ldd R4,y+22
	clr R5
	add R4,R2
	adc R5,R3
	std y+22,R4
L69:
	.dbline 510
	movw R2,R12
	add R2,R12
	adc R3,R13
	add R14,R2
	adc R15,R3
	.dbline 512
L61:
	.dbline 495
	subi R22,255  ; offset = 1
	sbci R23,255
L63:
	.dbline 495
	cp R22,R10
	cpc R23,R11
	brge X3
	xjmp L60
X3:
	.dbline -2
L53:
	adiw R28,12
	xcall pop_gset5
	adiw R28,4
	.dbline 0 ; func end
	ret
	.dbsym l temp 10 I
	.dbsym l dy 8 I
	.dbsym l dx 6 I
	.dbsym l s2 4 I
	.dbsym l s1 2 I
	.dbsym r status 20 I
	.dbsym r i 22 I
	.dbsym r Dx 10 I
	.dbsym r Dy 12 I
	.dbsym r sub 14 I
	.dbsym l line_color 30 i
	.dbsym l y1 28 c
	.dbsym l x1 26 c
	.dbsym l y0 24 c
	.dbsym l x0 22 c
	.dbend
	.dbfunc e GUIfull _GUIfull fV
;              j -> R20
;              i -> R14
;    full_colour -> R22,R23
;             y1 -> R10
;             x1 -> R12
;             y0 -> R14
;             x0 -> y+12
	.even
_GUIfull::
	xcall push_arg4
	xcall push_gset5
	mov R14,R18
	sbiw R28,2
	ldd R12,y+16
	ldd R10,y+18
	ldd R22,y+20
	ldd R23,y+21
	.dbline -1
	.dbline 526
;         sub += Dy + Dy;  
;          
;     }  
; } 
; 
; /**************************************************************************** 
; * GUI_Full(unsigned char x0,unsigned char y0,unsigned char x1,unsigned char y1,unsigned char full_colour) 
; *  
; * x0 			 
; *           y0    		 
; *           x1 			 
; *           y1      	 
; *          full_color      	 
; *  
; ****************************************************************************/ 
; void GUIfull(uchar x0,uchar y0,uchar x1,uchar y1,uint full_colour) 
; { 
	.dbline 528
;     unsigned char i,j; 
; for(j = y0;j <= y1;j ++) 
	mov R20,R14
	xjmp L74
L71:
	.dbline 529
;     for(i = x0;i <= x1;i ++) 
	ldd R14,y+12
	xjmp L78
L75:
	.dbline 530
	std y+1,R23
	std y+0,R22
	mov R18,R20
	mov R16,R14
	xcall _GUIpoint
L76:
	.dbline 529
	inc R14
L78:
	.dbline 529
	cp R12,R14
	brsh L75
L72:
	.dbline 528
	inc R20
L74:
	.dbline 528
	cp R10,R20
	brsh L71
	.dbline -2
L70:
	adiw R28,2
	xcall pop_gset5
	adiw R28,4
	.dbline 0 ; func end
	ret
	.dbsym r j 20 c
	.dbsym r i 14 c
	.dbsym r full_colour 22 i
	.dbsym r y1 10 c
	.dbsym r x1 12 c
	.dbsym r y0 14 c
	.dbsym l x0 12 c
	.dbend
	.dbfunc e plotC _plotC fV
;      yc_colour -> R14,R15
;             yc -> R10,R11
;             xc -> R22
;              y -> R20
;              x -> R12
	.even
_plotC::
	xcall push_gset5
	mov R20,R18
	mov R12,R16
	sbiw R28,2
	ldd R22,y+12
	ldd R10,y+14
	ldd R11,y+15
	ldd R14,y+16
	ldd R15,y+17
	.dbline -1
	.dbline 543
;     GUIpoint(i,j,full_colour); 
; } 
; 
; 
; /**************************************************************************** 
; * plotC(int x,int y,int xc,int yc,unsigned char yc_colour) 
; *  
; * x    		 
; *           y    		 
; *          yc_color 	, 
; *  
; ****************************************************************************/ 
; void plotC(uchar x,uchar y,uchar xc,int yc,uint yc_colour) 
; { 
	.dbline 544
;     GUIpoint(xc+x,yc+y,yc_colour); 
	std y+1,R15
	std y+0,R14
	mov R2,R20
	clr R3
	mov R18,R10
	add R18,R2
	adc R19,R3
	mov R16,R22
	add R16,R12
	xcall _GUIpoint
	.dbline 545
;     GUIpoint(xc+x,yc-y,yc_colour); 
	std y+1,R15
	std y+0,R14
	mov R2,R20
	clr R3
	mov R18,R10
	sub R18,R2
	sbc R19,R3
	mov R16,R22
	add R16,R12
	xcall _GUIpoint
	.dbline 546
;     GUIpoint(xc-x,yc+y,yc_colour); 
	std y+1,R15
	std y+0,R14
	mov R2,R20
	clr R3
	mov R18,R10
	add R18,R2
	adc R19,R3
	mov R16,R22
	sub R16,R12
	xcall _GUIpoint
	.dbline 547
;     GUIpoint(xc-x,yc-y,yc_colour); 
	std y+1,R15
	std y+0,R14
	mov R2,R20
	clr R3
	mov R18,R10
	sub R18,R2
	sbc R19,R3
	mov R16,R22
	sub R16,R12
	xcall _GUIpoint
	.dbline 548
;     GUIpoint(xc+y,yc+x,yc_colour); 
	std y+1,R15
	std y+0,R14
	mov R2,R12
	clr R3
	mov R18,R10
	add R18,R2
	adc R19,R3
	mov R16,R22
	add R16,R20
	xcall _GUIpoint
	.dbline 549
;     GUIpoint(xc+y,yc-x,yc_colour); 
	std y+1,R15
	std y+0,R14
	mov R2,R12
	clr R3
	mov R18,R10
	sub R18,R2
	sbc R19,R3
	mov R16,R22
	add R16,R20
	xcall _GUIpoint
	.dbline 550
;     GUIpoint(xc-y,yc+x,yc_colour); 
	std y+1,R15
	std y+0,R14
	mov R2,R12
	clr R3
	mov R18,R10
	add R18,R2
	adc R19,R3
	mov R16,R22
	sub R16,R20
	xcall _GUIpoint
	.dbline 551
;     GUIpoint(xc-y,yc-x,yc_colour); 
	std y+1,R15
	std y+0,R14
	mov R2,R12
	clr R3
	mov R18,R10
	sub R18,R2
	sbc R19,R3
	mov R16,R22
	sub R16,R20
	xcall _GUIpoint
	.dbline -2
L79:
	adiw R28,2
	xcall pop_gset5
	.dbline 0 ; func end
	ret
	.dbsym r yc_colour 14 i
	.dbsym r yc 10 I
	.dbsym r xc 22 c
	.dbsym r y 20 c
	.dbsym r x 12 c
	.dbend
	.dbfunc e GUIcircle _GUIcircle fV
;              d -> R20,R21
;              y -> R22,R23
;              x -> R10,R11
;  circle_colour -> R12,R13
;              r -> y+20
;             yc -> R14
;             xc -> y+16
	.even
_GUIcircle::
	xcall push_arg4
	xcall push_gset5
	mov R14,R18
	sbiw R28,6
	ldd R12,y+22
	ldd R13,y+23
	.dbline -1
	.dbline 564
; } 
; 
; /**************************************************************************** 
; * GUI_Circle(int xc,int yc,int r,unsigned char circle_colour) 
; *  
; * xc 				 
; *           yc    			 
; *           r 				 
; *          circle_color      
; *  
; ****************************************************************************/ 
; void GUIcircle(uchar xc,uchar yc,uchar r,uint circle_colour) 
; { 
	.dbline 566
;     int x,y,d; 
;     y = r; 
	ldd R22,y+20
	clr R23
	.dbline 567
;     d = 3 - (r + r); 
	mov R2,R22
	clr R3
	mov R4,R2
	clr R5
	add R4,R2
	adc R5,R3
	ldi R20,3
	ldi R21,0
	sub R20,R4
	sbc R21,R5
	.dbline 568
;     x = 0; 
	clr R10
	clr R11
	xjmp L82
L81:
	.dbline 570
;     while(x <= y) 
;     { 
	.dbline 571
;         plotC(x,y,xc,yc,circle_colour); 
	std y+5,R13
	std y+4,R12
	mov R2,R14
	clr R3
	std y+3,R3
	std y+2,R2
	ldd R0,y+16
	std y+0,R0
	mov R18,R22
	mov R16,R10
	xcall _plotC
	.dbline 572
;         if(d < 0) 
	cpi R20,0
	ldi R30,0
	cpc R21,R30
	brge L84
	.dbline 573
;             d += (x + x + x + x) + 6; 
	movw R24,R10
	add R24,R10
	adc R25,R11
	add R24,R10
	adc R25,R11
	add R24,R10
	adc R25,R11
	adiw R24,6
	add R20,R24
	adc R21,R25
	xjmp L85
L84:
	.dbline 575
;         else 
;         { 
	.dbline 576
;             d+=((x - y) + (x - y) + (x - y) + (x - y)) + 10; 
	movw R2,R10
	sub R2,R22
	sbc R3,R23
	movw R24,R2
	add R24,R2
	adc R25,R3
	add R24,R2
	adc R25,R3
	add R24,R2
	adc R25,R3
	adiw R24,10
	add R20,R24
	adc R21,R25
	.dbline 577
;             y = y - 1; 
	subi R22,1
	sbci R23,0
	.dbline 578
;         } 
L85:
	.dbline 579
	movw R24,R10
	adiw R24,1
	movw R10,R24
	.dbline 580
L82:
	.dbline 569
	cp R22,R10
	cpc R23,R11
	brge L81
	.dbline -2
L80:
	adiw R28,6
	xcall pop_gset5
	adiw R28,4
	.dbline 0 ; func end
	ret
	.dbsym r d 20 I
	.dbsym r y 22 I
	.dbsym r x 10 I
	.dbsym r circle_colour 12 i
	.dbsym l r 20 c
	.dbsym r yc 14 c
	.dbsym l xc 16 c
	.dbend
	.dbfunc e GUI_sprintf_nu _GUI_sprintf_nu fV
;          color -> y+10
;             nu -> y+8
;              y -> R22,R23
;              x -> R20,R21
	.even
_GUI_sprintf_nu::
	xcall push_gset2
	movw R22,R18
	movw R20,R16
	sbiw R28,4
	.dbline -1
	.dbline 588
;         x = x + 1; 
;     } 
; }
; 
; /*********************************************
; //
; //(xy)nu,color,b_color
; **********************************************/
; void  GUI_sprintf_nu(uint x, uint y,uint nu, uint color)
; {  
	.dbline 589
;   DisplayChar(nu+'0',x,y,color);
	ldd R0,y+10
	ldd R1,y+11
	std y+3,R1
	std y+2,R0
	std y+0,R22
	mov R18,R20
	ldd R16,y+8
	ldd R17,y+9
	subi R16,208  ; offset = 48
	sbci R17,255
	xcall _DisplayChar
	.dbline -2
L86:
	adiw R28,4
	xcall pop_gset2
	.dbline 0 ; func end
	ret
	.dbsym l color 10 i
	.dbsym l nu 8 i
	.dbsym r y 22 i
	.dbsym r x 20 i
	.dbend
	.dbfunc e GUI_sprintf_chartobit _GUI_sprintf_chartobit fV
;              i -> R20,R21
;          color -> R22,R23
;       bin_data -> R10,R11
;              y -> R12,R13
;              x -> R14,R15
	.even
_GUI_sprintf_chartobit::
	xcall push_gset5
	movw R12,R18
	movw R14,R16
	sbiw R28,4
	ldd R10,y+14
	ldd R11,y+15
	ldd R22,y+16
	ldd R23,y+17
	.dbline -1
	.dbline 597
; }
; 
; /**********************************************************
; //
; //(xy)color 
; ************************************************************/
; void  GUI_sprintf_chartobit(uint x, uint y,uint bin_data, uint color)
; {  
	.dbline 599
;   uint i ;
;   for(i=0;i<8;i++)
	clr R20
	clr R21
	xjmp L91
L88:
	.dbline 600
;     {
	.dbline 601
; 	  if((bin_data&(0x80>>i))==(0x80>>i))
	ldi R16,128
	ldi R17,0
	movw R18,R20
	xcall asr16
	movw R2,R10
	and R2,R16
	and R3,R17
	cp R2,R16
	cpc R3,R17
	brne L92
	.dbline 602
; 	    {
	.dbline 603
; 		  GUI_sprintf_nu(x,y,1,color) ;
	std y+3,R23
	std y+2,R22
	ldi R24,1
	ldi R25,0
	std y+1,R25
	std y+0,R24
	movw R18,R12
	movw R16,R14
	xcall _GUI_sprintf_nu
	.dbline 604
; 		}
	xjmp L93
L92:
	.dbline 606
; 	  else 
; 	    {
	.dbline 607
; 		  GUI_sprintf_nu(x,y,0,color) ;
	std y+3,R23
	std y+2,R22
	clr R2
	clr R3
	std y+1,R3
	std y+0,R2
	movw R18,R12
	movw R16,R14
	xcall _GUI_sprintf_nu
	.dbline 608
; 		}
L93:
	.dbline 610
	movw R24,R14
	adiw R24,1
	movw R14,R24
	.dbline 611
L89:
	.dbline 599
	subi R20,255  ; offset = 1
	sbci R21,255
L91:
	.dbline 599
	cpi R20,8
	ldi R30,0
	cpc R21,R30
	brlo L88
	.dbline -2
L87:
	adiw R28,4
	xcall pop_gset5
	.dbline 0 ; func end
	ret
	.dbsym r i 20 i
	.dbsym r color 22 i
	.dbsym r bin_data 10 i
	.dbsym r y 12 i
	.dbsym r x 14 i
	.dbend
	.dbfunc e GUI_sprintf_chartohex _GUI_sprintf_chartohex fV
;              i -> <dead>
;          color -> y+10
;       hex_data -> y+8
;              y -> R22,R23
;              x -> R20,R21
	.even
_GUI_sprintf_chartohex::
	xcall push_gset2
	movw R22,R18
	movw R20,R16
	sbiw R28,4
	.dbline -1
	.dbline 621
; 		
; 	  x+=1 ;
; 	}
;  
; }
; 
; 
; /**********************************************************
; //
; //(xy)color 
; ************************************************************/
; void  GUI_sprintf_chartohex(uint x, uint y,uint hex_data, uint color)
; {  
	.dbline 624
;   uint i ;
; 
; 		  GUI_sprintf_nu(x,y,hex_data>>4,color) ;
	ldd R0,y+10
	ldd R1,y+11
	std y+3,R1
	std y+2,R0
	ldd R2,y+8
	ldd R3,y+9
	lsr R3
	ror R2
	lsr R3
	ror R2
	lsr R3
	ror R2
	lsr R3
	ror R2
	std y+1,R3
	std y+0,R2
	movw R18,R22
	movw R16,R20
	xcall _GUI_sprintf_nu
	.dbline 625
; 		  x+=1 ;
	subi R20,255  ; offset = 1
	sbci R21,255
	.dbline 626
; 		  GUI_sprintf_nu(x,y,hex_data&0x0f,color) ;
	ldd R0,y+10
	ldd R1,y+11
	std y+3,R1
	std y+2,R0
	ldd R24,y+8
	ldd R25,y+9
	andi R24,15
	andi R25,0
	std y+1,R25
	std y+0,R24
	movw R18,R22
	movw R16,R20
	xcall _GUI_sprintf_nu
	.dbline -2
L94:
	adiw R28,4
	xcall pop_gset2
	.dbline 0 ; func end
	ret
	.dbsym l i 5 i
	.dbsym l color 10 i
	.dbsym l hex_data 8 i
	.dbsym r y 22 i
	.dbsym r x 20 i
	.dbend
