
LCD12864_TUXING.elf:     file format elf32-avr

Sections:
Idx Name          Size      VMA       LMA       File off  Algn
  0 .text         00000e50  00000000  00000000  00000074  2**1
                  CONTENTS, ALLOC, LOAD, READONLY, CODE
  1 .bss          00000200  00800100  00800100  00000ec4  2**0
                  ALLOC
  2 .debug_aranges 00000020  00000000  00000000  00000ec4  2**0
                  CONTENTS, READONLY, DEBUGGING
  3 .debug_pubnames 000000ea  00000000  00000000  00000ee4  2**0
                  CONTENTS, READONLY, DEBUGGING
  4 .debug_info   00000e17  00000000  00000000  00000fce  2**0
                  CONTENTS, READONLY, DEBUGGING
  5 .debug_abbrev 00000224  00000000  00000000  00001de5  2**0
                  CONTENTS, READONLY, DEBUGGING
  6 .debug_line   000008fd  00000000  00000000  00002009  2**0
                  CONTENTS, READONLY, DEBUGGING
  7 .debug_frame  000000a0  00000000  00000000  00002908  2**2
                  CONTENTS, READONLY, DEBUGGING
  8 .debug_str    0000019b  00000000  00000000  000029a8  2**0
                  CONTENTS, READONLY, DEBUGGING
  9 .debug_loc    00000568  00000000  00000000  00002b43  2**0
                  CONTENTS, READONLY, DEBUGGING
 10 .debug_ranges 00000258  00000000  00000000  000030ab  2**0
                  CONTENTS, READONLY, DEBUGGING

Disassembly of section .text:

00000000 <__vectors>:
   0:	0c 94 4f 04 	jmp	0x89e	; 0x89e <__ctors_end>
   4:	0c 94 6e 04 	jmp	0x8dc	; 0x8dc <__bad_interrupt>
   8:	0c 94 6e 04 	jmp	0x8dc	; 0x8dc <__bad_interrupt>
   c:	0c 94 6e 04 	jmp	0x8dc	; 0x8dc <__bad_interrupt>
  10:	0c 94 6e 04 	jmp	0x8dc	; 0x8dc <__bad_interrupt>
  14:	0c 94 6e 04 	jmp	0x8dc	; 0x8dc <__bad_interrupt>
  18:	0c 94 6e 04 	jmp	0x8dc	; 0x8dc <__bad_interrupt>
  1c:	0c 94 6e 04 	jmp	0x8dc	; 0x8dc <__bad_interrupt>
  20:	0c 94 6e 04 	jmp	0x8dc	; 0x8dc <__bad_interrupt>
  24:	0c 94 6e 04 	jmp	0x8dc	; 0x8dc <__bad_interrupt>
  28:	0c 94 6e 04 	jmp	0x8dc	; 0x8dc <__bad_interrupt>
  2c:	0c 94 6e 04 	jmp	0x8dc	; 0x8dc <__bad_interrupt>
  30:	0c 94 6e 04 	jmp	0x8dc	; 0x8dc <__bad_interrupt>
  34:	0c 94 6e 04 	jmp	0x8dc	; 0x8dc <__bad_interrupt>
  38:	0c 94 6e 04 	jmp	0x8dc	; 0x8dc <__bad_interrupt>
  3c:	0c 94 6e 04 	jmp	0x8dc	; 0x8dc <__bad_interrupt>
  40:	0c 94 6e 04 	jmp	0x8dc	; 0x8dc <__bad_interrupt>
  44:	0c 94 6e 04 	jmp	0x8dc	; 0x8dc <__bad_interrupt>
  48:	0c 94 6e 04 	jmp	0x8dc	; 0x8dc <__bad_interrupt>
  4c:	0c 94 6e 04 	jmp	0x8dc	; 0x8dc <__bad_interrupt>
  50:	0c 94 6e 04 	jmp	0x8dc	; 0x8dc <__bad_interrupt>
  54:	0c 94 6e 04 	jmp	0x8dc	; 0x8dc <__bad_interrupt>
  58:	0c 94 6e 04 	jmp	0x8dc	; 0x8dc <__bad_interrupt>
  5c:	0c 94 6e 04 	jmp	0x8dc	; 0x8dc <__bad_interrupt>
  60:	0c 94 6e 04 	jmp	0x8dc	; 0x8dc <__bad_interrupt>
  64:	0c 94 6e 04 	jmp	0x8dc	; 0x8dc <__bad_interrupt>
  68:	0c 94 6e 04 	jmp	0x8dc	; 0x8dc <__bad_interrupt>
  6c:	0c 94 6e 04 	jmp	0x8dc	; 0x8dc <__bad_interrupt>
  70:	0c 94 6e 04 	jmp	0x8dc	; 0x8dc <__bad_interrupt>
  74:	0c 94 6e 04 	jmp	0x8dc	; 0x8dc <__bad_interrupt>
  78:	0c 94 6e 04 	jmp	0x8dc	; 0x8dc <__bad_interrupt>
  7c:	0c 94 6e 04 	jmp	0x8dc	; 0x8dc <__bad_interrupt>
  80:	0c 94 6e 04 	jmp	0x8dc	; 0x8dc <__bad_interrupt>
  84:	0c 94 6e 04 	jmp	0x8dc	; 0x8dc <__bad_interrupt>
  88:	0c 94 6e 04 	jmp	0x8dc	; 0x8dc <__bad_interrupt>

0000008c <FlashConst>:
  8c:	03                                                  .

0000008d <photo1>:
  8d:	ff ff ff ff ff ff ff ff ff ff ff ff ff ff ff ff     ................
  9d:	80 00 00 00 00 00 00 00 00 00 00 00 00 00 00 01     ................
  ad:	80 00 00 00 00 00 00 00 00 00 00 00 00 00 00 01     ................
  bd:	80 00 00 00 00 00 00 00 00 00 00 00 00 00 00 01     ................
  cd:	80 00 00 00 00 00 00 00 00 00 00 00 00 00 00 01     ................
  dd:	80 00 00 00 00 00 00 00 00 00 00 00 00 00 00 01     ................
  ed:	80 00 00 00 00 00 00 00 00 00 00 00 00 00 00 01     ................
  fd:	80 00 00 00 00 00 00 00 00 00 00 00 00 00 00 01     ................
 10d:	80 00 00 00 00 00 00 00 00 04 00 00 00 00 38 01     ..............8.
 11d:	80 00 0c 00 00 00 00 00 00 0c 00 00 00 00 38 01     ..............8.
 12d:	80 00 0c 00 00 80 0c 10 01 1e 00 00 00 70 78 01     .............px.
 13d:	80 00 1d 00 01 80 1c 38 1f 9e 07 fe 00 70 68 01     .......8.....ph.
 14d:	80 00 1d 81 c7 f0 1e 78 1f be 07 ff 00 f0 dc 01     .......x........
 15d:	80 1f fc 01 e3 f0 1e 78 1c 3c 01 f8 03 f9 98 01     .......x.<......
 16d:	80 1f f8 01 e6 c0 3c f0 38 6c 03 b8 03 f1 b8 01     ......<.8l......
 17d:	80 1e 30 01 c6 80 3c f0 3f 68 1b 78 03 bb f0 01     ..0...<.?h.x....
 18d:	80 1c 30 01 85 80 78 e0 3f 78 1f f0 03 f3 b0 01     ..0...x.?x......
 19d:	80 3f f6 01 8d 80 79 e0 3c 78 0f c0 01 e1 90 01     .?....y.<x......
 1ad:	80 3c fb 0f dd 80 f1 e0 3c f0 0c c0 00 c3 80 01     .<......<.......
 1bd:	80 3c fb 07 39 40 f1 f0 3c e0 0c c0 01 e3 80 01     .<..9@..<.......
 1cd:	80 38 f2 00 69 61 f3 f0 3c a0 0c c0 03 66 80 01     .8..ia..<....f..
 1dd:	80 39 f2 00 52 39 b3 30 34 b0 08 80 06 06 80 01     .9..R9.04.......
 1ed:	80 10 76 00 10 03 9e 38 11 18 08 80 18 07 80 01     ..v....8........
 1fd:	80 00 7c 00 00 03 08 18 00 0c 08 c0 00 0d 00 01     ..|.............
 20d:	80 00 60 00 00 03 00 0c 00 00 00 40 00 0f 00 01     ..`........@....
 21d:	80 00 60 00 00 02 00 04 00 00 00 20 00 06 00 01     ..`........ ....
 22d:	80 00 00 00 00 00 00 00 00 00 00 00 00 00 00 01     ................
 23d:	80 00 00 00 00 00 00 00 00 00 00 00 00 00 00 01     ................
 24d:	80 00 00 00 00 00 00 00 00 00 00 00 00 00 00 01     ................
 25d:	80 00 00 00 00 00 00 00 00 00 00 00 00 00 00 01     ................
 26d:	80 00 00 00 00 00 00 00 00 00 00 00 00 00 00 01     ................
 27d:	80 00 00 00 00 00 00 00 00 00 00 00 00 00 00 01     ................
 28d:	80 00 00 00 00 00 00 00 00 00 00 00 00 00 00 01     ................

0000029d <photo2>:
 29d:	80 00 00 00 00 00 00 00 00 00 00 00 00 00 00 01     ................
 2ad:	80 00 00 00 00 00 00 00 00 00 00 00 00 00 00 01     ................
 2bd:	80 00 00 00 00 00 00 00 00 00 00 00 00 00 00 01     ................
 2cd:	80 00 00 00 00 00 00 00 00 00 00 00 00 00 00 01     ................
 2dd:	80 00 00 00 00 00 00 00 00 00 00 00 00 00 00 01     ................
 2ed:	80 00 00 00 00 00 00 00 00 00 00 00 00 00 00 01     ................
 2fd:	80 00 00 00 00 00 00 00 00 00 00 00 00 00 00 01     ................
 30d:	80 00 00 00 00 00 00 00 00 00 00 00 00 00 00 01     ................
 31d:	80 00 00 00 00 00 00 00 00 00 00 00 00 00 00 01     ................
 32d:	80 00 00 00 00 00 00 00 00 00 00 00 00 00 00 01     ................
 33d:	80 03 5e bd 60 0e 77 ec 78 f1 e0 07 8e 7c 00 01     ..^.`.w.x....|..
 34d:	80 01 52 a5 40 11 22 30 91 12 20 08 91 2a 00 01     ..R.@."0.. ..*..
 35d:	80 01 52 a5 40 07 14 20 91 02 00 08 11 2a 00 01     ..R.@.. .....*..
 36d:	80 01 52 a5 40 09 14 20 61 02 00 08 11 2a 00 01     ..R.@.. a....*..
 37d:	80 00 a1 42 8c 11 14 20 81 12 26 08 91 2a 00 01     ...B... ..&..*..
 38d:	80 00 a1 42 8c 0f 88 f8 f0 e1 c6 07 0e 6b 00 01     ...B.........k..
 39d:	80 00 00 00 00 00 00 00 88 00 00 00 00 00 00 01     ................
 3ad:	80 00 00 00 00 00 00 00 70 00 00 00 00 00 00 01     ........p.......
 3bd:	80 00 00 00 00 00 00 00 00 00 00 00 00 00 00 01     ................
 3cd:	80 00 00 00 00 00 00 00 00 00 00 00 00 00 00 01     ................
 3dd:	80 00 00 00 00 00 00 00 00 00 00 00 00 00 00 01     ................
 3ed:	80 00 00 00 00 00 00 00 00 00 00 00 00 00 00 01     ................
 3fd:	80 00 00 00 00 00 00 00 00 00 00 00 00 00 00 01     ................
 40d:	80 00 00 00 00 00 00 00 00 00 00 00 00 00 00 01     ................
 41d:	80 00 00 00 00 00 00 00 00 00 00 00 00 00 00 01     ................
 42d:	80 00 00 00 00 00 00 00 00 00 00 00 00 00 00 01     ................
 43d:	80 00 00 00 00 00 00 00 00 00 00 00 00 00 00 01     ................
 44d:	80 00 00 00 00 00 00 00 00 00 00 00 00 00 00 01     ................
 45d:	80 00 00 00 00 00 00 00 00 00 00 00 00 00 00 01     ................
 46d:	80 00 00 00 00 00 00 00 00 00 00 00 00 00 00 01     ................
 47d:	80 00 00 00 00 00 00 00 00 00 00 00 00 00 00 01     ................
 48d:	ff ff ff ff ff ff ff ff ff ff ff ff ff ff ff ff     ................

0000049d <photo3>:
	...
 4bd:	1f ff ff ff ff ff ff ff ff ff ff ff ff ff ff f8     ................
 4cd:	1f ff ff ff ff ff ff ff ff ff ff ff ff ff ff f8     ................
 4dd:	1f ff ff ff ff ff ff ff ff ff ff ff ff ff ff f8     ................
 4ed:	1c 00 00 00 00 00 00 00 00 00 00 00 00 00 00 38     ...............8
 4fd:	1c 00 00 00 00 00 00 00 00 00 00 00 00 00 00 38     ...............8
 50d:	1c 00 00 00 00 00 00 00 00 00 00 00 00 00 00 38     ...............8
 51d:	1c 00 00 00 00 00 00 00 00 00 00 00 00 00 00 38     ...............8
 52d:	1c 00 00 00 00 00 00 00 00 00 00 00 00 00 00 38     ...............8
 53d:	1c 00 00 00 00 00 00 00 00 00 00 00 00 00 00 38     ...............8
 54d:	1c 00 00 00 00 00 00 00 00 00 00 00 00 00 00 38     ...............8
 55d:	1c 00 00 00 00 00 00 00 00 00 00 00 00 00 00 38     ...............8
 56d:	1c 00 00 00 00 00 00 00 00 00 00 00 00 00 00 38     ...............8
 57d:	1c 00 00 00 00 00 00 00 00 00 00 00 00 00 00 38     ...............8
 58d:	1c 00 00 00 00 00 00 00 00 00 00 00 00 00 00 38     ...............8
 59d:	1c 00 00 00 00 00 00 00 00 00 00 00 00 00 00 38     ...............8
 5ad:	1c 00 06 00 00 00 00 00 00 00 18 00 00 00 00 38     ...............8
 5bd:	1c 00 06 00 00 0c 00 30 00 00 18 00 00 1f 80 38     .......0.......8
 5cd:	1c 00 76 00 00 c6 00 30 0c 00 18 00 07 f3 00 38     ..v....0.......8
 5dd:	1c 07 c6 00 0c c6 00 30 fc 00 18 00 00 06 00 38     .......0.......8
 5ed:	1c 07 06 00 0c cc 00 61 8c 03 1f e0 00 0c 00 38     .......a.......8
 5fd:	1c 06 0c 00 0c cc 00 cc 18 03 fc c0 00 38 00 38     .............8.8
 60d:	1c 06 0c e0 0c cc 00 cc 18 03 18 c0 00 30 00 38     .............0.8
 61d:	1c 06 7f e0 0c cc c1 f8 18 03 18 c0 00 18 f0 38     ...............8
 62d:	1c 07 de c0 0f ff e1 f3 f8 03 ff c0 03 ff 80 38     ...............8
 63d:	1c 06 db 00 7c cc 00 33 00 03 18 c0 1e 18 00 38     ....|..3.......8
 64d:	1c 06 f6 00 0c cc 00 63 00 03 18 c0 00 18 00 38     .......c.......8
 65d:	1c 06 f6 00 0c cc 00 ff 00 03 1b 80 00 18 00 38     ...............8
 66d:	1c 0c c6 00 0c fc 01 e3 00 03 fe 00 00 18 00 38     ...............8
 67d:	1c 0c cf 00 0c c0 00 03 03 03 18 00 00 18 00 38     ...............8
 68d:	1c 0c cf 00 0c c0 00 0f 03 00 18 30 00 18 00 38     ...........0...8

0000069d <photo4>:
 69d:	1c 18 d9 80 0c 00 00 7b 03 00 18 30 01 98 00 38     .......{...0...8
 6ad:	1c 18 d9 80 0c 00 03 c3 03 00 18 30 00 f8 00 38     ...........0...8
 6bd:	1c 30 f0 e0 0f ff c0 01 ff 80 0f f8 00 70 00 38     .0...........p.8
 6cd:	1c 60 e0 30 0c 00 00 00 00 00 00 00 00 30 00 38     .`.0.........0.8
 6dd:	1c 00 00 00 00 00 00 00 00 00 00 00 00 00 00 38     ...............8
 6ed:	1c 00 00 00 00 00 00 00 00 00 00 00 00 00 00 38     ...............8
 6fd:	1c 00 00 00 00 00 00 00 00 00 00 00 00 00 00 38     ...............8
 70d:	1c 00 00 00 00 00 00 00 00 00 00 00 00 00 00 38     ...............8
 71d:	1c 00 00 00 00 00 00 00 00 00 00 00 00 00 00 38     ...............8
 72d:	1c 00 00 00 00 00 00 00 00 00 00 00 00 00 00 38     ...............8
 73d:	1c 00 00 00 00 00 00 00 00 00 00 00 00 00 00 38     ...............8
 74d:	1c 00 00 00 00 00 00 00 00 00 00 00 00 00 00 38     ...............8
 75d:	1c 00 00 00 00 00 00 00 00 00 00 00 00 00 00 38     ...............8
 76d:	1c 00 00 00 00 00 00 00 00 00 00 00 00 00 00 38     ...............8
 77d:	1c 00 00 00 00 00 00 00 00 00 00 00 00 00 00 38     ...............8
 78d:	1c 00 00 00 00 00 00 00 00 00 00 00 00 00 00 38     ...............8
 79d:	1c 00 00 00 00 00 00 00 00 00 00 00 00 00 00 38     ...............8
 7ad:	1c 00 00 00 00 00 00 00 00 00 00 00 00 00 00 38     ...............8
 7bd:	1c 00 00 00 00 00 00 00 00 00 00 00 00 00 00 38     ...............8
 7cd:	1c 00 00 00 00 00 00 00 00 00 00 00 00 00 00 38     ...............8
 7dd:	1c 00 00 00 00 00 00 00 00 00 00 00 00 00 00 38     ...............8
 7ed:	1c 00 00 00 00 00 00 00 00 00 00 00 00 00 00 38     ...............8
 7fd:	1c 00 00 00 00 00 00 00 00 00 00 00 00 00 00 38     ...............8
 80d:	1c 00 00 00 00 00 00 00 00 00 00 00 00 00 00 38     ...............8
 81d:	1c 00 00 00 00 00 00 00 00 00 00 00 00 00 00 38     ...............8
 82d:	1f ff ff ff ff ff ff ff ff ff ff ff ff ff ff f8     ................
 83d:	1f ff ff ff ff ff ff ff ff ff ff ff ff ff ff f8     ................
 84d:	1f ff ff ff ff ff ff ff ff ff ff ff ff ff ff f8     ................
	...

0000089e <__ctors_end>:
 89e:	11 24       	eor	r1, r1
 8a0:	1f be       	out	0x3f, r1	; 63
 8a2:	cf ef       	ldi	r28, 0xFF	; 255
 8a4:	d0 e1       	ldi	r29, 0x10	; 16
 8a6:	de bf       	out	0x3e, r29	; 62
 8a8:	cd bf       	out	0x3d, r28	; 61

000008aa <__do_copy_data>:
 8aa:	11 e0       	ldi	r17, 0x01	; 1
 8ac:	a0 e0       	ldi	r26, 0x00	; 0
 8ae:	b1 e0       	ldi	r27, 0x01	; 1
 8b0:	e0 e5       	ldi	r30, 0x50	; 80
 8b2:	fe e0       	ldi	r31, 0x0E	; 14
 8b4:	00 e0       	ldi	r16, 0x00	; 0
 8b6:	0b bf       	out	0x3b, r16	; 59
 8b8:	02 c0       	rjmp	.+4      	; 0x8be <__do_copy_data+0x14>
 8ba:	07 90       	elpm	r0, Z+
 8bc:	0d 92       	st	X+, r0
 8be:	a0 30       	cpi	r26, 0x00	; 0
 8c0:	b1 07       	cpc	r27, r17
 8c2:	d9 f7       	brne	.-10     	; 0x8ba <__do_copy_data+0x10>

000008c4 <__do_clear_bss>:
 8c4:	13 e0       	ldi	r17, 0x03	; 3
 8c6:	a0 e0       	ldi	r26, 0x00	; 0
 8c8:	b1 e0       	ldi	r27, 0x01	; 1
 8ca:	01 c0       	rjmp	.+2      	; 0x8ce <.do_clear_bss_start>

000008cc <.do_clear_bss_loop>:
 8cc:	1d 92       	st	X+, r1

000008ce <.do_clear_bss_start>:
 8ce:	a0 30       	cpi	r26, 0x00	; 0
 8d0:	b1 07       	cpc	r27, r17
 8d2:	e1 f7       	brne	.-8      	; 0x8cc <.do_clear_bss_loop>
 8d4:	0e 94 90 06 	call	0xd20	; 0xd20 <main>
 8d8:	0c 94 26 07 	jmp	0xe4c	; 0xe4c <_exit>

000008dc <__bad_interrupt>:
 8dc:	0c 94 00 00 	jmp	0	; 0x0 <__vectors>

000008e0 <system_init>:
//			初始化子程序
//*************************************************************************
void system_init()
{

	Data_IO = 0xFF;				        //电平设置
 8e0:	8f ef       	ldi	r24, 0xFF	; 255
 8e2:	8b bb       	out	0x1b, r24	; 27
	Data_DDR = 0xFF;				    //方向输出
 8e4:	8a bb       	out	0x1a, r24	; 26
	PORTF = 0xFF;                       //电平设置
 8e6:	80 93 62 00 	sts	0x0062, r24
	DDRF = 0xFF;                        //方向输出
 8ea:	80 93 61 00 	sts	0x0061, r24
    PORTD=0xFF;
 8ee:	82 bb       	out	0x12, r24	; 18
	DDRD=0xFF;
 8f0:	81 bb       	out	0x11, r24	; 17
	D_LE1;                             //关掉数码管，以免显示乱码                   
 8f2:	94 9a       	sbi	0x12, 4	; 18
    W_LE1;                     
 8f4:	95 9a       	sbi	0x12, 5	; 18
    Data_IO=0xFF;                      //关数码管            
 8f6:	8b bb       	out	0x1b, r24	; 27
    W_LE0; 
 8f8:	95 98       	cbi	0x12, 5	; 18
}
 8fa:	08 95       	ret

000008fc <LCD_write_com>:
//***********************************************************************


void LCD_write_com(unsigned char com) 
{	
	RS_CLR;
 8fc:	e2 e6       	ldi	r30, 0x62	; 98
 8fe:	f0 e0       	ldi	r31, 0x00	; 0
 900:	90 81       	ld	r25, Z
 902:	9d 7f       	andi	r25, 0xFD	; 253
 904:	90 83       	st	Z, r25
	RW_CLR;
 906:	90 81       	ld	r25, Z
 908:	9b 7f       	andi	r25, 0xFB	; 251
 90a:	90 83       	st	Z, r25
	EN_SET;
 90c:	90 81       	ld	r25, Z
 90e:	98 60       	ori	r25, 0x08	; 8
 910:	90 83       	st	Z, r25
	Data_IO = com;
 912:	8b bb       	out	0x1b, r24	; 27
    milliseconds can be achieved.
 */
void
_delay_loop_2(uint16_t __count)
{
	__asm__ volatile (
 914:	80 e0       	ldi	r24, 0x00	; 0
 916:	94 e2       	ldi	r25, 0x24	; 36
 918:	01 97       	sbiw	r24, 0x01	; 1
 91a:	f1 f7       	brne	.-4      	; 0x918 <LCD_write_com+0x1c>
	delay_ms(5);
	EN_CLR;
 91c:	80 81       	ld	r24, Z
 91e:	87 7f       	andi	r24, 0xF7	; 247
 920:	80 83       	st	Z, r24
}
 922:	08 95       	ret

00000924 <LCD_write_data>:
//	显示屏数据写入函数
//***********************************************************************

void LCD_write_data(unsigned char data) 
{
	RS_SET;
 924:	e2 e6       	ldi	r30, 0x62	; 98
 926:	f0 e0       	ldi	r31, 0x00	; 0
 928:	90 81       	ld	r25, Z
 92a:	92 60       	ori	r25, 0x02	; 2
 92c:	90 83       	st	Z, r25
	RW_CLR;
 92e:	90 81       	ld	r25, Z
 930:	9b 7f       	andi	r25, 0xFB	; 251
 932:	90 83       	st	Z, r25
	EN_SET;
 934:	90 81       	ld	r25, Z
 936:	98 60       	ori	r25, 0x08	; 8
 938:	90 83       	st	Z, r25
	Data_IO = data;
 93a:	8b bb       	out	0x1b, r24	; 27
 93c:	80 e0       	ldi	r24, 0x00	; 0
 93e:	94 e2       	ldi	r25, 0x24	; 36
 940:	01 97       	sbiw	r24, 0x01	; 1
 942:	f1 f7       	brne	.-4      	; 0x940 <LCD_write_data+0x1c>
	delay_ms(5);
	EN_CLR;
 944:	80 81       	ld	r24, Z
 946:	87 7f       	andi	r24, 0xF7	; 247
 948:	80 83       	st	Z, r24
}
 94a:	08 95       	ret

0000094c <LCD_clear>:
//***********************************************************************


void LCD_write_com(unsigned char com) 
{	
	RS_CLR;
 94c:	e2 e6       	ldi	r30, 0x62	; 98
 94e:	f0 e0       	ldi	r31, 0x00	; 0
 950:	80 81       	ld	r24, Z
 952:	8d 7f       	andi	r24, 0xFD	; 253
 954:	80 83       	st	Z, r24
	RW_CLR;
 956:	80 81       	ld	r24, Z
 958:	8b 7f       	andi	r24, 0xFB	; 251
 95a:	80 83       	st	Z, r24
	EN_SET;
 95c:	80 81       	ld	r24, Z
 95e:	88 60       	ori	r24, 0x08	; 8
 960:	80 83       	st	Z, r24
	Data_IO = com;
 962:	81 e0       	ldi	r24, 0x01	; 1
 964:	8b bb       	out	0x1b, r24	; 27
 966:	20 e0       	ldi	r18, 0x00	; 0
 968:	34 e2       	ldi	r19, 0x24	; 36
 96a:	c9 01       	movw	r24, r18
 96c:	01 97       	sbiw	r24, 0x01	; 1
 96e:	f1 f7       	brne	.-4      	; 0x96c <LCD_clear+0x20>
	delay_ms(5);
	EN_CLR;
 970:	80 81       	ld	r24, Z
 972:	87 7f       	andi	r24, 0xF7	; 247
 974:	80 83       	st	Z, r24
 976:	c9 01       	movw	r24, r18
 978:	01 97       	sbiw	r24, 0x01	; 1
 97a:	f1 f7       	brne	.-4      	; 0x978 <LCD_clear+0x2c>

void LCD_clear(void) 
{
	LCD_write_com(0x01);
	delay_ms(5);
}
 97c:	08 95       	ret

0000097e <DisplayCgrom>:
//入口参数：无
//返回参数：无
//***********************************************************************

void DisplayCgrom(uchar addr,uchar *hz)
{
 97e:	fb 01       	movw	r30, r22
//***********************************************************************


void LCD_write_com(unsigned char com) 
{	
	RS_CLR;
 980:	90 91 62 00 	lds	r25, 0x0062
 984:	9d 7f       	andi	r25, 0xFD	; 253
 986:	90 93 62 00 	sts	0x0062, r25
	RW_CLR;
 98a:	90 91 62 00 	lds	r25, 0x0062
 98e:	9b 7f       	andi	r25, 0xFB	; 251
 990:	90 93 62 00 	sts	0x0062, r25
	EN_SET;
 994:	90 91 62 00 	lds	r25, 0x0062
 998:	98 60       	ori	r25, 0x08	; 8
 99a:	90 93 62 00 	sts	0x0062, r25
	Data_IO = com;
 99e:	8b bb       	out	0x1b, r24	; 27
 9a0:	20 e0       	ldi	r18, 0x00	; 0
 9a2:	34 e2       	ldi	r19, 0x24	; 36
 9a4:	c9 01       	movw	r24, r18
 9a6:	01 97       	sbiw	r24, 0x01	; 1
 9a8:	f1 f7       	brne	.-4      	; 0x9a6 <DisplayCgrom+0x28>
	delay_ms(5);
	EN_CLR;
 9aa:	80 91 62 00 	lds	r24, 0x0062
 9ae:	87 7f       	andi	r24, 0xF7	; 247
 9b0:	80 93 62 00 	sts	0x0062, r24
 9b4:	19 c0       	rjmp	.+50     	; 0x9e8 <DisplayCgrom+0x6a>
//	显示屏数据写入函数
//***********************************************************************

void LCD_write_data(unsigned char data) 
{
	RS_SET;
 9b6:	80 91 62 00 	lds	r24, 0x0062
 9ba:	82 60       	ori	r24, 0x02	; 2
 9bc:	80 93 62 00 	sts	0x0062, r24
	RW_CLR;
 9c0:	80 91 62 00 	lds	r24, 0x0062
 9c4:	8b 7f       	andi	r24, 0xFB	; 251
 9c6:	80 93 62 00 	sts	0x0062, r24
	EN_SET;
 9ca:	80 91 62 00 	lds	r24, 0x0062
 9ce:	88 60       	ori	r24, 0x08	; 8
 9d0:	80 93 62 00 	sts	0x0062, r24
	Data_IO = data;
 9d4:	9b bb       	out	0x1b, r25	; 27
 9d6:	c9 01       	movw	r24, r18
 9d8:	01 97       	sbiw	r24, 0x01	; 1
 9da:	f1 f7       	brne	.-4      	; 0x9d8 <DisplayCgrom+0x5a>
	delay_ms(5);
	EN_CLR;
 9dc:	80 91 62 00 	lds	r24, 0x0062
 9e0:	87 7f       	andi	r24, 0xF7	; 247
 9e2:	80 93 62 00 	sts	0x0062, r24
	LCD_write_com(addr);
    delay_ms(5);
	while(*hz != '\0')
	{
		LCD_write_data(*hz);
		hz++;
 9e6:	31 96       	adiw	r30, 0x01	; 1
 9e8:	c9 01       	movw	r24, r18
 9ea:	01 97       	sbiw	r24, 0x01	; 1
 9ec:	f1 f7       	brne	.-4      	; 0x9ea <DisplayCgrom+0x6c>
void DisplayCgrom(uchar addr,uchar *hz)
{

	LCD_write_com(addr);
    delay_ms(5);
	while(*hz != '\0')
 9ee:	90 81       	ld	r25, Z
 9f0:	99 23       	and	r25, r25
 9f2:	09 f7       	brne	.-62     	; 0x9b6 <DisplayCgrom+0x38>
		LCD_write_data(*hz);
		hz++;
        delay_ms(5);
	}

} 
 9f4:	08 95       	ret

000009f6 <LCD_init>:
//***********************************************************************


void LCD_write_com(unsigned char com) 
{	
	RS_CLR;
 9f6:	e2 e6       	ldi	r30, 0x62	; 98
 9f8:	f0 e0       	ldi	r31, 0x00	; 0
 9fa:	80 81       	ld	r24, Z
 9fc:	8d 7f       	andi	r24, 0xFD	; 253
 9fe:	80 83       	st	Z, r24
	RW_CLR;
 a00:	80 81       	ld	r24, Z
 a02:	8b 7f       	andi	r24, 0xFB	; 251
 a04:	80 83       	st	Z, r24
	EN_SET;
 a06:	80 81       	ld	r24, Z
 a08:	88 60       	ori	r24, 0x08	; 8
 a0a:	80 83       	st	Z, r24
	Data_IO = com;
 a0c:	90 e3       	ldi	r25, 0x30	; 48
 a0e:	9b bb       	out	0x1b, r25	; 27
 a10:	40 e0       	ldi	r20, 0x00	; 0
 a12:	54 e2       	ldi	r21, 0x24	; 36
 a14:	da 01       	movw	r26, r20
 a16:	11 97       	sbiw	r26, 0x01	; 1
 a18:	f1 f7       	brne	.-4      	; 0xa16 <LCD_init+0x20>
	delay_ms(5);
	EN_CLR;
 a1a:	80 81       	ld	r24, Z
 a1c:	87 7f       	andi	r24, 0xF7	; 247
 a1e:	80 83       	st	Z, r24
 a20:	23 e3       	ldi	r18, 0x33	; 51
 a22:	37 e0       	ldi	r19, 0x07	; 7
 a24:	d9 01       	movw	r26, r18
 a26:	11 97       	sbiw	r26, 0x01	; 1
 a28:	f1 f7       	brne	.-4      	; 0xa26 <LCD_init+0x30>
//***********************************************************************


void LCD_write_com(unsigned char com) 
{	
	RS_CLR;
 a2a:	80 81       	ld	r24, Z
 a2c:	8d 7f       	andi	r24, 0xFD	; 253
 a2e:	80 83       	st	Z, r24
	RW_CLR;
 a30:	80 81       	ld	r24, Z
 a32:	8b 7f       	andi	r24, 0xFB	; 251
 a34:	80 83       	st	Z, r24
	EN_SET;
 a36:	80 81       	ld	r24, Z
 a38:	88 60       	ori	r24, 0x08	; 8
 a3a:	80 83       	st	Z, r24
	Data_IO = com;
 a3c:	9b bb       	out	0x1b, r25	; 27
 a3e:	ca 01       	movw	r24, r20
 a40:	01 97       	sbiw	r24, 0x01	; 1
 a42:	f1 f7       	brne	.-4      	; 0xa40 <LCD_init+0x4a>
	delay_ms(5);
	EN_CLR;
 a44:	80 81       	ld	r24, Z
 a46:	87 7f       	andi	r24, 0xF7	; 247
 a48:	80 83       	st	Z, r24
 a4a:	c9 01       	movw	r24, r18
 a4c:	01 97       	sbiw	r24, 0x01	; 1
 a4e:	f1 f7       	brne	.-4      	; 0xa4c <LCD_init+0x56>
//***********************************************************************


void LCD_write_com(unsigned char com) 
{	
	RS_CLR;
 a50:	80 81       	ld	r24, Z
 a52:	8d 7f       	andi	r24, 0xFD	; 253
 a54:	80 83       	st	Z, r24
	RW_CLR;
 a56:	80 81       	ld	r24, Z
 a58:	8b 7f       	andi	r24, 0xFB	; 251
 a5a:	80 83       	st	Z, r24
	EN_SET;
 a5c:	80 81       	ld	r24, Z
 a5e:	88 60       	ori	r24, 0x08	; 8
 a60:	80 83       	st	Z, r24
	Data_IO = com;
 a62:	8c e0       	ldi	r24, 0x0C	; 12
 a64:	8b bb       	out	0x1b, r24	; 27
 a66:	ca 01       	movw	r24, r20
 a68:	01 97       	sbiw	r24, 0x01	; 1
 a6a:	f1 f7       	brne	.-4      	; 0xa68 <LCD_init+0x72>
	delay_ms(5);
	EN_CLR;
 a6c:	80 81       	ld	r24, Z
 a6e:	87 7f       	andi	r24, 0xF7	; 247
 a70:	80 83       	st	Z, r24
 a72:	c9 01       	movw	r24, r18
 a74:	01 97       	sbiw	r24, 0x01	; 1
 a76:	f1 f7       	brne	.-4      	; 0xa74 <LCD_init+0x7e>
//***********************************************************************


void LCD_write_com(unsigned char com) 
{	
	RS_CLR;
 a78:	80 81       	ld	r24, Z
 a7a:	8d 7f       	andi	r24, 0xFD	; 253
 a7c:	80 83       	st	Z, r24
	RW_CLR;
 a7e:	80 81       	ld	r24, Z
 a80:	8b 7f       	andi	r24, 0xFB	; 251
 a82:	80 83       	st	Z, r24
	EN_SET;
 a84:	80 81       	ld	r24, Z
 a86:	88 60       	ori	r24, 0x08	; 8
 a88:	80 83       	st	Z, r24
	Data_IO = com;
 a8a:	81 e0       	ldi	r24, 0x01	; 1
 a8c:	8b bb       	out	0x1b, r24	; 27
 a8e:	ca 01       	movw	r24, r20
 a90:	01 97       	sbiw	r24, 0x01	; 1
 a92:	f1 f7       	brne	.-4      	; 0xa90 <LCD_init+0x9a>
	delay_ms(5);
	EN_CLR;
 a94:	80 81       	ld	r24, Z
 a96:	87 7f       	andi	r24, 0xF7	; 247
 a98:	80 83       	st	Z, r24
 a9a:	c9 01       	movw	r24, r18
 a9c:	01 97       	sbiw	r24, 0x01	; 1
 a9e:	f1 f7       	brne	.-4      	; 0xa9c <LCD_init+0xa6>
	delay_ms(1);
    LCD_write_com(DISPLAY_ON);			//显示开
	delay_ms(1);
    LCD_write_com(CLEAR_SCREEN);        //清屏
	delay_ms(1);
}
 aa0:	08 95       	ret

00000aa2 <Display_photo1>:
//****************************************************************
//函数名称：Display_photo(uchar *hz)显示自定义图形，分上下半屏来写
//****************************************************************

void Display_photo1(uchar *img1)                      //写上半屏图形数据函数
{
 aa2:	ff 92       	push	r15
 aa4:	0f 93       	push	r16
 aa6:	1f 93       	push	r17
 aa8:	cf 93       	push	r28
 aaa:	df 93       	push	r29
 aac:	ac 01       	movw	r20, r24
 aae:	a0 e8       	ldi	r26, 0x80	; 128
void LCD_write_com(unsigned char com) 
{	
	RS_CLR;
	RW_CLR;
	EN_SET;
	Data_IO = com;
 ab0:	86 e3       	ldi	r24, 0x36	; 54
 ab2:	f8 2e       	mov	r15, r24
 ab4:	60 e0       	ldi	r22, 0x00	; 0
 ab6:	74 e2       	ldi	r23, 0x24	; 36
 ab8:	c3 e3       	ldi	r28, 0x33	; 51
 aba:	d7 e0       	ldi	r29, 0x07	; 7
 abc:	b0 e8       	ldi	r27, 0x80	; 128
 abe:	06 e6       	ldi	r16, 0x66	; 102
 ac0:	1e e0       	ldi	r17, 0x0E	; 14
//***********************************************************************


void LCD_write_com(unsigned char com) 
{	
	RS_CLR;
 ac2:	80 91 62 00 	lds	r24, 0x0062
 ac6:	8d 7f       	andi	r24, 0xFD	; 253
 ac8:	80 93 62 00 	sts	0x0062, r24
	RW_CLR;
 acc:	80 91 62 00 	lds	r24, 0x0062
 ad0:	8b 7f       	andi	r24, 0xFB	; 251
 ad2:	80 93 62 00 	sts	0x0062, r24
	EN_SET;
 ad6:	80 91 62 00 	lds	r24, 0x0062
 ada:	88 60       	ori	r24, 0x08	; 8
 adc:	80 93 62 00 	sts	0x0062, r24
	Data_IO = com;
 ae0:	fb ba       	out	0x1b, r15	; 27
 ae2:	cb 01       	movw	r24, r22
 ae4:	01 97       	sbiw	r24, 0x01	; 1
 ae6:	f1 f7       	brne	.-4      	; 0xae4 <Display_photo1+0x42>
	delay_ms(5);
	EN_CLR;
 ae8:	80 91 62 00 	lds	r24, 0x0062
 aec:	87 7f       	andi	r24, 0xF7	; 247
 aee:	80 93 62 00 	sts	0x0062, r24
 af2:	ce 01       	movw	r24, r28
 af4:	01 97       	sbiw	r24, 0x01	; 1
 af6:	f1 f7       	brne	.-4      	; 0xaf4 <Display_photo1+0x52>
//***********************************************************************


void LCD_write_com(unsigned char com) 
{	
	RS_CLR;
 af8:	80 91 62 00 	lds	r24, 0x0062
 afc:	8d 7f       	andi	r24, 0xFD	; 253
 afe:	80 93 62 00 	sts	0x0062, r24
	RW_CLR;
 b02:	80 91 62 00 	lds	r24, 0x0062
 b06:	8b 7f       	andi	r24, 0xFB	; 251
 b08:	80 93 62 00 	sts	0x0062, r24
	EN_SET;
 b0c:	80 91 62 00 	lds	r24, 0x0062
 b10:	88 60       	ori	r24, 0x08	; 8
 b12:	80 93 62 00 	sts	0x0062, r24
	Data_IO = com;
 b16:	ab bb       	out	0x1b, r26	; 27
 b18:	cb 01       	movw	r24, r22
 b1a:	01 97       	sbiw	r24, 0x01	; 1
 b1c:	f1 f7       	brne	.-4      	; 0xb1a <Display_photo1+0x78>
	delay_ms(5);
	EN_CLR;
 b1e:	80 91 62 00 	lds	r24, 0x0062
 b22:	87 7f       	andi	r24, 0xF7	; 247
 b24:	80 93 62 00 	sts	0x0062, r24
 b28:	ce 01       	movw	r24, r28
 b2a:	01 97       	sbiw	r24, 0x01	; 1
 b2c:	f1 f7       	brne	.-4      	; 0xb2a <Display_photo1+0x88>
//***********************************************************************


void LCD_write_com(unsigned char com) 
{	
	RS_CLR;
 b2e:	80 91 62 00 	lds	r24, 0x0062
 b32:	8d 7f       	andi	r24, 0xFD	; 253
 b34:	80 93 62 00 	sts	0x0062, r24
	RW_CLR;
 b38:	80 91 62 00 	lds	r24, 0x0062
 b3c:	8b 7f       	andi	r24, 0xFB	; 251
 b3e:	80 93 62 00 	sts	0x0062, r24
	EN_SET;
 b42:	80 91 62 00 	lds	r24, 0x0062
 b46:	88 60       	ori	r24, 0x08	; 8
 b48:	80 93 62 00 	sts	0x0062, r24
	Data_IO = com;
 b4c:	bb bb       	out	0x1b, r27	; 27
 b4e:	cb 01       	movw	r24, r22
 b50:	01 97       	sbiw	r24, 0x01	; 1
 b52:	f1 f7       	brne	.-4      	; 0xb50 <Display_photo1+0xae>
	delay_ms(5);
	EN_CLR;
 b54:	80 91 62 00 	lds	r24, 0x0062
 b58:	87 7f       	andi	r24, 0xF7	; 247
 b5a:	80 93 62 00 	sts	0x0062, r24
 b5e:	ce 01       	movw	r24, r28
 b60:	01 97       	sbiw	r24, 0x01	; 1
 b62:	f1 f7       	brne	.-4      	; 0xb60 <Display_photo1+0xbe>
 b64:	fa 01       	movw	r30, r20
 b66:	20 e0       	ldi	r18, 0x00	; 0
 b68:	30 e0       	ldi	r19, 0x00	; 0
        LCD_write_com(X1address);                    //再写水平地址，即X地址
        delay_ms(1);
      
 	for(j=0;j<8;j++)                       //连续写入2个字节的数据，一共8次，为一行，即16*8位数据
        {  			                                     
		LCD_write_data(img1[i*16+j*2]);
 b6a:	90 81       	ld	r25, Z
//	显示屏数据写入函数
//***********************************************************************

void LCD_write_data(unsigned char data) 
{
	RS_SET;
 b6c:	80 91 62 00 	lds	r24, 0x0062
 b70:	82 60       	ori	r24, 0x02	; 2
 b72:	80 93 62 00 	sts	0x0062, r24
	RW_CLR;
 b76:	80 91 62 00 	lds	r24, 0x0062
 b7a:	8b 7f       	andi	r24, 0xFB	; 251
 b7c:	80 93 62 00 	sts	0x0062, r24
	EN_SET;
 b80:	80 91 62 00 	lds	r24, 0x0062
 b84:	88 60       	ori	r24, 0x08	; 8
 b86:	80 93 62 00 	sts	0x0062, r24
	Data_IO = data;
 b8a:	9b bb       	out	0x1b, r25	; 27
 b8c:	cb 01       	movw	r24, r22
 b8e:	01 97       	sbiw	r24, 0x01	; 1
 b90:	f1 f7       	brne	.-4      	; 0xb8e <Display_photo1+0xec>
	delay_ms(5);
	EN_CLR;
 b92:	80 91 62 00 	lds	r24, 0x0062
 b96:	87 7f       	andi	r24, 0xF7	; 247
 b98:	80 93 62 00 	sts	0x0062, r24
 b9c:	c8 01       	movw	r24, r16
 b9e:	01 97       	sbiw	r24, 0x01	; 1
 ba0:	f1 f7       	brne	.-4      	; 0xb9e <Display_photo1+0xfc>
      
 	for(j=0;j<8;j++)                       //连续写入2个字节的数据，一共8次，为一行，即16*8位数据
        {  			                                     
		LCD_write_data(img1[i*16+j*2]);
		delay_ms(2);                       //这个延时是必须的，因为没有对液晶进行判忙操作，所以进行延时
		LCD_write_data(img1[i*16+j*2+1]); 
 ba2:	91 81       	ldd	r25, Z+1	; 0x01
//	显示屏数据写入函数
//***********************************************************************

void LCD_write_data(unsigned char data) 
{
	RS_SET;
 ba4:	80 91 62 00 	lds	r24, 0x0062
 ba8:	82 60       	ori	r24, 0x02	; 2
 baa:	80 93 62 00 	sts	0x0062, r24
	RW_CLR;
 bae:	80 91 62 00 	lds	r24, 0x0062
 bb2:	8b 7f       	andi	r24, 0xFB	; 251
 bb4:	80 93 62 00 	sts	0x0062, r24
	EN_SET;
 bb8:	80 91 62 00 	lds	r24, 0x0062
 bbc:	88 60       	ori	r24, 0x08	; 8
 bbe:	80 93 62 00 	sts	0x0062, r24
	Data_IO = data;
 bc2:	9b bb       	out	0x1b, r25	; 27
 bc4:	cb 01       	movw	r24, r22
 bc6:	01 97       	sbiw	r24, 0x01	; 1
 bc8:	f1 f7       	brne	.-4      	; 0xbc6 <Display_photo1+0x124>
	delay_ms(5);
	EN_CLR;
 bca:	80 91 62 00 	lds	r24, 0x0062
 bce:	87 7f       	andi	r24, 0xF7	; 247
 bd0:	80 93 62 00 	sts	0x0062, r24
 bd4:	c8 01       	movw	r24, r16
 bd6:	01 97       	sbiw	r24, 0x01	; 1
 bd8:	f1 f7       	brne	.-4      	; 0xbd6 <Display_photo1+0x134>
        delay_ms(1);

        LCD_write_com(X1address);                    //再写水平地址，即X地址
        delay_ms(1);
      
 	for(j=0;j<8;j++)                       //连续写入2个字节的数据，一共8次，为一行，即16*8位数据
 bda:	2f 5f       	subi	r18, 0xFF	; 255
 bdc:	3f 4f       	sbci	r19, 0xFF	; 255
 bde:	32 96       	adiw	r30, 0x02	; 2
 be0:	28 30       	cpi	r18, 0x08	; 8
 be2:	31 05       	cpc	r19, r1
 be4:	09 f0       	breq	.+2      	; 0xbe8 <Display_photo1+0x146>
 be6:	c1 cf       	rjmp	.-126    	; 0xb6a <Display_photo1+0xc8>
 be8:	af 5f       	subi	r26, 0xFF	; 255
 bea:	40 5f       	subi	r20, 0xF0	; 240
 bec:	5f 4f       	sbci	r21, 0xFF	; 255

void Display_photo1(uchar *img1)                      //写上半屏图形数据函数
{
   int i,j;     

   for(i=0;i<32;i++)                                 //上半屏32行
 bee:	a0 3a       	cpi	r26, 0xA0	; 160
 bf0:	09 f0       	breq	.+2      	; 0xbf4 <Display_photo1+0x152>
 bf2:	67 cf       	rjmp	.-306    	; 0xac2 <Display_photo1+0x20>
		LCD_write_data(img1[i*16+j*2+1]); 
		delay_ms(2);          
        }

    }
}
 bf4:	df 91       	pop	r29
 bf6:	cf 91       	pop	r28
 bf8:	1f 91       	pop	r17
 bfa:	0f 91       	pop	r16
 bfc:	ff 90       	pop	r15
 bfe:	08 95       	ret

00000c00 <Display_photo2>:

void Display_photo2(uchar *img2)                   //写下半屏图形数据
{
 c00:	0f 93       	push	r16
 c02:	1f 93       	push	r17
 c04:	cf 93       	push	r28
 c06:	df 93       	push	r29
 c08:	ac 01       	movw	r20, r24
 c0a:	a0 e8       	ldi	r26, 0x80	; 128
 c0c:	60 e0       	ldi	r22, 0x00	; 0
 c0e:	74 e2       	ldi	r23, 0x24	; 36
void LCD_write_com(unsigned char com) 
{	
	RS_CLR;
	RW_CLR;
	EN_SET;
	Data_IO = com;
 c10:	03 e3       	ldi	r16, 0x33	; 51
 c12:	17 e0       	ldi	r17, 0x07	; 7
 c14:	b8 e8       	ldi	r27, 0x88	; 136
 c16:	c6 e6       	ldi	r28, 0x66	; 102
 c18:	de e0       	ldi	r29, 0x0E	; 14
//***********************************************************************


void LCD_write_com(unsigned char com) 
{	
	RS_CLR;
 c1a:	80 91 62 00 	lds	r24, 0x0062
 c1e:	8d 7f       	andi	r24, 0xFD	; 253
 c20:	80 93 62 00 	sts	0x0062, r24
	RW_CLR;
 c24:	80 91 62 00 	lds	r24, 0x0062
 c28:	8b 7f       	andi	r24, 0xFB	; 251
 c2a:	80 93 62 00 	sts	0x0062, r24
	EN_SET;
 c2e:	80 91 62 00 	lds	r24, 0x0062
 c32:	88 60       	ori	r24, 0x08	; 8
 c34:	80 93 62 00 	sts	0x0062, r24
	Data_IO = com;
 c38:	ab bb       	out	0x1b, r26	; 27
 c3a:	cb 01       	movw	r24, r22
 c3c:	01 97       	sbiw	r24, 0x01	; 1
 c3e:	f1 f7       	brne	.-4      	; 0xc3c <Display_photo2+0x3c>
	delay_ms(5);
	EN_CLR;
 c40:	80 91 62 00 	lds	r24, 0x0062
 c44:	87 7f       	andi	r24, 0xF7	; 247
 c46:	80 93 62 00 	sts	0x0062, r24
 c4a:	c8 01       	movw	r24, r16
 c4c:	01 97       	sbiw	r24, 0x01	; 1
 c4e:	f1 f7       	brne	.-4      	; 0xc4c <Display_photo2+0x4c>
//***********************************************************************


void LCD_write_com(unsigned char com) 
{	
	RS_CLR;
 c50:	80 91 62 00 	lds	r24, 0x0062
 c54:	8d 7f       	andi	r24, 0xFD	; 253
 c56:	80 93 62 00 	sts	0x0062, r24
	RW_CLR;
 c5a:	80 91 62 00 	lds	r24, 0x0062
 c5e:	8b 7f       	andi	r24, 0xFB	; 251
 c60:	80 93 62 00 	sts	0x0062, r24
	EN_SET;
 c64:	80 91 62 00 	lds	r24, 0x0062
 c68:	88 60       	ori	r24, 0x08	; 8
 c6a:	80 93 62 00 	sts	0x0062, r24
	Data_IO = com;
 c6e:	bb bb       	out	0x1b, r27	; 27
 c70:	cb 01       	movw	r24, r22
 c72:	01 97       	sbiw	r24, 0x01	; 1
 c74:	f1 f7       	brne	.-4      	; 0xc72 <Display_photo2+0x72>
	delay_ms(5);
	EN_CLR;
 c76:	80 91 62 00 	lds	r24, 0x0062
 c7a:	87 7f       	andi	r24, 0xF7	; 247
 c7c:	80 93 62 00 	sts	0x0062, r24
 c80:	c8 01       	movw	r24, r16
 c82:	01 97       	sbiw	r24, 0x01	; 1
 c84:	f1 f7       	brne	.-4      	; 0xc82 <Display_photo2+0x82>
 c86:	fa 01       	movw	r30, r20
 c88:	20 e0       	ldi	r18, 0x00	; 0
 c8a:	30 e0       	ldi	r19, 0x00	; 0
		LCD_write_com(X2address);                 //再写水平地址，即X地址
	    delay_ms(1);
	 	 for(j=0;j<8;j++)                        //连续写入2个字节的数据，一共8次，为一行，即16*8位数据
	    {
			
			LCD_write_data(img2[i*16+j*2]);
 c8c:	90 81       	ld	r25, Z
//	显示屏数据写入函数
//***********************************************************************

void LCD_write_data(unsigned char data) 
{
	RS_SET;
 c8e:	80 91 62 00 	lds	r24, 0x0062
 c92:	82 60       	ori	r24, 0x02	; 2
 c94:	80 93 62 00 	sts	0x0062, r24
	RW_CLR;
 c98:	80 91 62 00 	lds	r24, 0x0062
 c9c:	8b 7f       	andi	r24, 0xFB	; 251
 c9e:	80 93 62 00 	sts	0x0062, r24
	EN_SET;
 ca2:	80 91 62 00 	lds	r24, 0x0062
 ca6:	88 60       	ori	r24, 0x08	; 8
 ca8:	80 93 62 00 	sts	0x0062, r24
	Data_IO = data;
 cac:	9b bb       	out	0x1b, r25	; 27
 cae:	cb 01       	movw	r24, r22
 cb0:	01 97       	sbiw	r24, 0x01	; 1
 cb2:	f1 f7       	brne	.-4      	; 0xcb0 <Display_photo2+0xb0>
	delay_ms(5);
	EN_CLR;
 cb4:	80 91 62 00 	lds	r24, 0x0062
 cb8:	87 7f       	andi	r24, 0xF7	; 247
 cba:	80 93 62 00 	sts	0x0062, r24
 cbe:	ce 01       	movw	r24, r28
 cc0:	01 97       	sbiw	r24, 0x01	; 1
 cc2:	f1 f7       	brne	.-4      	; 0xcc0 <Display_photo2+0xc0>
	 	 for(j=0;j<8;j++)                        //连续写入2个字节的数据，一共8次，为一行，即16*8位数据
	    {
			
			LCD_write_data(img2[i*16+j*2]);
			delay_ms(2);                    
			LCD_write_data(img2[i*16+j*2+1]);  
 cc4:	91 81       	ldd	r25, Z+1	; 0x01
//	显示屏数据写入函数
//***********************************************************************

void LCD_write_data(unsigned char data) 
{
	RS_SET;
 cc6:	80 91 62 00 	lds	r24, 0x0062
 cca:	82 60       	ori	r24, 0x02	; 2
 ccc:	80 93 62 00 	sts	0x0062, r24
	RW_CLR;
 cd0:	80 91 62 00 	lds	r24, 0x0062
 cd4:	8b 7f       	andi	r24, 0xFB	; 251
 cd6:	80 93 62 00 	sts	0x0062, r24
	EN_SET;
 cda:	80 91 62 00 	lds	r24, 0x0062
 cde:	88 60       	ori	r24, 0x08	; 8
 ce0:	80 93 62 00 	sts	0x0062, r24
	Data_IO = data;
 ce4:	9b bb       	out	0x1b, r25	; 27
 ce6:	cb 01       	movw	r24, r22
 ce8:	01 97       	sbiw	r24, 0x01	; 1
 cea:	f1 f7       	brne	.-4      	; 0xce8 <Display_photo2+0xe8>
	delay_ms(5);
	EN_CLR;
 cec:	80 91 62 00 	lds	r24, 0x0062
 cf0:	87 7f       	andi	r24, 0xF7	; 247
 cf2:	80 93 62 00 	sts	0x0062, r24
 cf6:	ce 01       	movw	r24, r28
 cf8:	01 97       	sbiw	r24, 0x01	; 1
 cfa:	f1 f7       	brne	.-4      	; 0xcf8 <Display_photo2+0xf8>

	 	LCD_write_com(Yaddress+i);                //先写垂直地址，即Y地址，不能自动加一
	    delay_ms(1);
		LCD_write_com(X2address);                 //再写水平地址，即X地址
	    delay_ms(1);
	 	 for(j=0;j<8;j++)                        //连续写入2个字节的数据，一共8次，为一行，即16*8位数据
 cfc:	2f 5f       	subi	r18, 0xFF	; 255
 cfe:	3f 4f       	sbci	r19, 0xFF	; 255
 d00:	32 96       	adiw	r30, 0x02	; 2
 d02:	28 30       	cpi	r18, 0x08	; 8
 d04:	31 05       	cpc	r19, r1
 d06:	09 f0       	breq	.+2      	; 0xd0a <Display_photo2+0x10a>
 d08:	c1 cf       	rjmp	.-126    	; 0xc8c <Display_photo2+0x8c>
 d0a:	af 5f       	subi	r26, 0xFF	; 255
 d0c:	40 5f       	subi	r20, 0xF0	; 240
 d0e:	5f 4f       	sbci	r21, 0xFF	; 255

void Display_photo2(uchar *img2)                   //写下半屏图形数据
{
	int i,j;

	for(i=0;i<32;i++)                         //下半屏32行
 d10:	a0 3a       	cpi	r26, 0xA0	; 160
 d12:	09 f0       	breq	.+2      	; 0xd16 <Display_photo2+0x116>
 d14:	82 cf       	rjmp	.-252    	; 0xc1a <Display_photo2+0x1a>
      
		}

	}

}
 d16:	df 91       	pop	r29
 d18:	cf 91       	pop	r28
 d1a:	1f 91       	pop	r17
 d1c:	0f 91       	pop	r16
 d1e:	08 95       	ret

00000d20 <main>:
//****************************************************************
//函数名称：主函数，调用相关子程序，显示图形
//****************************************************************

void main( )
{
 d20:	cf 93       	push	r28
 d22:	df 93       	push	r29
	int m;
    system_init();                      //系统初始化，设置IO口属性
 d24:	0e 94 70 04 	call	0x8e0	; 0x8e0 <system_init>
 d28:	83 e3       	ldi	r24, 0x33	; 51
 d2a:	97 e0       	ldi	r25, 0x07	; 7
 d2c:	01 97       	sbiw	r24, 0x01	; 1
 d2e:	f1 f7       	brne	.-4      	; 0xd2c <main+0xc>
	delay_ms(1);                        //延时1ms
	LCD_init();                        //液晶参数初始化设置
 d30:	0e 94 fb 04 	call	0x9f6	; 0x9f6 <LCD_init>
//***********************************************************************


void LCD_write_com(unsigned char com) 
{	
	RS_CLR;
 d34:	80 91 62 00 	lds	r24, 0x0062
 d38:	8d 7f       	andi	r24, 0xFD	; 253
 d3a:	80 93 62 00 	sts	0x0062, r24
	RW_CLR;
 d3e:	80 91 62 00 	lds	r24, 0x0062
 d42:	8b 7f       	andi	r24, 0xFB	; 251
 d44:	80 93 62 00 	sts	0x0062, r24
	EN_SET;
 d48:	80 91 62 00 	lds	r24, 0x0062
 d4c:	88 60       	ori	r24, 0x08	; 8
 d4e:	80 93 62 00 	sts	0x0062, r24
	Data_IO = com;
 d52:	81 e0       	ldi	r24, 0x01	; 1
 d54:	8b bb       	out	0x1b, r24	; 27
 d56:	20 e0       	ldi	r18, 0x00	; 0
 d58:	34 e2       	ldi	r19, 0x24	; 36
 d5a:	c9 01       	movw	r24, r18
 d5c:	01 97       	sbiw	r24, 0x01	; 1
 d5e:	f1 f7       	brne	.-4      	; 0xd5c <main+0x3c>
	delay_ms(5);
	EN_CLR;
 d60:	80 91 62 00 	lds	r24, 0x0062
 d64:	87 7f       	andi	r24, 0xF7	; 247
 d66:	80 93 62 00 	sts	0x0062, r24
 d6a:	c9 01       	movw	r24, r18
 d6c:	01 97       	sbiw	r24, 0x01	; 1
 d6e:	f1 f7       	brne	.-4      	; 0xd6c <main+0x4c>
 d70:	80 e0       	ldi	r24, 0x00	; 0
 d72:	90 e0       	ldi	r25, 0x00	; 0
    LCD_clear(); 
  while(1)
	{
	for(m=0;m<512;m++)                //从flash中读取上半屏数据
	   {
		RamVar_1[m]=pgm_read_byte( &photo1[m] );
 d74:	c8 eb       	ldi	r28, 0xB8	; 184
 d76:	d0 e0       	ldi	r29, 0x00	; 0
 d78:	09 c0       	rjmp	.+18     	; 0xd8c <main+0x6c>
 d7a:	fc 01       	movw	r30, r24
 d7c:	e3 57       	subi	r30, 0x73	; 115
 d7e:	ff 4f       	sbci	r31, 0xFF	; 255
 d80:	e4 91       	lpm	r30, Z+
 d82:	dc 01       	movw	r26, r24
 d84:	a0 50       	subi	r26, 0x00	; 0
 d86:	bf 4f       	sbci	r27, 0xFF	; 255
 d88:	ec 93       	st	X, r30
	delay_ms(1);                        //延时1ms
	LCD_init();                        //液晶参数初始化设置
    LCD_clear(); 
  while(1)
	{
	for(m=0;m<512;m++)                //从flash中读取上半屏数据
 d8a:	01 96       	adiw	r24, 0x01	; 1
 d8c:	22 e0       	ldi	r18, 0x02	; 2
 d8e:	80 30       	cpi	r24, 0x00	; 0
 d90:	92 07       	cpc	r25, r18
 d92:	9c f3       	brlt	.-26     	; 0xd7a <main+0x5a>
	   {
		RamVar_1[m]=pgm_read_byte( &photo1[m] );
       }
		

    	Display_photo1(RamVar_1);     //显示上半屏数据
 d94:	80 e0       	ldi	r24, 0x00	; 0
 d96:	91 e0       	ldi	r25, 0x01	; 1
 d98:	0e 94 51 05 	call	0xaa2	; 0xaa2 <Display_photo1>
 d9c:	80 e0       	ldi	r24, 0x00	; 0
 d9e:	90 e0       	ldi	r25, 0x00	; 0
			
	for(m=0;m<512;m++)                //从flash中读取下半屏数据
	   {

		RamVar_1[m]=pgm_read_byte( &photo2[m] );     
 da0:	fc 01       	movw	r30, r24
 da2:	e3 56       	subi	r30, 0x63	; 99
 da4:	fd 4f       	sbci	r31, 0xFD	; 253
 da6:	e4 91       	lpm	r30, Z+
 da8:	dc 01       	movw	r26, r24
 daa:	a0 50       	subi	r26, 0x00	; 0
 dac:	bf 4f       	sbci	r27, 0xFF	; 255
 dae:	ec 93       	st	X, r30
       }
		

    	Display_photo1(RamVar_1);     //显示上半屏数据
			
	for(m=0;m<512;m++)                //从flash中读取下半屏数据
 db0:	01 96       	adiw	r24, 0x01	; 1
 db2:	22 e0       	ldi	r18, 0x02	; 2
 db4:	80 30       	cpi	r24, 0x00	; 0
 db6:	92 07       	cpc	r25, r18
 db8:	99 f7       	brne	.-26     	; 0xda0 <main+0x80>
	   {

		RamVar_1[m]=pgm_read_byte( &photo2[m] );     
	   }	
		Display_photo2(RamVar_1);     //显示下半屏数据
 dba:	80 e0       	ldi	r24, 0x00	; 0
 dbc:	91 e0       	ldi	r25, 0x01	; 1
 dbe:	0e 94 00 06 	call	0xc00	; 0xc00 <Display_photo2>
 dc2:	80 e1       	ldi	r24, 0x10	; 16
 dc4:	97 e2       	ldi	r25, 0x27	; 39
 dc6:	fe 01       	movw	r30, r28
 dc8:	31 97       	sbiw	r30, 0x01	; 1
 dca:	f1 f7       	brne	.-4      	; 0xdc8 <main+0xa8>
		__ticks = (uint16_t) (__ms * 10.0);
		while(__ticks)
		{
			// wait 1/10 ms
			_delay_loop_2(((F_CPU) / 4e3) / 10);
			__ticks --;
 dcc:	01 97       	sbiw	r24, 0x01	; 1
		__ticks = 1;
	else if (__tmp > 65535)
	{
		//	__ticks = requested delay in 1/10 ms
		__ticks = (uint16_t) (__ms * 10.0);
		while(__ticks)
 dce:	d9 f7       	brne	.-10     	; 0xdc6 <main+0xa6>
 dd0:	80 e1       	ldi	r24, 0x10	; 16
 dd2:	97 e2       	ldi	r25, 0x27	; 39
 dd4:	fe 01       	movw	r30, r28
 dd6:	31 97       	sbiw	r30, 0x01	; 1
 dd8:	f1 f7       	brne	.-4      	; 0xdd6 <main+0xb6>
		{
			// wait 1/10 ms
			_delay_loop_2(((F_CPU) / 4e3) / 10);
			__ticks --;
 dda:	01 97       	sbiw	r24, 0x01	; 1
		__ticks = 1;
	else if (__tmp > 65535)
	{
		//	__ticks = requested delay in 1/10 ms
		__ticks = (uint16_t) (__ms * 10.0);
		while(__ticks)
 ddc:	d9 f7       	brne	.-10     	; 0xdd4 <main+0xb4>
 dde:	80 e0       	ldi	r24, 0x00	; 0
 de0:	90 e0       	ldi	r25, 0x00	; 0
		delay_ms(1000);
		delay_ms(1000);

	for(m=0;m<512;m++)                //从flash中读取上半屏数据
	   {
		RamVar_1[m]=pgm_read_byte( &photo3[m] );
 de2:	fc 01       	movw	r30, r24
 de4:	e3 56       	subi	r30, 0x63	; 99
 de6:	fb 4f       	sbci	r31, 0xFB	; 251
 de8:	e4 91       	lpm	r30, Z+
 dea:	dc 01       	movw	r26, r24
 dec:	a0 50       	subi	r26, 0x00	; 0
 dee:	bf 4f       	sbci	r27, 0xFF	; 255
 df0:	ec 93       	st	X, r30
	   }	
		Display_photo2(RamVar_1);     //显示下半屏数据
		delay_ms(1000);
		delay_ms(1000);

	for(m=0;m<512;m++)                //从flash中读取上半屏数据
 df2:	01 96       	adiw	r24, 0x01	; 1
 df4:	22 e0       	ldi	r18, 0x02	; 2
 df6:	80 30       	cpi	r24, 0x00	; 0
 df8:	92 07       	cpc	r25, r18
 dfa:	99 f7       	brne	.-26     	; 0xde2 <main+0xc2>
	   {
		RamVar_1[m]=pgm_read_byte( &photo3[m] );
       }
		

    	Display_photo1(RamVar_1);     //显示上半屏数据
 dfc:	80 e0       	ldi	r24, 0x00	; 0
 dfe:	91 e0       	ldi	r25, 0x01	; 1
 e00:	0e 94 51 05 	call	0xaa2	; 0xaa2 <Display_photo1>
 e04:	80 e0       	ldi	r24, 0x00	; 0
 e06:	90 e0       	ldi	r25, 0x00	; 0
			
	for(m=0;m<512;m++)                //从flash中读取下半屏数据
	   {

		RamVar_1[m]=pgm_read_byte( &photo4[m] );     
 e08:	fc 01       	movw	r30, r24
 e0a:	e3 56       	subi	r30, 0x63	; 99
 e0c:	f9 4f       	sbci	r31, 0xF9	; 249
 e0e:	e4 91       	lpm	r30, Z+
 e10:	dc 01       	movw	r26, r24
 e12:	a0 50       	subi	r26, 0x00	; 0
 e14:	bf 4f       	sbci	r27, 0xFF	; 255
 e16:	ec 93       	st	X, r30
       }
		

    	Display_photo1(RamVar_1);     //显示上半屏数据
			
	for(m=0;m<512;m++)                //从flash中读取下半屏数据
 e18:	01 96       	adiw	r24, 0x01	; 1
 e1a:	22 e0       	ldi	r18, 0x02	; 2
 e1c:	80 30       	cpi	r24, 0x00	; 0
 e1e:	92 07       	cpc	r25, r18
 e20:	99 f7       	brne	.-26     	; 0xe08 <main+0xe8>
	   {

		RamVar_1[m]=pgm_read_byte( &photo4[m] );     
	   }	
		Display_photo2(RamVar_1);     //显示下半屏数据
 e22:	80 e0       	ldi	r24, 0x00	; 0
 e24:	91 e0       	ldi	r25, 0x01	; 1
 e26:	0e 94 00 06 	call	0xc00	; 0xc00 <Display_photo2>
 e2a:	80 e1       	ldi	r24, 0x10	; 16
 e2c:	97 e2       	ldi	r25, 0x27	; 39
 e2e:	fe 01       	movw	r30, r28
 e30:	31 97       	sbiw	r30, 0x01	; 1
 e32:	f1 f7       	brne	.-4      	; 0xe30 <main+0x110>
		{
			// wait 1/10 ms
			_delay_loop_2(((F_CPU) / 4e3) / 10);
			__ticks --;
 e34:	01 97       	sbiw	r24, 0x01	; 1
		__ticks = 1;
	else if (__tmp > 65535)
	{
		//	__ticks = requested delay in 1/10 ms
		__ticks = (uint16_t) (__ms * 10.0);
		while(__ticks)
 e36:	d9 f7       	brne	.-10     	; 0xe2e <main+0x10e>
 e38:	80 e1       	ldi	r24, 0x10	; 16
 e3a:	97 e2       	ldi	r25, 0x27	; 39
 e3c:	fe 01       	movw	r30, r28
 e3e:	31 97       	sbiw	r30, 0x01	; 1
 e40:	f1 f7       	brne	.-4      	; 0xe3e <main+0x11e>
		{
			// wait 1/10 ms
			_delay_loop_2(((F_CPU) / 4e3) / 10);
			__ticks --;
 e42:	01 97       	sbiw	r24, 0x01	; 1
		__ticks = 1;
	else if (__tmp > 65535)
	{
		//	__ticks = requested delay in 1/10 ms
		__ticks = (uint16_t) (__ms * 10.0);
		while(__ticks)
 e44:	d9 f7       	brne	.-10     	; 0xe3c <main+0x11c>
 e46:	80 e0       	ldi	r24, 0x00	; 0
 e48:	90 e0       	ldi	r25, 0x00	; 0
 e4a:	a0 cf       	rjmp	.-192    	; 0xd8c <main+0x6c>

00000e4c <_exit>:
 e4c:	f8 94       	cli

00000e4e <__stop_program>:
 e4e:	ff cf       	rjmp	.-2      	; 0xe4e <__stop_program>
