Archive member included because of file (symbol)

d:/program files/atmel/winavr/bin/../lib/gcc/avr/4.3.2/avr51\libgcc.a(_mulsi3.o)
                              mmc.o (__mulsi3)
d:/program files/atmel/winavr/bin/../lib/gcc/avr/4.3.2/avr51\libgcc.a(_exit.o)
                              d:/program files/atmel/winavr/bin/../lib/gcc/avr/4.3.2/../../../../avr/lib/avr51/crtm128.o (exit)
d:/program files/atmel/winavr/bin/../lib/gcc/avr/4.3.2/avr51\libgcc.a(_clear_bss.o)
                              main.o (__do_clear_bss)
d:/program files/atmel/winavr/bin/../lib/gcc/avr/4.3.2/../../../../avr/lib/avr51\libc.a(iob.o)
                              uart.o (__iob)
d:/program files/atmel/winavr/bin/../lib/gcc/avr/4.3.2/../../../../avr/lib/avr51\libc.a(printf.o)
                              main.o (printf)
d:/program files/atmel/winavr/bin/../lib/gcc/avr/4.3.2/../../../../avr/lib/avr51\libc.a(putchar.o)
                              main.o (putchar)
d:/program files/atmel/winavr/bin/../lib/gcc/avr/4.3.2/../../../../avr/lib/avr51\libc.a(puts.o)
                              main.o (puts)
d:/program files/atmel/winavr/bin/../lib/gcc/avr/4.3.2/../../../../avr/lib/avr51\libc.a(scanf.o)
                              main.o (scanf)
d:/program files/atmel/winavr/bin/../lib/gcc/avr/4.3.2/../../../../avr/lib/avr51\libc.a(vfprintf_std.o)
                              d:/program files/atmel/winavr/bin/../lib/gcc/avr/4.3.2/../../../../avr/lib/avr51\libc.a(printf.o) (vfprintf)
d:/program files/atmel/winavr/bin/../lib/gcc/avr/4.3.2/../../../../avr/lib/avr51\libc.a(vfscanf_std.o)
                              d:/program files/atmel/winavr/bin/../lib/gcc/avr/4.3.2/../../../../avr/lib/avr51\libc.a(scanf.o) (vfscanf)
d:/program files/atmel/winavr/bin/../lib/gcc/avr/4.3.2/../../../../avr/lib/avr51\libc.a(isspace.o)
                              d:/program files/atmel/winavr/bin/../lib/gcc/avr/4.3.2/../../../../avr/lib/avr51\libc.a(vfscanf_std.o) (isspace)
d:/program files/atmel/winavr/bin/../lib/gcc/avr/4.3.2/../../../../avr/lib/avr51\libc.a(strchr_P.o)
                              d:/program files/atmel/winavr/bin/../lib/gcc/avr/4.3.2/../../../../avr/lib/avr51\libc.a(vfscanf_std.o) (strchr_P)
d:/program files/atmel/winavr/bin/../lib/gcc/avr/4.3.2/../../../../avr/lib/avr51\libc.a(strnlen_P.o)
                              d:/program files/atmel/winavr/bin/../lib/gcc/avr/4.3.2/../../../../avr/lib/avr51\libc.a(vfprintf_std.o) (strnlen_P)
d:/program files/atmel/winavr/bin/../lib/gcc/avr/4.3.2/../../../../avr/lib/avr51\libc.a(strnlen.o)
                              d:/program files/atmel/winavr/bin/../lib/gcc/avr/4.3.2/../../../../avr/lib/avr51\libc.a(vfprintf_std.o) (strnlen)
d:/program files/atmel/winavr/bin/../lib/gcc/avr/4.3.2/../../../../avr/lib/avr51\libc.a(fgetc.o)
                              d:/program files/atmel/winavr/bin/../lib/gcc/avr/4.3.2/../../../../avr/lib/avr51\libc.a(vfscanf_std.o) (fgetc)
d:/program files/atmel/winavr/bin/../lib/gcc/avr/4.3.2/../../../../avr/lib/avr51\libc.a(fputc.o)
                              d:/program files/atmel/winavr/bin/../lib/gcc/avr/4.3.2/../../../../avr/lib/avr51\libc.a(putchar.o) (fputc)
d:/program files/atmel/winavr/bin/../lib/gcc/avr/4.3.2/../../../../avr/lib/avr51\libc.a(ungetc.o)
                              d:/program files/atmel/winavr/bin/../lib/gcc/avr/4.3.2/../../../../avr/lib/avr51\libc.a(vfscanf_std.o) (ungetc)
d:/program files/atmel/winavr/bin/../lib/gcc/avr/4.3.2/../../../../avr/lib/avr51\libc.a(ultoa_invert.o)
                              d:/program files/atmel/winavr/bin/../lib/gcc/avr/4.3.2/../../../../avr/lib/avr51\libc.a(vfprintf_std.o) (__ultoa_invert)
d:/program files/atmel/winavr/bin/../lib/gcc/avr/4.3.2/../../../../avr/lib/avr51\libc.a(cty_isfalse.o)
                              d:/program files/atmel/winavr/bin/../lib/gcc/avr/4.3.2/../../../../avr/lib/avr51\libc.a(isspace.o) (__ctype_isfalse)
d:/program files/atmel/winavr/bin/../lib/gcc/avr/4.3.2/avr51\libgcc.a(_prologue.o)
                              d:/program files/atmel/winavr/bin/../lib/gcc/avr/4.3.2/../../../../avr/lib/avr51\libc.a(printf.o) (__prologue_saves__)
d:/program files/atmel/winavr/bin/../lib/gcc/avr/4.3.2/avr51\libgcc.a(_epilogue.o)
                              d:/program files/atmel/winavr/bin/../lib/gcc/avr/4.3.2/../../../../avr/lib/avr51\libc.a(printf.o) (__epilogue_restores__)

Allocating common symbols
Common symbol       size              file

spiTransferComplete
                    0x1               SPI.o
buffer2             0x200             main.o
buffer1             0x200             main.o
__iob               0x6               d:/program files/atmel/winavr/bin/../lib/gcc/avr/4.3.2/../../../../avr/lib/avr51\libc.a(iob.o)

Memory Configuration

Name             Origin             Length             Attributes
text             0x00000000         0x00020000         xr
data             0x00800060         0x0000ffa0         rw !x
eeprom           0x00810000         0x00010000         rw !x
fuse             0x00820000         0x00000400         rw !x
lock             0x00830000         0x00000400         rw !x
signature        0x00840000         0x00000400         rw !x
*default*        0x00000000         0xffffffff

Linker script and memory map

Address of section .data set to 0x800100
LOAD d:/program files/atmel/winavr/bin/../lib/gcc/avr/4.3.2/../../../../avr/lib/avr51/crtm128.o
LOAD main.o
LOAD mmc.o
LOAD SPI.o
LOAD uart.o
LOAD d:/program files/atmel/winavr/bin/../lib/gcc/avr/4.3.2/avr51\libgcc.a
LOAD d:/program files/atmel/winavr/bin/../lib/gcc/avr/4.3.2/../../../../avr/lib/avr51\libc.a
LOAD d:/program files/atmel/winavr/bin/../lib/gcc/avr/4.3.2/avr51\libgcc.a

.hash
 *(.hash)

.dynsym
 *(.dynsym)

.dynstr
 *(.dynstr)

.gnu.version
 *(.gnu.version)

.gnu.version_d
 *(.gnu.version_d)

.gnu.version_r
 *(.gnu.version_r)

.rel.init
 *(.rel.init)

.rela.init
 *(.rela.init)

.rel.text
 *(.rel.text)
 *(.rel.text.*)
 *(.rel.gnu.linkonce.t*)

.rela.text
 *(.rela.text)
 *(.rela.text.*)
 *(.rela.gnu.linkonce.t*)

.rel.fini
 *(.rel.fini)

.rela.fini
 *(.rela.fini)

.rel.rodata
 *(.rel.rodata)
 *(.rel.rodata.*)
 *(.rel.gnu.linkonce.r*)

.rela.rodata
 *(.rela.rodata)
 *(.rela.rodata.*)
 *(.rela.gnu.linkonce.r*)

.rel.data
 *(.rel.data)
 *(.rel.data.*)
 *(.rel.gnu.linkonce.d*)

.rela.data
 *(.rela.data)
 *(.rela.data.*)
 *(.rela.gnu.linkonce.d*)

.rel.ctors
 *(.rel.ctors)

.rela.ctors
 *(.rela.ctors)

.rel.dtors
 *(.rel.dtors)

.rela.dtors
 *(.rela.dtors)

.rel.got
 *(.rel.got)

.rela.got
 *(.rela.got)

.rel.bss
 *(.rel.bss)

.rela.bss
 *(.rela.bss)

.rel.plt
 *(.rel.plt)

.rela.plt
 *(.rela.plt)

.text           0x00000000     0x1c74
 *(.vectors)
 .vectors       0x00000000       0x8c d:/program files/atmel/winavr/bin/../lib/gcc/avr/4.3.2/../../../../avr/lib/avr51/crtm128.o
                0x00000000                __vectors
                0x00000000                __vector_default
 *(.vectors)
 *(.progmem.gcc*)
 *(.progmem*)
 .progmem.data  0x0000008c        0xc d:/program files/atmel/winavr/bin/../lib/gcc/avr/4.3.2/../../../../avr/lib/avr51\libc.a(vfscanf_std.o)
                0x00000098                . = ALIGN (0x2)
                0x00000098                __trampolines_start = .
 *(.trampolines)
 .trampolines   0x00000098        0x0 linker stubs
 *(.trampolines*)
                0x00000098                __trampolines_end = .
 *(.jumptables)
 *(.jumptables*)
 *(.lowtext)
 *(.lowtext*)
                0x00000098                __ctors_start = .
 *(.ctors)
                0x00000098                __ctors_end = .
                0x00000098                __dtors_start = .
 *(.dtors)
                0x00000098                __dtors_end = .
 SORT(*)(.ctors)
 SORT(*)(.dtors)
 *(.init0)
 .init0         0x00000098        0x0 d:/program files/atmel/winavr/bin/../lib/gcc/avr/4.3.2/../../../../avr/lib/avr51/crtm128.o
                0x00000098                __init
 *(.init0)
 *(.init1)
 *(.init1)
 *(.init2)
 .init2         0x00000098        0xc d:/program files/atmel/winavr/bin/../lib/gcc/avr/4.3.2/../../../../avr/lib/avr51/crtm128.o
 *(.init2)
 *(.init3)
 *(.init3)
 *(.init4)
 .init4         0x000000a4       0x1a d:/program files/atmel/winavr/bin/../lib/gcc/avr/4.3.2/../../../../avr/lib/avr51/crtm128.o
                0x000000a4                __do_copy_data
 .init4         0x000000be       0x10 d:/program files/atmel/winavr/bin/../lib/gcc/avr/4.3.2/avr51\libgcc.a(_clear_bss.o)
                0x000000be                __do_clear_bss
 *(.init4)
 *(.init5)
 *(.init5)
 *(.init6)
 *(.init6)
 *(.init7)
 *(.init7)
 *(.init8)
 *(.init8)
 *(.init9)
 .init9         0x000000ce        0x8 d:/program files/atmel/winavr/bin/../lib/gcc/avr/4.3.2/../../../../avr/lib/avr51/crtm128.o
 *(.init9)
 *(.text)
 .text          0x000000d6        0x4 d:/program files/atmel/winavr/bin/../lib/gcc/avr/4.3.2/../../../../avr/lib/avr51/crtm128.o
                0x000000d6                __vector_22
                0x000000d6                __vector_28
                0x000000d6                __vector_1
                0x000000d6                __vector_32
                0x000000d6                __vector_34
                0x000000d6                __vector_24
                0x000000d6                __vector_12
                0x000000d6                __bad_interrupt
                0x000000d6                __vector_6
                0x000000d6                __vector_31
                0x000000d6                __vector_3
                0x000000d6                __vector_23
                0x000000d6                __vector_30
                0x000000d6                __vector_25
                0x000000d6                __vector_11
                0x000000d6                __vector_13
                0x000000d6                __vector_17
                0x000000d6                __vector_19
                0x000000d6                __vector_7
                0x000000d6                __vector_27
                0x000000d6                __vector_5
                0x000000d6                __vector_33
                0x000000d6                __vector_4
                0x000000d6                __vector_9
                0x000000d6                __vector_2
                0x000000d6                __vector_21
                0x000000d6                __vector_15
                0x000000d6                __vector_29
                0x000000d6                __vector_8
                0x000000d6                __vector_26
                0x000000d6                __vector_14
                0x000000d6                __vector_10
                0x000000d6                __vector_16
                0x000000d6                __vector_18
                0x000000d6                __vector_20
 .text          0x000000da      0x26e main.o
                0x000000da                main
 .text          0x00000348      0xaae mmc.o
                0x000004f4                mmcGetXXResponse
                0x0000053e                mmcCheckBusy
                0x000003a0                mmcGoIdle
                0x000006ac                mmcReadBlock
                0x000008fa                mmcSendCmd
                0x000005f0                mmcEreaseBlock
                0x000009c4                mmcSetBlockLength
                0x00000348                initMMC
                0x00000b16                MMC_ReadCardSize
                0x000004ac                mmcGetResponse
                0x000007d8                mmcWriteBlock
                0x00000a3c                mmcReadRegister
 .text          0x00000df6      0x138 SPI.o
                0x00000eda                spiTransferWord
                0x00000eae                spiSendByte
                0x00000e8a                spiHigh
                0x00000e66                spiLow
                0x00000df6                spiInit
 .text          0x00000f2e       0xc2 uart.o
                0x00000fa8                uartInit
 .text          0x00000ff0        0x0 d:/program files/atmel/winavr/bin/../lib/gcc/avr/4.3.2/avr51\libgcc.a(_mulsi3.o)
 .text          0x00000ff0        0x0 d:/program files/atmel/winavr/bin/../lib/gcc/avr/4.3.2/avr51\libgcc.a(_exit.o)
 .text          0x00000ff0        0x0 d:/program files/atmel/winavr/bin/../lib/gcc/avr/4.3.2/avr51\libgcc.a(_clear_bss.o)
 .text          0x00000ff0        0x0 d:/program files/atmel/winavr/bin/../lib/gcc/avr/4.3.2/../../../../avr/lib/avr51\libc.a(iob.o)
 .text          0x00000ff0       0x2a d:/program files/atmel/winavr/bin/../lib/gcc/avr/4.3.2/../../../../avr/lib/avr51\libc.a(printf.o)
                0x00000ff0                printf
 .text          0x0000101a        0xe d:/program files/atmel/winavr/bin/../lib/gcc/avr/4.3.2/../../../../avr/lib/avr51\libc.a(putchar.o)
                0x0000101a                putchar
 .text          0x00001028       0x6a d:/program files/atmel/winavr/bin/../lib/gcc/avr/4.3.2/../../../../avr/lib/avr51\libc.a(puts.o)
                0x00001028                puts
 .text          0x00001092       0x2a d:/program files/atmel/winavr/bin/../lib/gcc/avr/4.3.2/../../../../avr/lib/avr51\libc.a(scanf.o)
                0x00001092                scanf
 .text          0x000010bc      0x3ba d:/program files/atmel/winavr/bin/../lib/gcc/avr/4.3.2/../../../../avr/lib/avr51\libc.a(vfprintf_std.o)
                0x000010bc                vfprintf
 .text          0x00001476      0x52a d:/program files/atmel/winavr/bin/../lib/gcc/avr/4.3.2/../../../../avr/lib/avr51\libc.a(vfscanf_std.o)
                0x0000177e                vfscanf
 .text          0x000019a0        0x0 d:/program files/atmel/winavr/bin/../lib/gcc/avr/4.3.2/../../../../avr/lib/avr51\libc.a(isspace.o)
 .text          0x000019a0       0x16 d:/program files/atmel/winavr/bin/../lib/gcc/avr/4.3.2/../../../../avr/lib/avr51\libc.a(strchr_P.o)
                0x000019a0                strchr_P
 .text          0x000019b6       0x16 d:/program files/atmel/winavr/bin/../lib/gcc/avr/4.3.2/../../../../avr/lib/avr51\libc.a(strnlen_P.o)
                0x000019b6                strnlen_P
 .text          0x000019cc       0x16 d:/program files/atmel/winavr/bin/../lib/gcc/avr/4.3.2/../../../../avr/lib/avr51\libc.a(strnlen.o)
                0x000019cc                strnlen
 .text          0x000019e2       0x84 d:/program files/atmel/winavr/bin/../lib/gcc/avr/4.3.2/../../../../avr/lib/avr51\libc.a(fgetc.o)
                0x000019e2                fgetc
 .text          0x00001a66       0x58 d:/program files/atmel/winavr/bin/../lib/gcc/avr/4.3.2/../../../../avr/lib/avr51\libc.a(fputc.o)
                0x00001a66                fputc
 .text          0x00001abe       0x34 d:/program files/atmel/winavr/bin/../lib/gcc/avr/4.3.2/../../../../avr/lib/avr51\libc.a(ungetc.o)
                0x00001abe                ungetc
 .text          0x00001af2       0xbc d:/program files/atmel/winavr/bin/../lib/gcc/avr/4.3.2/../../../../avr/lib/avr51\libc.a(ultoa_invert.o)
                0x00001af2                __ultoa_invert
 .text          0x00001bae        0x0 d:/program files/atmel/winavr/bin/../lib/gcc/avr/4.3.2/../../../../avr/lib/avr51\libc.a(cty_isfalse.o)
 .text          0x00001bae        0x0 d:/program files/atmel/winavr/bin/../lib/gcc/avr/4.3.2/avr51\libgcc.a(_prologue.o)
 .text          0x00001bae        0x0 d:/program files/atmel/winavr/bin/../lib/gcc/avr/4.3.2/avr51\libgcc.a(_epilogue.o)
                0x00001bae                . = ALIGN (0x2)
 *(.text.*)
 .text.libgcc   0x00001bae       0x3e d:/program files/atmel/winavr/bin/../lib/gcc/avr/4.3.2/avr51\libgcc.a(_mulsi3.o)
                0x00001bae                __mulsi3
 .text.libgcc   0x00001bec        0x0 d:/program files/atmel/winavr/bin/../lib/gcc/avr/4.3.2/avr51\libgcc.a(_exit.o)
 .text.libgcc   0x00001bec        0x0 d:/program files/atmel/winavr/bin/../lib/gcc/avr/4.3.2/avr51\libgcc.a(_clear_bss.o)
 .text.ctype    0x00001bec       0x10 d:/program files/atmel/winavr/bin/../lib/gcc/avr/4.3.2/../../../../avr/lib/avr51\libc.a(isspace.o)
                0x00001bec                isspace
 .text.ctype    0x00001bfc        0x6 d:/program files/atmel/winavr/bin/../lib/gcc/avr/4.3.2/../../../../avr/lib/avr51\libc.a(cty_isfalse.o)
                0x00001c00                __ctype_istrue
                0x00001bfc                __ctype_isfalse
 .text.libgcc   0x00001c02       0x38 d:/program files/atmel/winavr/bin/../lib/gcc/avr/4.3.2/avr51\libgcc.a(_prologue.o)
                0x00001c02                __prologue_saves__
 .text.libgcc   0x00001c3a       0x36 d:/program files/atmel/winavr/bin/../lib/gcc/avr/4.3.2/avr51\libgcc.a(_epilogue.o)
                0x00001c3a                __epilogue_restores__
                0x00001c70                . = ALIGN (0x2)
 *(.fini9)
 .fini9         0x00001c70        0x0 d:/program files/atmel/winavr/bin/../lib/gcc/avr/4.3.2/avr51\libgcc.a(_exit.o)
                0x00001c70                exit
                0x00001c70                _exit
 *(.fini9)
 *(.fini8)
 *(.fini8)
 *(.fini7)
 *(.fini7)
 *(.fini6)
 *(.fini6)
 *(.fini5)
 *(.fini5)
 *(.fini4)
 *(.fini4)
 *(.fini3)
 *(.fini3)
 *(.fini2)
 *(.fini2)
 *(.fini1)
 *(.fini1)
 *(.fini0)
 .fini0         0x00001c70        0x4 d:/program files/atmel/winavr/bin/../lib/gcc/avr/4.3.2/avr51\libgcc.a(_exit.o)
 *(.fini0)
                0x00001c74                _etext = .

.data           0x00800100      0x140 load address 0x00001c74
                0x00800100                PROVIDE (__data_start, .)
 *(.data)
 .data          0x00800100        0x0 d:/program files/atmel/winavr/bin/../lib/gcc/avr/4.3.2/../../../../avr/lib/avr51/crtm128.o
 .data          0x00800100      0x131 main.o
                0x00800103                numSector
                0x00800100                BlockLength
                0x00800102                status
 .data          0x00800231        0x0 mmc.o
 .data          0x00800231        0x0 SPI.o
 .data          0x00800231        0xe uart.o
 .data          0x0080023f        0x0 d:/program files/atmel/winavr/bin/../lib/gcc/avr/4.3.2/avr51\libgcc.a(_mulsi3.o)
 .data          0x0080023f        0x0 d:/program files/atmel/winavr/bin/../lib/gcc/avr/4.3.2/avr51\libgcc.a(_exit.o)
 .data          0x0080023f        0x0 d:/program files/atmel/winavr/bin/../lib/gcc/avr/4.3.2/avr51\libgcc.a(_clear_bss.o)
 .data          0x0080023f        0x0 d:/program files/atmel/winavr/bin/../lib/gcc/avr/4.3.2/../../../../avr/lib/avr51\libc.a(iob.o)
 .data          0x0080023f        0x0 d:/program files/atmel/winavr/bin/../lib/gcc/avr/4.3.2/../../../../avr/lib/avr51\libc.a(printf.o)
 .data          0x0080023f        0x0 d:/program files/atmel/winavr/bin/../lib/gcc/avr/4.3.2/../../../../avr/lib/avr51\libc.a(putchar.o)
 .data          0x0080023f        0x0 d:/program files/atmel/winavr/bin/../lib/gcc/avr/4.3.2/../../../../avr/lib/avr51\libc.a(puts.o)
 .data          0x0080023f        0x0 d:/program files/atmel/winavr/bin/../lib/gcc/avr/4.3.2/../../../../avr/lib/avr51\libc.a(scanf.o)
 .data          0x0080023f        0x0 d:/program files/atmel/winavr/bin/../lib/gcc/avr/4.3.2/../../../../avr/lib/avr51\libc.a(vfprintf_std.o)
 .data          0x0080023f        0x0 d:/program files/atmel/winavr/bin/../lib/gcc/avr/4.3.2/../../../../avr/lib/avr51\libc.a(vfscanf_std.o)
 .data          0x0080023f        0x0 d:/program files/atmel/winavr/bin/../lib/gcc/avr/4.3.2/../../../../avr/lib/avr51\libc.a(isspace.o)
 .data          0x0080023f        0x0 d:/program files/atmel/winavr/bin/../lib/gcc/avr/4.3.2/../../../../avr/lib/avr51\libc.a(strchr_P.o)
 .data          0x0080023f        0x0 d:/program files/atmel/winavr/bin/../lib/gcc/avr/4.3.2/../../../../avr/lib/avr51\libc.a(strnlen_P.o)
 .data          0x0080023f        0x0 d:/program files/atmel/winavr/bin/../lib/gcc/avr/4.3.2/../../../../avr/lib/avr51\libc.a(strnlen.o)
 .data          0x0080023f        0x0 d:/program files/atmel/winavr/bin/../lib/gcc/avr/4.3.2/../../../../avr/lib/avr51\libc.a(fgetc.o)
 .data          0x0080023f        0x0 d:/program files/atmel/winavr/bin/../lib/gcc/avr/4.3.2/../../../../avr/lib/avr51\libc.a(fputc.o)
 .data          0x0080023f        0x0 d:/program files/atmel/winavr/bin/../lib/gcc/avr/4.3.2/../../../../avr/lib/avr51\libc.a(ungetc.o)
 .data          0x0080023f        0x0 d:/program files/atmel/winavr/bin/../lib/gcc/avr/4.3.2/../../../../avr/lib/avr51\libc.a(ultoa_invert.o)
 .data          0x0080023f        0x0 d:/program files/atmel/winavr/bin/../lib/gcc/avr/4.3.2/../../../../avr/lib/avr51\libc.a(cty_isfalse.o)
 .data          0x0080023f        0x0 d:/program files/atmel/winavr/bin/../lib/gcc/avr/4.3.2/avr51\libgcc.a(_prologue.o)
 .data          0x0080023f        0x0 d:/program files/atmel/winavr/bin/../lib/gcc/avr/4.3.2/avr51\libgcc.a(_epilogue.o)
 *(.data*)
 *(.rodata)
 *(.rodata*)
 *(.gnu.linkonce.d*)
                0x00800240                . = ALIGN (0x2)
 *fill*         0x0080023f        0x1 00
                0x00800240                _edata = .
                0x00800240                PROVIDE (__data_end, .)

.bss            0x00800240      0x40d
                0x00800240                PROVIDE (__bss_start, .)
 *(.bss)
 .bss           0x00800240        0x0 d:/program files/atmel/winavr/bin/../lib/gcc/avr/4.3.2/../../../../avr/lib/avr51/crtm128.o
 .bss           0x00800240        0x6 main.o
                0x00800240                cardSize
                0x00800244                timeout
 .bss           0x00800246        0x0 mmc.o
 .bss           0x00800246        0x0 SPI.o
 .bss           0x00800246        0x0 uart.o
 .bss           0x00800246        0x0 d:/program files/atmel/winavr/bin/../lib/gcc/avr/4.3.2/avr51\libgcc.a(_mulsi3.o)
 .bss           0x00800246        0x0 d:/program files/atmel/winavr/bin/../lib/gcc/avr/4.3.2/avr51\libgcc.a(_exit.o)
 .bss           0x00800246        0x0 d:/program files/atmel/winavr/bin/../lib/gcc/avr/4.3.2/avr51\libgcc.a(_clear_bss.o)
 .bss           0x00800246        0x0 d:/program files/atmel/winavr/bin/../lib/gcc/avr/4.3.2/../../../../avr/lib/avr51\libc.a(iob.o)
 .bss           0x00800246        0x0 d:/program files/atmel/winavr/bin/../lib/gcc/avr/4.3.2/../../../../avr/lib/avr51\libc.a(printf.o)
 .bss           0x00800246        0x0 d:/program files/atmel/winavr/bin/../lib/gcc/avr/4.3.2/../../../../avr/lib/avr51\libc.a(putchar.o)
 .bss           0x00800246        0x0 d:/program files/atmel/winavr/bin/../lib/gcc/avr/4.3.2/../../../../avr/lib/avr51\libc.a(puts.o)
 .bss           0x00800246        0x0 d:/program files/atmel/winavr/bin/../lib/gcc/avr/4.3.2/../../../../avr/lib/avr51\libc.a(scanf.o)
 .bss           0x00800246        0x0 d:/program files/atmel/winavr/bin/../lib/gcc/avr/4.3.2/../../../../avr/lib/avr51\libc.a(vfprintf_std.o)
 .bss           0x00800246        0x0 d:/program files/atmel/winavr/bin/../lib/gcc/avr/4.3.2/../../../../avr/lib/avr51\libc.a(vfscanf_std.o)
 .bss           0x00800246        0x0 d:/program files/atmel/winavr/bin/../lib/gcc/avr/4.3.2/../../../../avr/lib/avr51\libc.a(isspace.o)
 .bss           0x00800246        0x0 d:/program files/atmel/winavr/bin/../lib/gcc/avr/4.3.2/../../../../avr/lib/avr51\libc.a(strchr_P.o)
 .bss           0x00800246        0x0 d:/program files/atmel/winavr/bin/../lib/gcc/avr/4.3.2/../../../../avr/lib/avr51\libc.a(strnlen_P.o)
 .bss           0x00800246        0x0 d:/program files/atmel/winavr/bin/../lib/gcc/avr/4.3.2/../../../../avr/lib/avr51\libc.a(strnlen.o)
 .bss           0x00800246        0x0 d:/program files/atmel/winavr/bin/../lib/gcc/avr/4.3.2/../../../../avr/lib/avr51\libc.a(fgetc.o)
 .bss           0x00800246        0x0 d:/program files/atmel/winavr/bin/../lib/gcc/avr/4.3.2/../../../../avr/lib/avr51\libc.a(fputc.o)
 .bss           0x00800246        0x0 d:/program files/atmel/winavr/bin/../lib/gcc/avr/4.3.2/../../../../avr/lib/avr51\libc.a(ungetc.o)
 .bss           0x00800246        0x0 d:/program files/atmel/winavr/bin/../lib/gcc/avr/4.3.2/../../../../avr/lib/avr51\libc.a(ultoa_invert.o)
 .bss           0x00800246        0x0 d:/program files/atmel/winavr/bin/../lib/gcc/avr/4.3.2/../../../../avr/lib/avr51\libc.a(cty_isfalse.o)
 .bss           0x00800246        0x0 d:/program files/atmel/winavr/bin/../lib/gcc/avr/4.3.2/avr51\libgcc.a(_prologue.o)
 .bss           0x00800246        0x0 d:/program files/atmel/winavr/bin/../lib/gcc/avr/4.3.2/avr51\libgcc.a(_epilogue.o)
 *(.bss*)
 *(COMMON)
 COMMON         0x00800246      0x400 main.o
                0x00800246                buffer2
                0x00800446                buffer1
 COMMON         0x00800646        0x1 SPI.o
                0x00800646                spiTransferComplete
 COMMON         0x00800647        0x6 d:/program files/atmel/winavr/bin/../lib/gcc/avr/4.3.2/../../../../avr/lib/avr51\libc.a(iob.o)
                0x00800647                __iob
                0x0080064d                PROVIDE (__bss_end, .)
                0x00001c74                __data_load_start = LOADADDR (.data)
                0x00001db4                __data_load_end = (__data_load_start + SIZEOF (.data))

.noinit         0x0080064d        0x0
                0x0080064d                PROVIDE (__noinit_start, .)
 *(.noinit*)
                0x0080064d                PROVIDE (__noinit_end, .)
                0x0080064d                _end = .
                0x0080064d                PROVIDE (__heap_start, .)

.eeprom         0x00810000        0x0
 *(.eeprom*)
                0x00810000                __eeprom_end = .

.fuse
 *(.fuse)
 *(.lfuse)
 *(.hfuse)
 *(.efuse)

.lock
 *(.lock*)

.signature
 *(.signature*)

.stab
 *(.stab)

.stabstr
 *(.stabstr)

.stab.excl
 *(.stab.excl)

.stab.exclstr
 *(.stab.exclstr)

.stab.index
 *(.stab.index)

.stab.indexstr
 *(.stab.indexstr)

.comment
 *(.comment)

.debug
 *(.debug)

.line
 *(.line)

.debug_srcinfo
 *(.debug_srcinfo)

.debug_sfnames
 *(.debug_sfnames)

.debug_aranges  0x00000000       0x80
 *(.debug_aranges)
 .debug_aranges
                0x00000000       0x20 main.o
 .debug_aranges
                0x00000020       0x20 mmc.o
 .debug_aranges
                0x00000040       0x20 SPI.o
 .debug_aranges
                0x00000060       0x20 uart.o

.debug_pubnames
                0x00000000      0x1ee
 *(.debug_pubnames)
 .debug_pubnames
                0x00000000       0x75 main.o
 .debug_pubnames
                0x00000075       0xe9 mmc.o
 .debug_pubnames
                0x0000015e       0x71 SPI.o
 .debug_pubnames
                0x000001cf       0x1f uart.o

.debug_info     0x00000000      0x8aa
 *(.debug_info)
 .debug_info    0x00000000      0x15d main.o
 .debug_info    0x0000015d      0x453 mmc.o
 .debug_info    0x000005b0      0x12b SPI.o
 .debug_info    0x000006db      0x1cf uart.o
 *(.gnu.linkonce.wi.*)

.debug_abbrev   0x00000000      0x38c
 *(.debug_abbrev)
 .debug_abbrev  0x00000000       0x9a main.o
 .debug_abbrev  0x0000009a      0x13b mmc.o
 .debug_abbrev  0x000001d5       0x9b SPI.o
 .debug_abbrev  0x00000270      0x11c uart.o

.debug_line     0x00000000      0xb2a
 *(.debug_line)
 .debug_line    0x00000000      0x177 main.o
 .debug_line    0x00000177      0x749 mmc.o
 .debug_line    0x000008c0      0x135 SPI.o
 .debug_line    0x000009f5      0x135 uart.o

.debug_frame    0x00000000      0x190
 *(.debug_frame)
 .debug_frame   0x00000000       0x20 main.o
 .debug_frame   0x00000020       0xd0 mmc.o
 .debug_frame   0x000000f0       0x60 SPI.o
 .debug_frame   0x00000150       0x40 uart.o

.debug_str      0x00000000      0x2d4
 *(.debug_str)
 .debug_str     0x00000000       0xd9 main.o
                                0x126 (size before relaxing)
 .debug_str     0x000000d9      0x13e mmc.o
                                0x215 (size before relaxing)
 .debug_str     0x00000217       0x57 SPI.o
                                0x119 (size before relaxing)
 .debug_str     0x0000026e       0x66 uart.o
                                0x11b (size before relaxing)

.debug_loc
 *(.debug_loc)

.debug_macinfo
 *(.debug_macinfo)
OUTPUT(MMC_SD.elf elf32-avr)
LOAD linker stubs
