
TFT_4.elf:     file format elf32-avr

Sections:
Idx Name          Size      VMA       LMA       File off  Algn
  0 .data         00000cbe  00800100  000039ac  00003a40  2**0
                  CONTENTS, ALLOC, LOAD, DATA
  1 .text         000039ac  00000000  00000000  00000094  2**1
                  CONTENTS, ALLOC, LOAD, READONLY, CODE
  2 .bss          0000004b  00800dbe  00800dbe  000046fe  2**0
                  ALLOC
  3 .debug_aranges 00000180  00000000  00000000  000046fe  2**0
                  CONTENTS, READONLY, DEBUGGING
  4 .debug_pubnames 00000621  00000000  00000000  0000487e  2**0
                  CONTENTS, READONLY, DEBUGGING
  5 .debug_info   00003a36  00000000  00000000  00004e9f  2**0
                  CONTENTS, READONLY, DEBUGGING
  6 .debug_abbrev 0000143c  00000000  00000000  000088d5  2**0
                  CONTENTS, READONLY, DEBUGGING
  7 .debug_line   00002b90  00000000  00000000  00009d11  2**0
                  CONTENTS, READONLY, DEBUGGING
  8 .debug_frame  00000480  00000000  00000000  0000c8a4  2**2
                  CONTENTS, READONLY, DEBUGGING
  9 .debug_str    00000a70  00000000  00000000  0000cd24  2**0
                  CONTENTS, READONLY, DEBUGGING
 10 .debug_loc    000024c3  00000000  00000000  0000d794  2**0
                  CONTENTS, READONLY, DEBUGGING
 11 .debug_ranges 000000e0  00000000  00000000  0000fc57  2**0
                  CONTENTS, READONLY, DEBUGGING

Disassembly of section .text:

00000000 <__vectors>:
       0:	0c 94 46 00 	jmp	0x8c	; 0x8c <__ctors_end>
       4:	0c 94 65 00 	jmp	0xca	; 0xca <__bad_interrupt>
       8:	0c 94 65 00 	jmp	0xca	; 0xca <__bad_interrupt>
       c:	0c 94 65 00 	jmp	0xca	; 0xca <__bad_interrupt>
      10:	0c 94 65 00 	jmp	0xca	; 0xca <__bad_interrupt>
      14:	0c 94 65 00 	jmp	0xca	; 0xca <__bad_interrupt>
      18:	0c 94 65 00 	jmp	0xca	; 0xca <__bad_interrupt>
      1c:	0c 94 65 00 	jmp	0xca	; 0xca <__bad_interrupt>
      20:	0c 94 65 00 	jmp	0xca	; 0xca <__bad_interrupt>
      24:	0c 94 65 00 	jmp	0xca	; 0xca <__bad_interrupt>
      28:	0c 94 65 00 	jmp	0xca	; 0xca <__bad_interrupt>
      2c:	0c 94 65 00 	jmp	0xca	; 0xca <__bad_interrupt>
      30:	0c 94 65 00 	jmp	0xca	; 0xca <__bad_interrupt>
      34:	0c 94 65 00 	jmp	0xca	; 0xca <__bad_interrupt>
      38:	0c 94 65 00 	jmp	0xca	; 0xca <__bad_interrupt>
      3c:	0c 94 65 00 	jmp	0xca	; 0xca <__bad_interrupt>
      40:	0c 94 65 00 	jmp	0xca	; 0xca <__bad_interrupt>
      44:	0c 94 65 00 	jmp	0xca	; 0xca <__bad_interrupt>
      48:	0c 94 65 00 	jmp	0xca	; 0xca <__bad_interrupt>
      4c:	0c 94 65 00 	jmp	0xca	; 0xca <__bad_interrupt>
      50:	0c 94 65 00 	jmp	0xca	; 0xca <__bad_interrupt>
      54:	0c 94 65 00 	jmp	0xca	; 0xca <__bad_interrupt>
      58:	0c 94 65 00 	jmp	0xca	; 0xca <__bad_interrupt>
      5c:	0c 94 65 00 	jmp	0xca	; 0xca <__bad_interrupt>
      60:	0c 94 65 00 	jmp	0xca	; 0xca <__bad_interrupt>
      64:	0c 94 65 00 	jmp	0xca	; 0xca <__bad_interrupt>
      68:	0c 94 65 00 	jmp	0xca	; 0xca <__bad_interrupt>
      6c:	0c 94 65 00 	jmp	0xca	; 0xca <__bad_interrupt>
      70:	0c 94 65 00 	jmp	0xca	; 0xca <__bad_interrupt>
      74:	0c 94 65 00 	jmp	0xca	; 0xca <__bad_interrupt>
      78:	0c 94 65 00 	jmp	0xca	; 0xca <__bad_interrupt>
      7c:	0c 94 65 00 	jmp	0xca	; 0xca <__bad_interrupt>
      80:	0c 94 65 00 	jmp	0xca	; 0xca <__bad_interrupt>
      84:	0c 94 65 00 	jmp	0xca	; 0xca <__bad_interrupt>
      88:	0c 94 65 00 	jmp	0xca	; 0xca <__bad_interrupt>

0000008c <__ctors_end>:
      8c:	11 24       	eor	r1, r1
      8e:	1f be       	out	0x3f, r1	; 63
      90:	cf ef       	ldi	r28, 0xFF	; 255
      92:	d0 e1       	ldi	r29, 0x10	; 16
      94:	de bf       	out	0x3e, r29	; 62
      96:	cd bf       	out	0x3d, r28	; 61

00000098 <__do_copy_data>:
      98:	1d e0       	ldi	r17, 0x0D	; 13
      9a:	a0 e0       	ldi	r26, 0x00	; 0
      9c:	b1 e0       	ldi	r27, 0x01	; 1
      9e:	ec ea       	ldi	r30, 0xAC	; 172
      a0:	f9 e3       	ldi	r31, 0x39	; 57
      a2:	00 e0       	ldi	r16, 0x00	; 0
      a4:	0b bf       	out	0x3b, r16	; 59
      a6:	02 c0       	rjmp	.+4      	; 0xac <__do_copy_data+0x14>
      a8:	07 90       	elpm	r0, Z+
      aa:	0d 92       	st	X+, r0
      ac:	ae 3b       	cpi	r26, 0xBE	; 190
      ae:	b1 07       	cpc	r27, r17
      b0:	d9 f7       	brne	.-10     	; 0xa8 <__do_copy_data+0x10>

000000b2 <__do_clear_bss>:
      b2:	1e e0       	ldi	r17, 0x0E	; 14
      b4:	ae eb       	ldi	r26, 0xBE	; 190
      b6:	bd e0       	ldi	r27, 0x0D	; 13
      b8:	01 c0       	rjmp	.+2      	; 0xbc <.do_clear_bss_start>

000000ba <.do_clear_bss_loop>:
      ba:	1d 92       	st	X+, r1

000000bc <.do_clear_bss_start>:
      bc:	a9 30       	cpi	r26, 0x09	; 9
      be:	b1 07       	cpc	r27, r17
      c0:	e1 f7       	brne	.-8      	; 0xba <.do_clear_bss_loop>
      c2:	0e 94 9f 13 	call	0x273e	; 0x273e <main>
      c6:	0c 94 d4 1c 	jmp	0x39a8	; 0x39a8 <_exit>

000000ca <__bad_interrupt>:
      ca:	0c 94 00 00 	jmp	0	; 0x0 <__vectors>

000000ce <spiInit>:
// access routines
void spiInit()
{
#ifdef __AVR_ATmega128__
	// setup SPI I/O pins
	sbi(PORTB, 1);	// set SCK hi
      ce:	a8 e3       	ldi	r26, 0x38	; 56
      d0:	b0 e0       	ldi	r27, 0x00	; 0
      d2:	8c 91       	ld	r24, X
      d4:	82 60       	ori	r24, 0x02	; 2
      d6:	8c 93       	st	X, r24
	sbi(DDRB, 1);	// set SCK as output
      d8:	e7 e3       	ldi	r30, 0x37	; 55
      da:	f0 e0       	ldi	r31, 0x00	; 0
      dc:	80 81       	ld	r24, Z
      de:	82 60       	ori	r24, 0x02	; 2
      e0:	80 83       	st	Z, r24
	cbi(DDRB, 3);	// set MISO as input
      e2:	80 81       	ld	r24, Z
      e4:	87 7f       	andi	r24, 0xF7	; 247
      e6:	80 83       	st	Z, r24
	sbi(DDRB, 2);	// set MOSI as output
      e8:	80 81       	ld	r24, Z
      ea:	84 60       	ori	r24, 0x04	; 4
      ec:	80 83       	st	Z, r24
	sbi(DDRB, 0);	// SS must be output for Master mode to work
      ee:	80 81       	ld	r24, Z
      f0:	81 60       	ori	r24, 0x01	; 1
      f2:	80 83       	st	Z, r24
	sbi(PORTB,0);   // set SS hi
      f4:	8c 91       	ld	r24, X
      f6:	81 60       	ori	r24, 0x01	; 1
      f8:	8c 93       	st	X, r24
	sbi(DDRB, 4);	// SS must be output for Master mode to work
#endif
	
	// setup SPI interface :
	// master mode
	sbi(SPCR, MSTR);
      fa:	ed e2       	ldi	r30, 0x2D	; 45
      fc:	f0 e0       	ldi	r31, 0x00	; 0
      fe:	80 81       	ld	r24, Z
     100:	80 61       	ori	r24, 0x10	; 16
     102:	80 83       	st	Z, r24

	cbi(SPCR, SPR0);
     104:	80 81       	ld	r24, Z
     106:	8e 7f       	andi	r24, 0xFE	; 254
     108:	80 83       	st	Z, r24
	sbi(SPCR, SPR1);
     10a:	80 81       	ld	r24, Z
     10c:	82 60       	ori	r24, 0x02	; 2
     10e:	80 83       	st	Z, r24
	// select clock phase positive-going in middle of data
	cbi(SPCR, CPOL);
     110:	80 81       	ld	r24, Z
     112:	87 7f       	andi	r24, 0xF7	; 247
     114:	80 83       	st	Z, r24
	// Data order MSB first
	cbi(SPCR,DORD);
     116:	80 81       	ld	r24, Z
     118:	8f 7d       	andi	r24, 0xDF	; 223
     11a:	80 83       	st	Z, r24
	// enable SPI
	sbi(SPCR, SPE);
     11c:	80 81       	ld	r24, Z
     11e:	80 64       	ori	r24, 0x40	; 64
     120:	80 83       	st	Z, r24
		
	// clear status
	inb(SPSR);
     122:	8e b1       	in	r24, 0x0e	; 14
	spiTransferComplete = TRUE;
     124:	8f ef       	ldi	r24, 0xFF	; 255
     126:	80 93 e0 0d 	sts	0x0DE0, r24

	// enable SPI interrupt
	#ifdef SPI_USEINT
	sbi(SPCR, SPIE);
	#endif
}
     12a:	08 95       	ret

0000012c <spiSendByte>:

void spiSendByte(uchar data)
{
     12c:	28 2f       	mov	r18, r24
	// send a byte over SPI and ignore reply
	#ifdef SPI_USEINT
		while(!spiTransferComplete);
		spiTransferComplete = FALSE;
	#else
		while(!(inb(SPSR) & (1<<SPIF)));
     12e:	ee e2       	ldi	r30, 0x2E	; 46
     130:	f0 e0       	ldi	r31, 0x00	; 0
     132:	80 81       	ld	r24, Z
     134:	88 23       	and	r24, r24
     136:	ec f7       	brge	.-6      	; 0x132 <spiSendByte+0x6>
	#endif

	outb(SPDR, data);
     138:	2f b9       	out	0x0f, r18	; 15
}
     13a:	08 95       	ret

0000013c <spiTransferByte>:
	outb(SPDR, data);
	// wait for transfer to complete
	while(!spiTransferComplete);
	#else
	// send the given data
	outb(SPDR, data);
     13c:	8f b9       	out	0x0f, r24	; 15
	// wait for transfer to complete
	while(!(inb(SPSR) & (1<<SPIF)));
     13e:	ee e2       	ldi	r30, 0x2E	; 46
     140:	f0 e0       	ldi	r31, 0x00	; 0
     142:	80 81       	ld	r24, Z
     144:	88 23       	and	r24, r24
     146:	ec f7       	brge	.-6      	; 0x142 <spiTransferByte+0x6>
	#endif
	// return the received data
	return inb(SPDR);
     148:	8f b1       	in	r24, 0x0f	; 15
}
     14a:	08 95       	ret

0000014c <spiTransferWord>:

uint spiTransferWord(uint data)
{
     14c:	ef 92       	push	r14
     14e:	ff 92       	push	r15
     150:	1f 93       	push	r17
     152:	18 2f       	mov	r17, r24
	uint rxData = 0;

	// send MS byte of given data
	rxData = (spiTransferByte((data>>8) & 0x00FF))<<8;
     154:	89 2f       	mov	r24, r25
     156:	0e 94 9e 00 	call	0x13c	; 0x13c <spiTransferByte>
     15a:	f8 2e       	mov	r15, r24
     15c:	ee 24       	eor	r14, r14
	// send LS byte of given data
	rxData |= (spiTransferByte(data & 0x00FF));
     15e:	81 2f       	mov	r24, r17
     160:	0e 94 9e 00 	call	0x13c	; 0x13c <spiTransferByte>
     164:	90 e0       	ldi	r25, 0x00	; 0
     166:	e8 2a       	or	r14, r24
     168:	f9 2a       	or	r15, r25

	// return the received data
	return rxData;
}
     16a:	8e 2d       	mov	r24, r14
     16c:	9f 2d       	mov	r25, r15
     16e:	1f 91       	pop	r17
     170:	ff 90       	pop	r15
     172:	ef 90       	pop	r14
     174:	08 95       	ret

00000176 <mmcInit>:


void mmcInit(void)
{
	// initialize SPI interface
	spiInit();
     176:	0e 94 67 00 	call	0xce	; 0xce <spiInit>
	// release chip select
	sbi(MMC_CS_DDR, MMC_CS_PIN);
     17a:	e4 e6       	ldi	r30, 0x64	; 100
     17c:	f0 e0       	ldi	r31, 0x00	; 0
     17e:	80 81       	ld	r24, Z
     180:	88 60       	ori	r24, 0x08	; 8
     182:	80 83       	st	Z, r24
	sbi(MMC_CS_PORT,MMC_CS_PIN);
     184:	e5 e6       	ldi	r30, 0x65	; 101
     186:	f0 e0       	ldi	r31, 0x00	; 0
     188:	80 81       	ld	r24, Z
     18a:	88 60       	ori	r24, 0x08	; 8
     18c:	80 83       	st	Z, r24
}
     18e:	08 95       	ret

00000190 <mmcCommand>:
	// return success
	return 0;
}

u08 mmcCommand(u08 cmd, u32 arg)
{
     190:	ef 92       	push	r14
     192:	ff 92       	push	r15
     194:	0f 93       	push	r16
     196:	1f 93       	push	r17
     198:	7a 01       	movw	r14, r20
     19a:	8b 01       	movw	r16, r22
	u08 r1;
	u08 retry=0;
	// send command
	spiTransferByte(cmd | 0x40);
     19c:	80 64       	ori	r24, 0x40	; 64
     19e:	0e 94 9e 00 	call	0x13c	; 0x13c <spiTransferByte>
	spiTransferByte(arg>>24);
     1a2:	81 2f       	mov	r24, r17
     1a4:	99 27       	eor	r25, r25
     1a6:	aa 27       	eor	r26, r26
     1a8:	bb 27       	eor	r27, r27
     1aa:	0e 94 9e 00 	call	0x13c	; 0x13c <spiTransferByte>
	spiTransferByte(arg>>16);
     1ae:	c8 01       	movw	r24, r16
     1b0:	aa 27       	eor	r26, r26
     1b2:	bb 27       	eor	r27, r27
     1b4:	0e 94 9e 00 	call	0x13c	; 0x13c <spiTransferByte>
	spiTransferByte(arg>>8);
     1b8:	bb 27       	eor	r27, r27
     1ba:	a1 2f       	mov	r26, r17
     1bc:	90 2f       	mov	r25, r16
     1be:	8f 2d       	mov	r24, r15
     1c0:	0e 94 9e 00 	call	0x13c	; 0x13c <spiTransferByte>
	spiTransferByte(arg);
     1c4:	8e 2d       	mov	r24, r14
     1c6:	0e 94 9e 00 	call	0x13c	; 0x13c <spiTransferByte>
	spiTransferByte(0x95);	// crc valid only for MMC_GO_IDLE_STATE
     1ca:	85 e9       	ldi	r24, 0x95	; 149
     1cc:	0e 94 9e 00 	call	0x13c	; 0x13c <spiTransferByte>
     1d0:	10 e0       	ldi	r17, 0x00	; 0
     1d2:	03 c0       	rjmp	.+6      	; 0x1da <mmcCommand+0x4a>
	// end command
	// wait for response
	// if more than 8 retries, card has timed-out
	// return the received 0xFF
	while((r1 = spiTransferByte(0xFF)) == 0xFF)
		if(retry++ > 8) break;
     1d4:	19 30       	cpi	r17, 0x09	; 9
     1d6:	31 f0       	breq	.+12     	; 0x1e4 <mmcCommand+0x54>
     1d8:	1f 5f       	subi	r17, 0xFF	; 255
	spiTransferByte(0x95);	// crc valid only for MMC_GO_IDLE_STATE
	// end command
	// wait for response
	// if more than 8 retries, card has timed-out
	// return the received 0xFF
	while((r1 = spiTransferByte(0xFF)) == 0xFF)
     1da:	8f ef       	ldi	r24, 0xFF	; 255
     1dc:	0e 94 9e 00 	call	0x13c	; 0x13c <spiTransferByte>
     1e0:	8f 3f       	cpi	r24, 0xFF	; 255
     1e2:	c1 f3       	breq	.-16     	; 0x1d4 <mmcCommand+0x44>
		if(retry++ > 8) break;
	// return response
	return r1;
}
     1e4:	1f 91       	pop	r17
     1e6:	0f 91       	pop	r16
     1e8:	ff 90       	pop	r15
     1ea:	ef 90       	pop	r14
     1ec:	08 95       	ret

000001ee <mmcWrite>:
	// return success
	return 0;
}

u08 mmcWrite(u32 sector, u08* buffer)
{
     1ee:	ef 92       	push	r14
     1f0:	ff 92       	push	r15
     1f2:	0f 93       	push	r16
     1f4:	1f 93       	push	r17
     1f6:	cf 93       	push	r28
     1f8:	df 93       	push	r29
     1fa:	8b 01       	movw	r16, r22
     1fc:	9c 01       	movw	r18, r24
     1fe:	7a 01       	movw	r14, r20
	u08 r1;
	u16 i;

	// assert chip select
	cbi(MMC_CS_PORT,MMC_CS_PIN);
     200:	e5 e6       	ldi	r30, 0x65	; 101
     202:	f0 e0       	ldi	r31, 0x00	; 0
     204:	80 81       	ld	r24, Z
     206:	87 7f       	andi	r24, 0xF7	; 247
     208:	80 83       	st	Z, r24
	// issue command
	r1 = mmcCommand(MMC_WRITE_BLOCK, sector<<9);
     20a:	0f 2e       	mov	r0, r31
     20c:	f9 e0       	ldi	r31, 0x09	; 9
     20e:	00 0f       	add	r16, r16
     210:	11 1f       	adc	r17, r17
     212:	22 1f       	adc	r18, r18
     214:	33 1f       	adc	r19, r19
     216:	fa 95       	dec	r31
     218:	d1 f7       	brne	.-12     	; 0x20e <mmcWrite+0x20>
     21a:	f0 2d       	mov	r31, r0
     21c:	88 e1       	ldi	r24, 0x18	; 24
     21e:	b9 01       	movw	r22, r18
     220:	a8 01       	movw	r20, r16
     222:	0e 94 c8 00 	call	0x190	; 0x190 <mmcCommand>
     226:	08 2f       	mov	r16, r24
	#ifdef MMC_DEBUG
	rprintf("MMC Write Block R1=0x%x\r\n", r1);
	#endif
	// check for valid response
	if(r1 != 0x00)
     228:	88 23       	and	r24, r24
     22a:	11 f0       	breq	.+4      	; 0x230 <mmcWrite+0x42>
     22c:	98 2f       	mov	r25, r24
     22e:	29 c0       	rjmp	.+82     	; 0x282 <mmcWrite+0x94>
		return r1;
	// send dummy
	spiTransferByte(0xFF);
     230:	8f ef       	ldi	r24, 0xFF	; 255
     232:	0e 94 9e 00 	call	0x13c	; 0x13c <spiTransferByte>
	// send data start token
	spiTransferByte(MMC_STARTBLOCK_WRITE);
     236:	8e ef       	ldi	r24, 0xFE	; 254
     238:	0e 94 9e 00 	call	0x13c	; 0x13c <spiTransferByte>
     23c:	c0 e0       	ldi	r28, 0x00	; 0
     23e:	d0 e0       	ldi	r29, 0x00	; 0
	// write data
	for(i=0; i<0x200; i++)
	{
		spiTransferByte(*buffer);
     240:	f7 01       	movw	r30, r14
     242:	80 81       	ld	r24, Z
     244:	0e 94 9e 00 	call	0x13c	; 0x13c <spiTransferByte>
	// send dummy
	spiTransferByte(0xFF);
	// send data start token
	spiTransferByte(MMC_STARTBLOCK_WRITE);
	// write data
	for(i=0; i<0x200; i++)
     248:	21 96       	adiw	r28, 0x01	; 1
     24a:	f2 e0       	ldi	r31, 0x02	; 2
     24c:	c0 30       	cpi	r28, 0x00	; 0
     24e:	df 07       	cpc	r29, r31
     250:	b9 f7       	brne	.-18     	; 0x240 <mmcWrite+0x52>
	{
		spiTransferByte(*buffer);
	}
	// write 16-bit CRC (dummy values)
	spiTransferByte(0xFF);
     252:	8f ef       	ldi	r24, 0xFF	; 255
     254:	0e 94 9e 00 	call	0x13c	; 0x13c <spiTransferByte>
	spiTransferByte(0xFF);
     258:	8f ef       	ldi	r24, 0xFF	; 255
     25a:	0e 94 9e 00 	call	0x13c	; 0x13c <spiTransferByte>
	// read data response token
	r1 = spiTransferByte(0xFF);
     25e:	8f ef       	ldi	r24, 0xFF	; 255
     260:	0e 94 9e 00 	call	0x13c	; 0x13c <spiTransferByte>
     264:	98 2f       	mov	r25, r24
	if( (r1&MMC_DR_MASK) != MMC_DR_ACCEPT)
     266:	8f 71       	andi	r24, 0x1F	; 31
     268:	85 30       	cpi	r24, 0x05	; 5
     26a:	59 f4       	brne	.+22     	; 0x282 <mmcWrite+0x94>
		return r1;
	#ifdef MMC_DEBUG
	rprintf("Data Response Token=0x%x\r\n", r1);
	#endif
	// wait until card not busy
	while(!spiTransferByte(0xFF));
     26c:	8f ef       	ldi	r24, 0xFF	; 255
     26e:	0e 94 9e 00 	call	0x13c	; 0x13c <spiTransferByte>
     272:	88 23       	and	r24, r24
     274:	d9 f3       	breq	.-10     	; 0x26c <mmcWrite+0x7e>
	// release chip select
	sbi(MMC_CS_PORT,MMC_CS_PIN);
     276:	e5 e6       	ldi	r30, 0x65	; 101
     278:	f0 e0       	ldi	r31, 0x00	; 0
     27a:	80 81       	ld	r24, Z
     27c:	88 60       	ori	r24, 0x08	; 8
     27e:	80 83       	st	Z, r24
     280:	90 2f       	mov	r25, r16
	// return success
	return 0;
}
     282:	89 2f       	mov	r24, r25
     284:	df 91       	pop	r29
     286:	cf 91       	pop	r28
     288:	1f 91       	pop	r17
     28a:	0f 91       	pop	r16
     28c:	ff 90       	pop	r15
     28e:	ef 90       	pop	r14
     290:	08 95       	ret

00000292 <mmcRead>:

	return r1;
}

u08 mmcRead(u32 sector, u08* buffer)
{
     292:	cf 92       	push	r12
     294:	df 92       	push	r13
     296:	ef 92       	push	r14
     298:	ff 92       	push	r15
     29a:	0f 93       	push	r16
     29c:	1f 93       	push	r17
     29e:	cf 93       	push	r28
     2a0:	df 93       	push	r29
     2a2:	6b 01       	movw	r12, r22
     2a4:	7c 01       	movw	r14, r24
     2a6:	8a 01       	movw	r16, r20
	u08 r1;
	u16 i;

	// assert chip select
	cbi(MMC_CS_PORT,MMC_CS_PIN);
     2a8:	e5 e6       	ldi	r30, 0x65	; 101
     2aa:	f0 e0       	ldi	r31, 0x00	; 0
     2ac:	80 81       	ld	r24, Z
     2ae:	87 7f       	andi	r24, 0xF7	; 247
     2b0:	80 83       	st	Z, r24
     2b2:	c0 e0       	ldi	r28, 0x00	; 0
     2b4:	d0 e0       	ldi	r29, 0x00	; 0
	for(i=0;i<10;i++) spiTransferByte(0xFF);
     2b6:	8f ef       	ldi	r24, 0xFF	; 255
     2b8:	0e 94 9e 00 	call	0x13c	; 0x13c <spiTransferByte>
     2bc:	21 96       	adiw	r28, 0x01	; 1
     2be:	ca 30       	cpi	r28, 0x0A	; 10
     2c0:	d1 05       	cpc	r29, r1
     2c2:	c9 f7       	brne	.-14     	; 0x2b6 <mmcRead+0x24>
	// issue command
	r1 = mmcCommand(MMC_READ_SINGLE_BLOCK, sector<<9);
     2c4:	b7 01       	movw	r22, r14
     2c6:	a6 01       	movw	r20, r12
     2c8:	03 2e       	mov	r0, r19
     2ca:	39 e0       	ldi	r19, 0x09	; 9
     2cc:	44 0f       	add	r20, r20
     2ce:	55 1f       	adc	r21, r21
     2d0:	66 1f       	adc	r22, r22
     2d2:	77 1f       	adc	r23, r23
     2d4:	3a 95       	dec	r19
     2d6:	d1 f7       	brne	.-12     	; 0x2cc <mmcRead+0x3a>
     2d8:	30 2d       	mov	r19, r0
     2da:	81 e1       	ldi	r24, 0x11	; 17
     2dc:	0e 94 c8 00 	call	0x190	; 0x190 <mmcCommand>
     2e0:	f8 2e       	mov	r15, r24
	#ifdef MMC_DEBUG
	rprintf("MMC Read Block R1=0x%x\r\n", r1);
	#endif
	// check for valid response
	if(r1 != 0x00)
     2e2:	88 23       	and	r24, r24
     2e4:	e9 f4       	brne	.+58     	; 0x320 <mmcRead+0x8e>
		return r1;
	// wait for block start
	while(spiTransferByte(0xFF) != MMC_STARTBLOCK_READ);
     2e6:	8f ef       	ldi	r24, 0xFF	; 255
     2e8:	0e 94 9e 00 	call	0x13c	; 0x13c <spiTransferByte>
     2ec:	8e 3f       	cpi	r24, 0xFE	; 254
     2ee:	d9 f7       	brne	.-10     	; 0x2e6 <mmcRead+0x54>
     2f0:	c0 e0       	ldi	r28, 0x00	; 0
     2f2:	d0 e0       	ldi	r29, 0x00	; 0
	// read in data
	for(i=0; i<0x200; i++)
	{
		*buffer++ =spiTransferByte(0xFF);
     2f4:	8f ef       	ldi	r24, 0xFF	; 255
     2f6:	0e 94 9e 00 	call	0x13c	; 0x13c <spiTransferByte>
     2fa:	f8 01       	movw	r30, r16
     2fc:	81 93       	st	Z+, r24
     2fe:	8f 01       	movw	r16, r30
	if(r1 != 0x00)
		return r1;
	// wait for block start
	while(spiTransferByte(0xFF) != MMC_STARTBLOCK_READ);
	// read in data
	for(i=0; i<0x200; i++)
     300:	21 96       	adiw	r28, 0x01	; 1
     302:	f2 e0       	ldi	r31, 0x02	; 2
     304:	c0 30       	cpi	r28, 0x00	; 0
     306:	df 07       	cpc	r29, r31
     308:	a9 f7       	brne	.-22     	; 0x2f4 <mmcRead+0x62>
	{
		*buffer++ =spiTransferByte(0xFF);
	}
	// read 16-bit CRC
	spiTransferByte(0xFF);
     30a:	8f ef       	ldi	r24, 0xFF	; 255
     30c:	0e 94 9e 00 	call	0x13c	; 0x13c <spiTransferByte>
	spiTransferByte(0xFF);
     310:	8f ef       	ldi	r24, 0xFF	; 255
     312:	0e 94 9e 00 	call	0x13c	; 0x13c <spiTransferByte>
	// release chip select
	sbi(MMC_CS_PORT,MMC_CS_PIN);
     316:	e5 e6       	ldi	r30, 0x65	; 101
     318:	f0 e0       	ldi	r31, 0x00	; 0
     31a:	80 81       	ld	r24, Z
     31c:	88 60       	ori	r24, 0x08	; 8
     31e:	80 83       	st	Z, r24
	// return success
	return 0;
}
     320:	8f 2d       	mov	r24, r15
     322:	df 91       	pop	r29
     324:	cf 91       	pop	r28
     326:	1f 91       	pop	r17
     328:	0f 91       	pop	r16
     32a:	ff 90       	pop	r15
     32c:	ef 90       	pop	r14
     32e:	df 90       	pop	r13
     330:	cf 90       	pop	r12
     332:	08 95       	ret

00000334 <mmcSendCommand>:
	// return success
	return 0;
}

u08 mmcSendCommand(u08 cmd, u32 arg)
{
     334:	0f 93       	push	r16
     336:	1f 93       	push	r17
	u08 r1;

	// assert chip select
	cbi(MMC_CS_PORT,MMC_CS_PIN);
     338:	05 e6       	ldi	r16, 0x65	; 101
     33a:	10 e0       	ldi	r17, 0x00	; 0
     33c:	f8 01       	movw	r30, r16
     33e:	90 81       	ld	r25, Z
     340:	97 7f       	andi	r25, 0xF7	; 247
     342:	90 83       	st	Z, r25
	// issue the command
	r1 = mmcCommand(cmd, arg);
     344:	0e 94 c8 00 	call	0x190	; 0x190 <mmcCommand>
	// release chip select
	sbi(MMC_CS_PORT,MMC_CS_PIN);
     348:	f8 01       	movw	r30, r16
     34a:	90 81       	ld	r25, Z
     34c:	98 60       	ori	r25, 0x08	; 8
     34e:	90 83       	st	Z, r25

	return r1;
}
     350:	1f 91       	pop	r17
     352:	0f 91       	pop	r16
     354:	08 95       	ret

00000356 <mmcReset>:
	sbi(MMC_CS_DDR, MMC_CS_PIN);
	sbi(MMC_CS_PORT,MMC_CS_PIN);
}

u08 mmcReset(void)
{
     356:	ff 92       	push	r15
     358:	0f 93       	push	r16
     35a:	1f 93       	push	r17
     35c:	00 e0       	ldi	r16, 0x00	; 0
     35e:	ff 24       	eor	r15, r15
     360:	1f 2d       	mov	r17, r15

	retry = 0;
	do
	{
		// send dummy bytes with CS high before accessing
		for(i=0;i<10;i++) spiTransferByte(0xFF);
     362:	8f ef       	ldi	r24, 0xFF	; 255
     364:	0e 94 9e 00 	call	0x13c	; 0x13c <spiTransferByte>
     368:	1f 5f       	subi	r17, 0xFF	; 255
     36a:	1a 30       	cpi	r17, 0x0A	; 10
     36c:	d1 f7       	brne	.-12     	; 0x362 <mmcReset+0xc>
		// resetting card, go to SPI mode
		r1 = mmcSendCommand(MMC_GO_IDLE_STATE, 0);
     36e:	8f 2d       	mov	r24, r15
     370:	40 e0       	ldi	r20, 0x00	; 0
     372:	50 e0       	ldi	r21, 0x00	; 0
     374:	60 e0       	ldi	r22, 0x00	; 0
     376:	70 e0       	ldi	r23, 0x00	; 0
     378:	0e 94 9a 01 	call	0x334	; 0x334 <mmcSendCommand>
		#ifdef MMC_DEBUG
		rprintf("MMC_GO_IDLE_STATE: R1=0x%x\r\n", r1);
		#endif
		// do retry counter
		retry++;
     37c:	0f 5f       	subi	r16, 0xFF	; 255
		if(retry>10) return -1;
     37e:	0b 30       	cpi	r16, 0x0B	; 11
     380:	01 f1       	breq	.+64     	; 0x3c2 <mmcReset+0x6c>
	} while(r1 != 0x01);
     382:	81 30       	cpi	r24, 0x01	; 1
     384:	69 f7       	brne	.-38     	; 0x360 <mmcReset+0xa>
     386:	22 c0       	rjmp	.+68     	; 0x3cc <mmcReset+0x76>
     388:	11 e0       	ldi	r17, 0x01	; 1

	retry = 0;
	do
	{
		// initializing card for operation
		r1 = mmcSendCommand(MMC_SEND_OP_COND, 0);
     38a:	81 e0       	ldi	r24, 0x01	; 1
     38c:	40 e0       	ldi	r20, 0x00	; 0
     38e:	50 e0       	ldi	r21, 0x00	; 0
     390:	60 e0       	ldi	r22, 0x00	; 0
     392:	70 e0       	ldi	r23, 0x00	; 0
     394:	0e 94 9a 01 	call	0x334	; 0x334 <mmcSendCommand>
		#ifdef MMC_DEBUG
		rprintf("MMC_SEND_OP_COND: R1=0x%x\r\n", r1);
		#endif
		// do retry counter
		retry++;
     398:	1f 5f       	subi	r17, 0xFF	; 255
		if(retry>100) return -1;
     39a:	15 36       	cpi	r17, 0x65	; 101
     39c:	91 f0       	breq	.+36     	; 0x3c2 <mmcReset+0x6c>
	} while(r1);
     39e:	88 23       	and	r24, r24
     3a0:	a1 f7       	brne	.-24     	; 0x38a <mmcReset+0x34>
		
	// turn off CRC checking to simplify communication
	r1 = mmcSendCommand(MMC_CRC_ON_OFF, 0);
     3a2:	8b e3       	ldi	r24, 0x3B	; 59
     3a4:	40 e0       	ldi	r20, 0x00	; 0
     3a6:	50 e0       	ldi	r21, 0x00	; 0
     3a8:	60 e0       	ldi	r22, 0x00	; 0
     3aa:	70 e0       	ldi	r23, 0x00	; 0
     3ac:	0e 94 9a 01 	call	0x334	; 0x334 <mmcSendCommand>
	#ifdef MMC_DEBUG
	rprintf("MMC_CRC_ON_OFF: R1=0x%x\r\n", r1);
	#endif

	// set block length to 512 bytes
	r1 = mmcSendCommand(MMC_SET_BLOCKLEN, 512);
     3b0:	80 e1       	ldi	r24, 0x10	; 16
     3b2:	40 e0       	ldi	r20, 0x00	; 0
     3b4:	52 e0       	ldi	r21, 0x02	; 2
     3b6:	60 e0       	ldi	r22, 0x00	; 0
     3b8:	70 e0       	ldi	r23, 0x00	; 0
     3ba:	0e 94 9a 01 	call	0x334	; 0x334 <mmcSendCommand>
     3be:	80 e0       	ldi	r24, 0x00	; 0
     3c0:	01 c0       	rjmp	.+2      	; 0x3c4 <mmcReset+0x6e>
	#ifdef MMC_DEBUG
	rprintf("MMC_SET_BLOCKLEN: R1=0x%x\r\n", r1);
	#endif

	// return success
	return 0;
     3c2:	8f ef       	ldi	r24, 0xFF	; 255
}
     3c4:	1f 91       	pop	r17
     3c6:	0f 91       	pop	r16
     3c8:	ff 90       	pop	r15
     3ca:	08 95       	ret

	retry = 0;
	do
	{
		// initializing card for operation
		r1 = mmcSendCommand(MMC_SEND_OP_COND, 0);
     3cc:	81 e0       	ldi	r24, 0x01	; 1
     3ce:	40 e0       	ldi	r20, 0x00	; 0
     3d0:	50 e0       	ldi	r21, 0x00	; 0
     3d2:	60 e0       	ldi	r22, 0x00	; 0
     3d4:	70 e0       	ldi	r23, 0x00	; 0
     3d6:	0e 94 9a 01 	call	0x334	; 0x334 <mmcSendCommand>
		rprintf("MMC_SEND_OP_COND: R1=0x%x\r\n", r1);
		#endif
		// do retry counter
		retry++;
		if(retry>100) return -1;
	} while(r1);
     3da:	88 23       	and	r24, r24
     3dc:	a9 f6       	brne	.-86     	; 0x388 <mmcReset+0x32>
     3de:	e1 cf       	rjmp	.-62     	; 0x3a2 <mmcReset+0x4c>

000003e0 <MMC_SD_ReadCapacity>:
	return r1;
}


u32 MMC_SD_ReadCapacity()
{
     3e0:	ef 92       	push	r14
     3e2:	ff 92       	push	r15
     3e4:	0f 93       	push	r16
     3e6:	1f 93       	push	r17
     3e8:	df 93       	push	r29
     3ea:	cf 93       	push	r28
     3ec:	cd b7       	in	r28, 0x3d	; 61
     3ee:	de b7       	in	r29, 0x3e	; 62
     3f0:	60 97       	sbiw	r28, 0x10	; 16
     3f2:	0f b6       	in	r0, 0x3f	; 63
     3f4:	f8 94       	cli
     3f6:	de bf       	out	0x3e, r29	; 62
     3f8:	0f be       	out	0x3f, r0	; 63
     3fa:	cd bf       	out	0x3d, r28	; 61
	u08 buffer[16];
	u32 Capacity;
	u16 retry =0;
	//uint8 retry=0;

	r1 = mmcSendCommand(9, 0);//写命令	//send command  //READ CSD
     3fc:	89 e0       	ldi	r24, 0x09	; 9
     3fe:	40 e0       	ldi	r20, 0x00	; 0
     400:	50 e0       	ldi	r21, 0x00	; 0
     402:	60 e0       	ldi	r22, 0x00	; 0
     404:	70 e0       	ldi	r23, 0x00	; 0
     406:	0e 94 9a 01 	call	0x334	; 0x334 <mmcSendCommand>
	if(r1 != 0x00)
     40a:	88 23       	and	r24, r24
     40c:	29 f0       	breq	.+10     	; 0x418 <MMC_SD_ReadCapacity+0x38>
		return r1;
     40e:	28 2f       	mov	r18, r24
     410:	30 e0       	ldi	r19, 0x00	; 0
     412:	40 e0       	ldi	r20, 0x00	; 0
     414:	50 e0       	ldi	r21, 0x00	; 0
     416:	84 c0       	rjmp	.+264    	; 0x520 <MMC_SD_ReadCapacity+0x140>

	cbi(MMC_CS_PORT,MMC_CS_PIN);
     418:	e5 e6       	ldi	r30, 0x65	; 101
     41a:	f0 e0       	ldi	r31, 0x00	; 0
     41c:	80 81       	ld	r24, Z
     41e:	87 7f       	andi	r24, 0xF7	; 247
     420:	80 83       	st	Z, r24
     422:	00 e0       	ldi	r16, 0x00	; 0
     424:	10 e0       	ldi	r17, 0x00	; 0
     426:	0d c0       	rjmp	.+26     	; 0x442 <MMC_SD_ReadCapacity+0x62>
	while(spiTransferByte(0xff) != 0xfe)if(retry++ > 0xfffe){sbi(MMC_CS_PORT,MMC_CS_PIN);return 1;}
     428:	01 50       	subi	r16, 0x01	; 1
     42a:	10 40       	sbci	r17, 0x00	; 0
     42c:	51 f4       	brne	.+20     	; 0x442 <MMC_SD_ReadCapacity+0x62>
     42e:	e5 e6       	ldi	r30, 0x65	; 101
     430:	f0 e0       	ldi	r31, 0x00	; 0
     432:	80 81       	ld	r24, Z
     434:	88 60       	ori	r24, 0x08	; 8
     436:	80 83       	st	Z, r24
     438:	21 e0       	ldi	r18, 0x01	; 1
     43a:	30 e0       	ldi	r19, 0x00	; 0
     43c:	40 e0       	ldi	r20, 0x00	; 0
     43e:	50 e0       	ldi	r21, 0x00	; 0
     440:	6f c0       	rjmp	.+222    	; 0x520 <MMC_SD_ReadCapacity+0x140>
     442:	8f ef       	ldi	r24, 0xFF	; 255
     444:	0e 94 9e 00 	call	0x13c	; 0x13c <spiTransferByte>
     448:	8e 3f       	cpi	r24, 0xFE	; 254
     44a:	71 f7       	brne	.-36     	; 0x428 <MMC_SD_ReadCapacity+0x48>
     44c:	8e 01       	movw	r16, r28
     44e:	0f 5f       	subi	r16, 0xFF	; 255
     450:	1f 4f       	sbci	r17, 0xFF	; 255

	
	for(i=0;i<16;i++)
     452:	0f 2e       	mov	r0, r31
     454:	f1 e1       	ldi	r31, 0x11	; 17
     456:	ef 2e       	mov	r14, r31
     458:	ff 24       	eor	r15, r15
     45a:	f0 2d       	mov	r31, r0
     45c:	ec 0e       	add	r14, r28
     45e:	fd 1e       	adc	r15, r29
	{
		buffer[i]=spiTransferByte(0xff);
     460:	8f ef       	ldi	r24, 0xFF	; 255
     462:	0e 94 9e 00 	call	0x13c	; 0x13c <spiTransferByte>
     466:	f8 01       	movw	r30, r16
     468:	81 93       	st	Z+, r24
     46a:	8f 01       	movw	r16, r30

	cbi(MMC_CS_PORT,MMC_CS_PIN);
	while(spiTransferByte(0xff) != 0xfe)if(retry++ > 0xfffe){sbi(MMC_CS_PORT,MMC_CS_PIN);return 1;}

	
	for(i=0;i<16;i++)
     46c:	ee 15       	cp	r30, r14
     46e:	ff 05       	cpc	r31, r15
     470:	b9 f7       	brne	.-18     	; 0x460 <MMC_SD_ReadCapacity+0x80>
	{
		buffer[i]=spiTransferByte(0xff);
	}	

	spiTransferByte(0xff);
     472:	8f ef       	ldi	r24, 0xFF	; 255
     474:	0e 94 9e 00 	call	0x13c	; 0x13c <spiTransferByte>
	spiTransferByte(0xff);
     478:	8f ef       	ldi	r24, 0xFF	; 255
     47a:	0e 94 9e 00 	call	0x13c	; 0x13c <spiTransferByte>
	
	spiTransferByte(0xff);
     47e:	8f ef       	ldi	r24, 0xFF	; 255
     480:	0e 94 9e 00 	call	0x13c	; 0x13c <spiTransferByte>
	
	sbi(MMC_CS_PORT,MMC_CS_PIN);
     484:	e5 e6       	ldi	r30, 0x65	; 101
     486:	f0 e0       	ldi	r31, 0x00	; 0
     488:	80 81       	ld	r24, Z
     48a:	88 60       	ori	r24, 0x08	; 8
     48c:	80 83       	st	Z, r24

	spiTransferByte(0xff);// extra 8 CLK
     48e:	8f ef       	ldi	r24, 0xFF	; 255
     490:	0e 94 9e 00 	call	0x13c	; 0x13c <spiTransferByte>

/*********************************/
//	C_SIZE
	i = buffer[6]&0x03;
     494:	ef 81       	ldd	r30, Y+7	; 0x07
	i<<=8;
	i += buffer[7];
     496:	38 85       	ldd	r19, Y+8	; 0x08
	i<<=2;
	i += ((buffer[8]&0xc0)>>6);
     498:	29 85       	ldd	r18, Y+9	; 0x09

/**********************************/
//  C_SIZE_MULT

	r1 = buffer[9]&0x03;
     49a:	9a 85       	ldd	r25, Y+10	; 0x0a
     49c:	93 70       	andi	r25, 0x03	; 3
	r1<<=1;
     49e:	99 0f       	add	r25, r25
	r1 += ((buffer[10]&0x80)>>7);
     4a0:	8b 85       	ldd	r24, Y+11	; 0x0b
     4a2:	88 1f       	adc	r24, r24
     4a4:	88 27       	eor	r24, r24
     4a6:	88 1f       	adc	r24, r24
     4a8:	8e 5f       	subi	r24, 0xFE	; 254


/**********************************/
// BLOCKNR

	r1+=2;
     4aa:	89 0f       	add	r24, r25

	temp = 1;
	while(r1)
     4ac:	19 f4       	brne	.+6      	; 0x4b4 <MMC_SD_ReadCapacity+0xd4>
     4ae:	61 e0       	ldi	r22, 0x01	; 1
     4b0:	70 e0       	ldi	r23, 0x00	; 0
     4b2:	06 c0       	rjmp	.+12     	; 0x4c0 <MMC_SD_ReadCapacity+0xe0>
     4b4:	61 e0       	ldi	r22, 0x01	; 1
     4b6:	70 e0       	ldi	r23, 0x00	; 0
	{
		temp*=2;
     4b8:	66 0f       	add	r22, r22
     4ba:	77 1f       	adc	r23, r23
		r1--;
     4bc:	81 50       	subi	r24, 0x01	; 1
// BLOCKNR

	r1+=2;

	temp = 1;
	while(r1)
     4be:	e1 f7       	brne	.-8      	; 0x4b8 <MMC_SD_ReadCapacity+0xd8>
	Capacity = ((u32)(i+1))*((u32)temp);

/////////////////////////
// READ_BL_LEN

	i = buffer[5]&0x0f;
     4c0:	8e 81       	ldd	r24, Y+6	; 0x06
     4c2:	90 e0       	ldi	r25, 0x00	; 0
     4c4:	8f 70       	andi	r24, 0x0F	; 15
     4c6:	90 70       	andi	r25, 0x00	; 0

/*************************/
//BLOCK_LEN

	temp = 1;
	while(i)
     4c8:	00 97       	sbiw	r24, 0x00	; 0
     4ca:	19 f4       	brne	.+6      	; 0x4d2 <MMC_SD_ReadCapacity+0xf2>
     4cc:	01 e0       	ldi	r16, 0x01	; 1
     4ce:	10 e0       	ldi	r17, 0x00	; 0
     4d0:	06 c0       	rjmp	.+12     	; 0x4de <MMC_SD_ReadCapacity+0xfe>
     4d2:	01 e0       	ldi	r16, 0x01	; 1
     4d4:	10 e0       	ldi	r17, 0x00	; 0
	{
		temp*=2;
     4d6:	00 0f       	add	r16, r16
     4d8:	11 1f       	adc	r17, r17
		i--;
     4da:	01 97       	sbiw	r24, 0x01	; 1

/*************************/
//BLOCK_LEN

	temp = 1;
	while(i)
     4dc:	e1 f7       	brne	.-8      	; 0x4d6 <MMC_SD_ReadCapacity+0xf6>

	spiTransferByte(0xff);// extra 8 CLK

/*********************************/
//	C_SIZE
	i = buffer[6]&0x03;
     4de:	f0 e0       	ldi	r31, 0x00	; 0
     4e0:	e3 70       	andi	r30, 0x03	; 3
     4e2:	f0 70       	andi	r31, 0x00	; 0
	i<<=8;
     4e4:	fe 2f       	mov	r31, r30
     4e6:	ee 27       	eor	r30, r30
	i += buffer[7];
     4e8:	e3 0f       	add	r30, r19
     4ea:	f1 1d       	adc	r31, r1
	{
		temp*=2;
		r1--;
	}
	
	Capacity = ((u32)(i+1))*((u32)temp);
     4ec:	80 e0       	ldi	r24, 0x00	; 0
     4ee:	90 e0       	ldi	r25, 0x00	; 0
     4f0:	22 95       	swap	r18
     4f2:	26 95       	lsr	r18
     4f4:	26 95       	lsr	r18
     4f6:	23 70       	andi	r18, 0x03	; 3
     4f8:	30 e0       	ldi	r19, 0x00	; 0
     4fa:	2f 5f       	subi	r18, 0xFF	; 255
     4fc:	3f 4f       	sbci	r19, 0xFF	; 255
     4fe:	ee 0f       	add	r30, r30
     500:	ff 1f       	adc	r31, r31
     502:	ee 0f       	add	r30, r30
     504:	ff 1f       	adc	r31, r31
     506:	2e 0f       	add	r18, r30
     508:	3f 1f       	adc	r19, r31
     50a:	40 e0       	ldi	r20, 0x00	; 0
     50c:	50 e0       	ldi	r21, 0x00	; 0
     50e:	0e 94 2e 1b 	call	0x365c	; 0x365c <__mulsi3>
//	BLOCK_LEN = 2
/**********************************************/

//The final result
	
	Capacity *= (u32)temp;	 
     512:	98 01       	movw	r18, r16
     514:	40 e0       	ldi	r20, 0x00	; 0
     516:	50 e0       	ldi	r21, 0x00	; 0
     518:	0e 94 2e 1b 	call	0x365c	; 0x365c <__mulsi3>
     51c:	9b 01       	movw	r18, r22
     51e:	ac 01       	movw	r20, r24
	return Capacity;		
}
     520:	62 2f       	mov	r22, r18
     522:	73 2f       	mov	r23, r19
     524:	84 2f       	mov	r24, r20
     526:	95 2f       	mov	r25, r21
     528:	60 96       	adiw	r28, 0x10	; 16
     52a:	0f b6       	in	r0, 0x3f	; 63
     52c:	f8 94       	cli
     52e:	de bf       	out	0x3e, r29	; 62
     530:	0f be       	out	0x3f, r0	; 63
     532:	cd bf       	out	0x3d, r28	; 61
     534:	cf 91       	pop	r28
     536:	df 91       	pop	r29
     538:	1f 91       	pop	r17
     53a:	0f 91       	pop	r16
     53c:	ff 90       	pop	r15
     53e:	ef 90       	pop	r14
     540:	08 95       	ret

00000542 <FAT_LoadPartCluster>:
}

//读一个簇中的一个扇区
//read one sector of one cluster, parameter part indicate which sector
unsigned char FAT_LoadPartCluster(unsigned long cluster,unsigned part,BYTE * buffer)
{
     542:	cf 92       	push	r12
     544:	df 92       	push	r13
     546:	ef 92       	push	r14
     548:	ff 92       	push	r15
     54a:	0f 93       	push	r16
     54c:	1f 93       	push	r17
     54e:	7a 01       	movw	r14, r20
     550:	69 01       	movw	r12, r18
	DWORD sector;
	sector=FirstDataSector+(DWORD)(cluster-2)*(DWORD)SectorsPerClust;//calculate the actual sector number
	if(FAT_ReadSector(sector+part,buffer))return 1;
     552:	62 50       	subi	r22, 0x02	; 2
     554:	70 40       	sbci	r23, 0x00	; 0
     556:	80 40       	sbci	r24, 0x00	; 0
     558:	90 40       	sbci	r25, 0x00	; 0
     55a:	20 91 d2 0d 	lds	r18, 0x0DD2
     55e:	30 91 d3 0d 	lds	r19, 0x0DD3
     562:	40 e0       	ldi	r20, 0x00	; 0
     564:	50 e0       	ldi	r21, 0x00	; 0
     566:	0e 94 2e 1b 	call	0x365c	; 0x365c <__mulsi3>
     56a:	00 e0       	ldi	r16, 0x00	; 0
     56c:	10 e0       	ldi	r17, 0x00	; 0
     56e:	6e 0d       	add	r22, r14
     570:	7f 1d       	adc	r23, r15
     572:	80 1f       	adc	r24, r16
     574:	91 1f       	adc	r25, r17
     576:	20 91 dc 0d 	lds	r18, 0x0DDC
     57a:	30 91 dd 0d 	lds	r19, 0x0DDD
     57e:	40 91 de 0d 	lds	r20, 0x0DDE
     582:	50 91 df 0d 	lds	r21, 0x0DDF
     586:	62 0f       	add	r22, r18
     588:	73 1f       	adc	r23, r19
     58a:	84 1f       	adc	r24, r20
     58c:	95 1f       	adc	r25, r21
     58e:	e0 91 a7 01 	lds	r30, 0x01A7
     592:	f0 91 a8 01 	lds	r31, 0x01A8
     596:	a6 01       	movw	r20, r12
     598:	09 95       	icall
     59a:	81 11       	cpse	r24, r1
     59c:	81 e0       	ldi	r24, 0x01	; 1
	else return 0;
}
     59e:	1f 91       	pop	r17
     5a0:	0f 91       	pop	r16
     5a2:	ff 90       	pop	r15
     5a4:	ef 90       	pop	r14
     5a6:	df 90       	pop	r13
     5a8:	cf 90       	pop	r12
     5aa:	08 95       	ret

000005ac <FAT_NextCluster>:

//读下一簇簇号
//Return the cluster number of next cluster of file
//Suitable for system which has limited RAM
unsigned long FAT_NextCluster(unsigned long cluster)
{
     5ac:	ef 92       	push	r14
     5ae:	ff 92       	push	r15
     5b0:	0f 93       	push	r16
     5b2:	1f 93       	push	r17
     5b4:	df 93       	push	r29
     5b6:	cf 93       	push	r28
     5b8:	cd b7       	in	r28, 0x3d	; 61
     5ba:	de b7       	in	r29, 0x3e	; 62
     5bc:	c0 50       	subi	r28, 0x00	; 0
     5be:	d2 40       	sbci	r29, 0x02	; 2
     5c0:	0f b6       	in	r0, 0x3f	; 63
     5c2:	f8 94       	cli
     5c4:	de bf       	out	0x3e, r29	; 62
     5c6:	0f be       	out	0x3f, r0	; 63
     5c8:	cd bf       	out	0x3d, r28	; 61
     5ca:	7b 01       	movw	r14, r22
     5cc:	8c 01       	movw	r16, r24
	BYTE buffer[512];
	DWORD sector;
	DWORD offset;
	if(FAT32_Enable)offset = cluster/128;
     5ce:	80 91 f6 0d 	lds	r24, 0x0DF6
     5d2:	88 23       	and	r24, r24
     5d4:	59 f0       	breq	.+22     	; 0x5ec <FAT_NextCluster+0x40>
     5d6:	a8 01       	movw	r20, r16
     5d8:	97 01       	movw	r18, r14
     5da:	68 94       	set
     5dc:	16 f8       	bld	r1, 6
     5de:	56 95       	lsr	r21
     5e0:	47 95       	ror	r20
     5e2:	37 95       	ror	r19
     5e4:	27 95       	ror	r18
     5e6:	16 94       	lsr	r1
     5e8:	d1 f7       	brne	.-12     	; 0x5de <FAT_NextCluster+0x32>
     5ea:	04 c0       	rjmp	.+8      	; 0x5f4 <FAT_NextCluster+0x48>
	else offset = cluster/256;
     5ec:	55 27       	eor	r21, r21
     5ee:	41 2f       	mov	r20, r17
     5f0:	30 2f       	mov	r19, r16
     5f2:	2f 2d       	mov	r18, r15
	if(cluster<2)return 0x0ffffff8;
     5f4:	82 e0       	ldi	r24, 0x02	; 2
     5f6:	e8 16       	cp	r14, r24
     5f8:	f1 04       	cpc	r15, r1
     5fa:	01 05       	cpc	r16, r1
     5fc:	11 05       	cpc	r17, r1
     5fe:	f0 f1       	brcs	.+124    	; 0x67c <FAT_NextCluster+0xd0>
	sector=FirstFATSector+offset;//calculate the actual sector
	if(FAT_ReadSector(sector,buffer))return 0x0ffffff8;//read fat table / return 0xfff8 when error occured
     600:	80 91 e1 0d 	lds	r24, 0x0DE1
     604:	90 91 e2 0d 	lds	r25, 0x0DE2
     608:	a0 91 e3 0d 	lds	r26, 0x0DE3
     60c:	b0 91 e4 0d 	lds	r27, 0x0DE4
     610:	bc 01       	movw	r22, r24
     612:	cd 01       	movw	r24, r26
     614:	62 0f       	add	r22, r18
     616:	73 1f       	adc	r23, r19
     618:	84 1f       	adc	r24, r20
     61a:	95 1f       	adc	r25, r21
     61c:	e0 91 a7 01 	lds	r30, 0x01A7
     620:	f0 91 a8 01 	lds	r31, 0x01A8
     624:	ae 01       	movw	r20, r28
     626:	4f 5f       	subi	r20, 0xFF	; 255
     628:	5f 4f       	sbci	r21, 0xFF	; 255
     62a:	09 95       	icall
     62c:	88 23       	and	r24, r24
     62e:	31 f5       	brne	.+76     	; 0x67c <FAT_NextCluster+0xd0>

	if(FAT32_Enable)
     630:	80 91 f6 0d 	lds	r24, 0x0DF6
     634:	88 23       	and	r24, r24
     636:	91 f0       	breq	.+36     	; 0x65c <FAT_NextCluster+0xb0>
	{
		offset=cluster%128;//find the position
		sector=((unsigned long *)buffer)[offset];	
     638:	d8 01       	movw	r26, r16
     63a:	c7 01       	movw	r24, r14
     63c:	8f 77       	andi	r24, 0x7F	; 127
     63e:	90 70       	andi	r25, 0x00	; 0
     640:	a0 70       	andi	r26, 0x00	; 0
     642:	b0 70       	andi	r27, 0x00	; 0
     644:	88 0f       	add	r24, r24
     646:	99 1f       	adc	r25, r25
     648:	88 0f       	add	r24, r24
     64a:	99 1f       	adc	r25, r25
     64c:	fe 01       	movw	r30, r28
     64e:	e8 0f       	add	r30, r24
     650:	f9 1f       	adc	r31, r25
     652:	21 81       	ldd	r18, Z+1	; 0x01
     654:	32 81       	ldd	r19, Z+2	; 0x02
     656:	43 81       	ldd	r20, Z+3	; 0x03
     658:	54 81       	ldd	r21, Z+4	; 0x04
     65a:	14 c0       	rjmp	.+40     	; 0x684 <FAT_NextCluster+0xd8>
	}
	else
	{
		offset=cluster%256;//find the position
		sector=((unsigned int *)buffer)[offset];
     65c:	d8 01       	movw	r26, r16
     65e:	c7 01       	movw	r24, r14
     660:	90 70       	andi	r25, 0x00	; 0
     662:	a0 70       	andi	r26, 0x00	; 0
     664:	b0 70       	andi	r27, 0x00	; 0
     666:	88 0f       	add	r24, r24
     668:	99 1f       	adc	r25, r25
     66a:	fe 01       	movw	r30, r28
     66c:	e8 0f       	add	r30, r24
     66e:	f9 1f       	adc	r31, r25
     670:	81 81       	ldd	r24, Z+1	; 0x01
     672:	92 81       	ldd	r25, Z+2	; 0x02
     674:	9c 01       	movw	r18, r24
     676:	40 e0       	ldi	r20, 0x00	; 0
     678:	50 e0       	ldi	r21, 0x00	; 0
     67a:	04 c0       	rjmp	.+8      	; 0x684 <FAT_NextCluster+0xd8>
     67c:	28 ef       	ldi	r18, 0xF8	; 248
     67e:	3f ef       	ldi	r19, 0xFF	; 255
     680:	4f ef       	ldi	r20, 0xFF	; 255
     682:	5f e0       	ldi	r21, 0x0F	; 15
	}
	return (unsigned long)sector;//return the cluste number
}
     684:	62 2f       	mov	r22, r18
     686:	73 2f       	mov	r23, r19
     688:	84 2f       	mov	r24, r20
     68a:	95 2f       	mov	r25, r21
     68c:	c0 50       	subi	r28, 0x00	; 0
     68e:	de 4f       	sbci	r29, 0xFE	; 254
     690:	0f b6       	in	r0, 0x3f	; 63
     692:	f8 94       	cli
     694:	de bf       	out	0x3e, r29	; 62
     696:	0f be       	out	0x3f, r0	; 63
     698:	cd bf       	out	0x3d, r28	; 61
     69a:	cf 91       	pop	r28
     69c:	df 91       	pop	r29
     69e:	1f 91       	pop	r17
     6a0:	0f 91       	pop	r16
     6a2:	ff 90       	pop	r15
     6a4:	ef 90       	pop	r14
     6a6:	08 95       	ret

000006a8 <CopyDirentruyItem>:
}
#endif

//复制记录项信息  //copy item
void CopyDirentruyItem(struct direntry *Desti,struct direntry *Source)
{
     6a8:	cf 93       	push	r28
     6aa:	df 93       	push	r29
     6ac:	ac 01       	movw	r20, r24
     6ae:	eb 01       	movw	r28, r22
     6b0:	20 e0       	ldi	r18, 0x00	; 0
     6b2:	30 e0       	ldi	r19, 0x00	; 0
	BYTE i;
	for(i=0;i<8;i++)Desti->deName[i] = Source->deName[i];
     6b4:	fa 01       	movw	r30, r20
     6b6:	e2 0f       	add	r30, r18
     6b8:	f3 1f       	adc	r31, r19
     6ba:	de 01       	movw	r26, r28
     6bc:	a2 0f       	add	r26, r18
     6be:	b3 1f       	adc	r27, r19
     6c0:	8c 91       	ld	r24, X
     6c2:	80 83       	st	Z, r24
     6c4:	2f 5f       	subi	r18, 0xFF	; 255
     6c6:	3f 4f       	sbci	r19, 0xFF	; 255
     6c8:	28 30       	cpi	r18, 0x08	; 8
     6ca:	31 05       	cpc	r19, r1
     6cc:	99 f7       	brne	.-26     	; 0x6b4 <CopyDirentruyItem+0xc>
	for(i=0;i<3;i++)Desti->deExtension[i] = Source->deExtension[i];
     6ce:	88 85       	ldd	r24, Y+8	; 0x08
     6d0:	fa 01       	movw	r30, r20
     6d2:	80 87       	std	Z+8, r24	; 0x08
     6d4:	89 85       	ldd	r24, Y+9	; 0x09
     6d6:	81 87       	std	Z+9, r24	; 0x09
     6d8:	8a 85       	ldd	r24, Y+10	; 0x0a
     6da:	82 87       	std	Z+10, r24	; 0x0a
	Desti->deAttributes = Source->deAttributes;
     6dc:	8b 85       	ldd	r24, Y+11	; 0x0b
     6de:	83 87       	std	Z+11, r24	; 0x0b
	Desti->deLowerCase = Source->deLowerCase;
     6e0:	8c 85       	ldd	r24, Y+12	; 0x0c
     6e2:	84 87       	std	Z+12, r24	; 0x0c
	Desti->deCHundredth = Source->deCHundredth;
     6e4:	8d 85       	ldd	r24, Y+13	; 0x0d
     6e6:	85 87       	std	Z+13, r24	; 0x0d
	for(i=0;i<2;i++)Desti->deCTime[i] = Source->deCTime[i];
     6e8:	8e 85       	ldd	r24, Y+14	; 0x0e
     6ea:	86 87       	std	Z+14, r24	; 0x0e
     6ec:	8f 85       	ldd	r24, Y+15	; 0x0f
     6ee:	87 87       	std	Z+15, r24	; 0x0f
	for(i=0;i<2;i++)Desti->deCDate[i] = Source->deCDate[i];
     6f0:	88 89       	ldd	r24, Y+16	; 0x10
     6f2:	80 8b       	std	Z+16, r24	; 0x10
     6f4:	89 89       	ldd	r24, Y+17	; 0x11
     6f6:	81 8b       	std	Z+17, r24	; 0x11
	for(i=0;i<2;i++)Desti->deADate[i] = Source->deADate[i];
     6f8:	8a 89       	ldd	r24, Y+18	; 0x12
     6fa:	82 8b       	std	Z+18, r24	; 0x12
     6fc:	8b 89       	ldd	r24, Y+19	; 0x13
     6fe:	83 8b       	std	Z+19, r24	; 0x13
	Desti->deHighClust = Source->deHighClust;
     700:	8c 89       	ldd	r24, Y+20	; 0x14
     702:	9d 89       	ldd	r25, Y+21	; 0x15
     704:	95 8b       	std	Z+21, r25	; 0x15
     706:	84 8b       	std	Z+20, r24	; 0x14
	for(i=0;i<2;i++)Desti->deMTime[i] = Source->deMTime[i];
     708:	8e 89       	ldd	r24, Y+22	; 0x16
     70a:	86 8b       	std	Z+22, r24	; 0x16
     70c:	8f 89       	ldd	r24, Y+23	; 0x17
     70e:	87 8b       	std	Z+23, r24	; 0x17
	for(i=0;i<2;i++)Desti->deMDate[i] = Source->deMDate[i];
     710:	88 8d       	ldd	r24, Y+24	; 0x18
     712:	80 8f       	std	Z+24, r24	; 0x18
     714:	89 8d       	ldd	r24, Y+25	; 0x19
     716:	81 8f       	std	Z+25, r24	; 0x19
	Desti->deStartCluster = Source->deStartCluster;
     718:	8a 8d       	ldd	r24, Y+26	; 0x1a
     71a:	9b 8d       	ldd	r25, Y+27	; 0x1b
     71c:	93 8f       	std	Z+27, r25	; 0x1b
     71e:	82 8f       	std	Z+26, r24	; 0x1a
	Desti->deFileSize = Source->deFileSize;
     720:	8c 8d       	ldd	r24, Y+28	; 0x1c
     722:	9d 8d       	ldd	r25, Y+29	; 0x1d
     724:	ae 8d       	ldd	r26, Y+30	; 0x1e
     726:	bf 8d       	ldd	r27, Y+31	; 0x1f
     728:	84 8f       	std	Z+28, r24	; 0x1c
     72a:	95 8f       	std	Z+29, r25	; 0x1d
     72c:	a6 8f       	std	Z+30, r26	; 0x1e
     72e:	b7 8f       	std	Z+31, r27	; 0x1f
}
     730:	df 91       	pop	r29
     732:	cf 91       	pop	r28
     734:	08 95       	ret

00000736 <delay>:
//	实现功能：延时
//================================================================================================
void delay(uint i)
{
    while(i--);
}
     736:	08 95       	ret

00000738 <start_7843>:
//================================================================================================
//	实现功能：	ADS7843启动
//================================================================================================
void start_7843()                
{
    TPCLK_CLR;
     738:	eb e3       	ldi	r30, 0x3B	; 59
     73a:	f0 e0       	ldi	r31, 0x00	; 0
     73c:	80 81       	ld	r24, Z
     73e:	8f 7d       	andi	r24, 0xDF	; 223
     740:	80 83       	st	Z, r24
    TPCS_SET;
     742:	80 81       	ld	r24, Z
     744:	80 61       	ori	r24, 0x10	; 16
     746:	80 83       	st	Z, r24
    TPDI_SET;
     748:	80 81       	ld	r24, Z
     74a:	88 60       	ori	r24, 0x08	; 8
     74c:	80 83       	st	Z, r24
    TPCLK_SET;
     74e:	80 81       	ld	r24, Z
     750:	80 62       	ori	r24, 0x20	; 32
     752:	80 83       	st	Z, r24
    TPCS_CLR;
     754:	80 81       	ld	r24, Z
     756:	8f 7e       	andi	r24, 0xEF	; 239
     758:	80 83       	st	Z, r24
}
     75a:	08 95       	ret

0000075c <Write_7843>:
//================================================================================================
//	实现功能：	写8位命令到触摸控制IC
//	输入参数：  temp 需要写入的8位控制命令
//================================================================================================
void Write_7843(uchar temp)                         //SPI写8位命令到触摸控制IC
{
     75c:	0f 93       	push	r16
     75e:	1f 93       	push	r17
     760:	cf 93       	push	r28
     762:	df 93       	push	r29
     764:	08 2f       	mov	r16, r24
     766:	10 e0       	ldi	r17, 0x00	; 0
	uchar i=0;

	for(i=0;i<8;i++)                                    //循环8次写入一字节
		{
		    if(temp&0x80)TPDI_SET;else TPDI_CLR;    //判断最高位是否为1,为1则向数据位写1
     768:	cb e3       	ldi	r28, 0x3B	; 59
     76a:	d0 e0       	ldi	r29, 0x00	; 0
     76c:	00 23       	and	r16, r16
     76e:	24 f4       	brge	.+8      	; 0x778 <Write_7843+0x1c>
     770:	88 81       	ld	r24, Y
     772:	88 60       	ori	r24, 0x08	; 8
     774:	88 83       	st	Y, r24
     776:	03 c0       	rjmp	.+6      	; 0x77e <Write_7843+0x22>
     778:	88 81       	ld	r24, Y
     77a:	87 7f       	andi	r24, 0xF7	; 247
     77c:	88 83       	st	Y, r24
			TPCLK_CLR; delay(1);                //送一个脉冲，上升沿有效，将DIN位数据送入到IC
     77e:	88 81       	ld	r24, Y
     780:	8f 7d       	andi	r24, 0xDF	; 223
     782:	88 83       	st	Y, r24
     784:	81 e0       	ldi	r24, 0x01	; 1
     786:	90 e0       	ldi	r25, 0x00	; 0
     788:	0e 94 9b 03 	call	0x736	; 0x736 <delay>
			TPCLK_SET; delay(1);                
     78c:	88 81       	ld	r24, Y
     78e:	80 62       	ori	r24, 0x20	; 32
     790:	88 83       	st	Y, r24
     792:	81 e0       	ldi	r24, 0x01	; 1
     794:	90 e0       	ldi	r25, 0x00	; 0
     796:	0e 94 9b 03 	call	0x736	; 0x736 <delay>
//================================================================================================
void Write_7843(uchar temp)                         //SPI写8位命令到触摸控制IC
{
	uchar i=0;

	for(i=0;i<8;i++)                                    //循环8次写入一字节
     79a:	1f 5f       	subi	r17, 0xFF	; 255
     79c:	18 30       	cpi	r17, 0x08	; 8
     79e:	11 f0       	breq	.+4      	; 0x7a4 <Write_7843+0x48>
		{
		    if(temp&0x80)TPDI_SET;else TPDI_CLR;    //判断最高位是否为1,为1则向数据位写1
			TPCLK_CLR; delay(1);                //送一个脉冲，上升沿有效，将DIN位数据送入到IC
			TPCLK_SET; delay(1);                
			temp<<=1;                           //待写数据左移1位，准备好写下一位数据
     7a0:	00 0f       	add	r16, r16
     7a2:	e4 cf       	rjmp	.-56     	; 0x76c <Write_7843+0x10>
		}
}
     7a4:	df 91       	pop	r29
     7a6:	cf 91       	pop	r28
     7a8:	1f 91       	pop	r17
     7aa:	0f 91       	pop	r16
     7ac:	08 95       	ret

000007ae <Read_7843>:
//================================================================================================
//	实现功能：	从触摸控制IC读8位数据到控制器
//	返回参数：  temp 需要写入的8位控制命令
//================================================================================================
uint Read_7843()                          //SPI 读数据
{
     7ae:	cf 92       	push	r12
     7b0:	df 92       	push	r13
     7b2:	ff 92       	push	r15
     7b4:	0f 93       	push	r16
     7b6:	1f 93       	push	r17
     7b8:	cf 93       	push	r28
     7ba:	df 93       	push	r29
     7bc:	ff 24       	eor	r15, r15
     7be:	c0 e0       	ldi	r28, 0x00	; 0
     7c0:	d0 e0       	ldi	r29, 0x00	; 0
	uint temp=0;

	for(i=0;i<12;i++)                         //循环12次读取12位结果
	 { 
       temp<<=1;                                  //temp左移一位，准备读取下一位
	   TPCLK_SET; delay(1);                   //下降沿有效
     7c2:	0b e3       	ldi	r16, 0x3B	; 59
     7c4:	10 e0       	ldi	r17, 0x00	; 0
	   TPCLK_CLR; delay(1);
	   if(TPDOUT) temp++;                     //判断控制IC送出的一位数据是否为1,如果为1,赋给temp的最低位
     7c6:	0f 2e       	mov	r0, r31
     7c8:	f9 e3       	ldi	r31, 0x39	; 57
     7ca:	cf 2e       	mov	r12, r31
     7cc:	dd 24       	eor	r13, r13
     7ce:	f0 2d       	mov	r31, r0
	uchar i=0;
	uint temp=0;

	for(i=0;i<12;i++)                         //循环12次读取12位结果
	 { 
       temp<<=1;                                  //temp左移一位，准备读取下一位
     7d0:	cc 0f       	add	r28, r28
     7d2:	dd 1f       	adc	r29, r29
	   TPCLK_SET; delay(1);                   //下降沿有效
     7d4:	f8 01       	movw	r30, r16
     7d6:	80 81       	ld	r24, Z
     7d8:	80 62       	ori	r24, 0x20	; 32
     7da:	80 83       	st	Z, r24
     7dc:	81 e0       	ldi	r24, 0x01	; 1
     7de:	90 e0       	ldi	r25, 0x00	; 0
     7e0:	0e 94 9b 03 	call	0x736	; 0x736 <delay>
	   TPCLK_CLR; delay(1);
     7e4:	f8 01       	movw	r30, r16
     7e6:	80 81       	ld	r24, Z
     7e8:	8f 7d       	andi	r24, 0xDF	; 223
     7ea:	80 83       	st	Z, r24
     7ec:	81 e0       	ldi	r24, 0x01	; 1
     7ee:	90 e0       	ldi	r25, 0x00	; 0
     7f0:	0e 94 9b 03 	call	0x736	; 0x736 <delay>
	   if(TPDOUT) temp++;                     //判断控制IC送出的一位数据是否为1,如果为1,赋给temp的最低位
     7f4:	f6 01       	movw	r30, r12
     7f6:	80 81       	ld	r24, Z
     7f8:	81 fd       	sbrc	r24, 1
     7fa:	21 96       	adiw	r28, 0x01	; 1
uint Read_7843()                          //SPI 读数据
{
	uchar i=0;
	uint temp=0;

	for(i=0;i<12;i++)                         //循环12次读取12位结果
     7fc:	f3 94       	inc	r15
     7fe:	fc e0       	ldi	r31, 0x0C	; 12
     800:	ff 16       	cp	r15, r31
     802:	31 f7       	brne	.-52     	; 0x7d0 <Read_7843+0x22>
	   TPCLK_SET; delay(1);                   //下降沿有效
	   TPCLK_CLR; delay(1);
	   if(TPDOUT) temp++;                     //判断控制IC送出的一位数据是否为1,如果为1,赋给temp的最低位
     }
    return(temp);                                 //返回结果
}	
     804:	8c 2f       	mov	r24, r28
     806:	9d 2f       	mov	r25, r29
     808:	df 91       	pop	r29
     80a:	cf 91       	pop	r28
     80c:	1f 91       	pop	r17
     80e:	0f 91       	pop	r16
     810:	ff 90       	pop	r15
     812:	df 90       	pop	r13
     814:	cf 90       	pop	r12
     816:	08 95       	ret

00000818 <AD7843>:
//================================================================================================
//	实现功能：读取触摸点X轴和Y轴电压值
//	返回参数：pix 读取到的触摸点电压值
//================================================================================================
struct struct1 AD7843()            
{
     818:	ef 92       	push	r14
     81a:	ff 92       	push	r15
     81c:	0f 93       	push	r16
     81e:	1f 93       	push	r17
	struct struct1 pix;
	TPCS_CLR;
     820:	0b e3       	ldi	r16, 0x3B	; 59
     822:	10 e0       	ldi	r17, 0x00	; 0
     824:	f8 01       	movw	r30, r16
     826:	80 81       	ld	r24, Z
     828:	8f 7e       	andi	r24, 0xEF	; 239
     82a:	80 83       	st	Z, r24

	Write_7843(0x90);                 //送控制字 10010000 即用差分方式读X坐标，详细请见有关资料
     82c:	80 e9       	ldi	r24, 0x90	; 144
     82e:	0e 94 ae 03 	call	0x75c	; 0x75c <Write_7843>
	TPCLK_SET; delay(1); 
     832:	f8 01       	movw	r30, r16
     834:	80 81       	ld	r24, Z
     836:	80 62       	ori	r24, 0x20	; 32
     838:	80 83       	st	Z, r24
     83a:	81 e0       	ldi	r24, 0x01	; 1
     83c:	90 e0       	ldi	r25, 0x00	; 0
     83e:	0e 94 9b 03 	call	0x736	; 0x736 <delay>
	TPCLK_CLR; delay(1); 
     842:	f8 01       	movw	r30, r16
     844:	80 81       	ld	r24, Z
     846:	8f 7d       	andi	r24, 0xDF	; 223
     848:	80 83       	st	Z, r24
     84a:	81 e0       	ldi	r24, 0x01	; 1
     84c:	90 e0       	ldi	r25, 0x00	; 0
     84e:	0e 94 9b 03 	call	0x736	; 0x736 <delay>
	pix.y=Read_7843();
     852:	0e 94 d7 03 	call	0x7ae	; 0x7ae <Read_7843>
     856:	f8 2e       	mov	r15, r24
     858:	e9 2e       	mov	r14, r25

	Write_7843(0xD0);                 //送控制字 11010000 即用差分方式读Y坐标 详细请见有关资料
     85a:	80 ed       	ldi	r24, 0xD0	; 208
     85c:	0e 94 ae 03 	call	0x75c	; 0x75c <Write_7843>
	TPCLK_SET; delay(1); 
     860:	f8 01       	movw	r30, r16
     862:	80 81       	ld	r24, Z
     864:	80 62       	ori	r24, 0x20	; 32
     866:	80 83       	st	Z, r24
     868:	81 e0       	ldi	r24, 0x01	; 1
     86a:	90 e0       	ldi	r25, 0x00	; 0
     86c:	0e 94 9b 03 	call	0x736	; 0x736 <delay>
	TPCLK_CLR; delay(1); 
     870:	f8 01       	movw	r30, r16
     872:	80 81       	ld	r24, Z
     874:	8f 7d       	andi	r24, 0xDF	; 223
     876:	80 83       	st	Z, r24
     878:	81 e0       	ldi	r24, 0x01	; 1
     87a:	90 e0       	ldi	r25, 0x00	; 0
     87c:	0e 94 9b 03 	call	0x736	; 0x736 <delay>
	pix.x=Read_7843();
     880:	0e 94 d7 03 	call	0x7ae	; 0x7ae <Read_7843>

	TPCS_SET; 
     884:	f8 01       	movw	r30, r16
     886:	20 81       	ld	r18, Z
     888:	20 61       	ori	r18, 0x10	; 16
     88a:	20 83       	st	Z, r18
	return pix;
}
     88c:	68 2f       	mov	r22, r24
     88e:	79 2f       	mov	r23, r25
     890:	8f 2d       	mov	r24, r15
     892:	9e 2d       	mov	r25, r14
     894:	1f 91       	pop	r17
     896:	0f 91       	pop	r16
     898:	ff 90       	pop	r15
     89a:	ef 90       	pop	r14
     89c:	08 95       	ret

0000089e <pix_filter>:
//================================================================================================
//	实现功能：软件滤波，滤掉波动过大的采样点
//	返回参数：flag 采集数据是否有效标志,flag=1;则数据有效
//================================================================================================
uchar pix_filter(struct struct1 pix1,struct struct1 pix2)
{
     89e:	dc 01       	movw	r26, r24
	uchar flag=0;
	int x=pix1.x>pix2.x?pix1.x-pix2.x:pix2.x-pix1.x;  //X轴两次采样绝对值
     8a0:	26 17       	cp	r18, r22
     8a2:	37 07       	cpc	r19, r23
     8a4:	20 f4       	brcc	.+8      	; 0x8ae <pix_filter+0x10>
     8a6:	fb 01       	movw	r30, r22
     8a8:	e2 1b       	sub	r30, r18
     8aa:	f3 0b       	sbc	r31, r19
     8ac:	03 c0       	rjmp	.+6      	; 0x8b4 <pix_filter+0x16>
     8ae:	f9 01       	movw	r30, r18
     8b0:	e6 1b       	sub	r30, r22
     8b2:	f7 0b       	sbc	r31, r23
	int y=pix1.y>pix2.y?pix1.y-pix2.y:pix2.y-pix1.y;  //Y轴两次采样绝对值
     8b4:	4a 17       	cp	r20, r26
     8b6:	5b 07       	cpc	r21, r27
     8b8:	20 f4       	brcc	.+8      	; 0x8c2 <pix_filter+0x24>
     8ba:	cd 01       	movw	r24, r26
     8bc:	84 1b       	sub	r24, r20
     8be:	95 0b       	sbc	r25, r21
     8c0:	03 c0       	rjmp	.+6      	; 0x8c8 <pix_filter+0x2a>
     8c2:	ca 01       	movw	r24, r20
     8c4:	8a 1b       	sub	r24, r26
     8c6:	9b 0b       	sbc	r25, r27
	if(x<10&&y<10)	                                  //软件滤波，2次取样的值相差太大的视为噪声
     8c8:	3a 97       	sbiw	r30, 0x0a	; 10
     8ca:	a4 f4       	brge	.+40     	; 0x8f4 <pix_filter+0x56>
     8cc:	0a 97       	sbiw	r24, 0x0a	; 10
     8ce:	94 f4       	brge	.+36     	; 0x8f4 <pix_filter+0x56>
	{
		flag=1;
		coordinate.x=(pix1.x+pix2.x)/2;           //求两次采样平均值
     8d0:	c9 01       	movw	r24, r18
     8d2:	86 0f       	add	r24, r22
     8d4:	97 1f       	adc	r25, r23
     8d6:	96 95       	lsr	r25
     8d8:	87 95       	ror	r24
     8da:	e8 ed       	ldi	r30, 0xD8	; 216
     8dc:	fd e0       	ldi	r31, 0x0D	; 13
     8de:	81 93       	st	Z+, r24
     8e0:	91 93       	st	Z+, r25
		coordinate.y=(pix1.y+pix2.y)/2;
     8e2:	ca 01       	movw	r24, r20
     8e4:	8a 0f       	add	r24, r26
     8e6:	9b 1f       	adc	r25, r27
     8e8:	96 95       	lsr	r25
     8ea:	87 95       	ror	r24
     8ec:	91 83       	std	Z+1, r25	; 0x01
     8ee:	80 83       	st	Z, r24
     8f0:	81 e0       	ldi	r24, 0x01	; 1
     8f2:	08 95       	ret
     8f4:	80 e0       	ldi	r24, 0x00	; 0
	}	
	return flag;
}
     8f6:	08 95       	ret

000008f8 <Getpix>:

//================================================================================================
//	实现功能：读取采集结果,两次取均值
//================================================================================================
uchar Getpix() //取采样值，此处使用软件滤波，2次取样的值相差太大的视为噪声
{
     8f8:	ef 92       	push	r14
     8fa:	ff 92       	push	r15
     8fc:	0f 93       	push	r16
     8fe:	1f 93       	push	r17
    uchar flag=0;
    struct struct1 pix1;
    struct struct1 pix2; 
    if (PEN==0)
     900:	c8 99       	sbic	0x19, 0	; 25
     902:	57 c0       	rjmp	.+174    	; 0x9b2 <Getpix+0xba>
		{  	
	       	pix1=AD7843();
     904:	0e 94 0c 04 	call	0x818	; 0x818 <AD7843>
     908:	16 2f       	mov	r17, r22
     90a:	07 2f       	mov	r16, r23
     90c:	f8 2e       	mov	r15, r24
     90e:	e9 2e       	mov	r14, r25
        	pix2=AD7843();
     910:	0e 94 0c 04 	call	0x818	; 0x818 <AD7843>
     914:	26 2f       	mov	r18, r22
     916:	37 2f       	mov	r19, r23
     918:	48 2f       	mov	r20, r24
     91a:	59 2f       	mov	r21, r25

			if(pix_filter(pix1,pix2)==1) //得到当前TP的取样值，此处使用软件滤波，2次取样的值相差太大的视为噪声
     91c:	61 2f       	mov	r22, r17
     91e:	70 2f       	mov	r23, r16
     920:	8f 2d       	mov	r24, r15
     922:	9e 2d       	mov	r25, r14
     924:	0e 94 4f 04 	call	0x89e	; 0x89e <pix_filter>
     928:	81 30       	cpi	r24, 0x01	; 1
     92a:	09 f0       	breq	.+2      	; 0x92e <Getpix+0x36>
     92c:	42 c0       	rjmp	.+132    	; 0x9b2 <Getpix+0xba>
				{
                  if((coordinate.x>Xmin)&&(coordinate.y>Ymin))
     92e:	60 91 d8 0d 	lds	r22, 0x0DD8
     932:	70 91 d9 0d 	lds	r23, 0x0DD9
     936:	81 e0       	ldi	r24, 0x01	; 1
     938:	64 33       	cpi	r22, 0x34	; 52
     93a:	78 07       	cpc	r23, r24
     93c:	d0 f1       	brcs	.+116    	; 0x9b2 <Getpix+0xba>
     93e:	00 91 da 0d 	lds	r16, 0x0DDA
     942:	10 91 db 0d 	lds	r17, 0x0DDB
     946:	01 3d       	cpi	r16, 0xD1	; 209
     948:	11 05       	cpc	r17, r1
     94a:	98 f1       	brcs	.+102    	; 0x9b2 <Getpix+0xba>
                   {
			        lx=(uint)(240.0*(coordinate.x-Xmin)/(Xmax-Xmin));       //坐标转换，即根据采样值计算实际坐标值
     94c:	63 53       	subi	r22, 0x33	; 51
     94e:	71 40       	sbci	r23, 0x01	; 1
     950:	80 e0       	ldi	r24, 0x00	; 0
     952:	90 e0       	ldi	r25, 0x00	; 0
     954:	0e 94 c0 18 	call	0x3180	; 0x3180 <__floatunsisf>
     958:	20 e0       	ldi	r18, 0x00	; 0
     95a:	30 e0       	ldi	r19, 0x00	; 0
     95c:	40 e7       	ldi	r20, 0x70	; 112
     95e:	53 e4       	ldi	r21, 0x43	; 67
     960:	0e 94 96 16 	call	0x2d2c	; 0x2d2c <__mulsf3>
     964:	20 e0       	ldi	r18, 0x00	; 0
     966:	30 e7       	ldi	r19, 0x70	; 112
     968:	4a e5       	ldi	r20, 0x5A	; 90
     96a:	55 e4       	ldi	r21, 0x45	; 69
     96c:	0e 94 90 17 	call	0x2f20	; 0x2f20 <__divsf3>
     970:	0e 94 c0 14 	call	0x2980	; 0x2980 <__fixunssfsi>
     974:	70 93 00 0e 	sts	0x0E00, r23
     978:	60 93 ff 0d 	sts	0x0DFF, r22
				    ly=(uint)(320.0*(coordinate.y-Ymin)/(Ymax-Ymin));   //Xmin、max和Ymin、Ymax分别是触摸屏横纵坐标的最小/最大值
     97c:	b8 01       	movw	r22, r16
     97e:	60 5d       	subi	r22, 0xD0	; 208
     980:	70 40       	sbci	r23, 0x00	; 0
     982:	80 e0       	ldi	r24, 0x00	; 0
     984:	90 e0       	ldi	r25, 0x00	; 0
     986:	0e 94 c0 18 	call	0x3180	; 0x3180 <__floatunsisf>
     98a:	20 e0       	ldi	r18, 0x00	; 0
     98c:	30 e0       	ldi	r19, 0x00	; 0
     98e:	40 ea       	ldi	r20, 0xA0	; 160
     990:	53 e4       	ldi	r21, 0x43	; 67
     992:	0e 94 96 16 	call	0x2d2c	; 0x2d2c <__mulsf3>
     996:	20 e0       	ldi	r18, 0x00	; 0
     998:	30 ef       	ldi	r19, 0xF0	; 240
     99a:	45 e5       	ldi	r20, 0x55	; 85
     99c:	55 e4       	ldi	r21, 0x45	; 69
     99e:	0e 94 90 17 	call	0x2f20	; 0x2f20 <__divsf3>
     9a2:	0e 94 c0 14 	call	0x2980	; 0x2980 <__fixunssfsi>
     9a6:	70 93 d5 0d 	sts	0x0DD5, r23
     9aa:	60 93 d4 0d 	sts	0x0DD4, r22
     9ae:	81 e0       	ldi	r24, 0x01	; 1
     9b0:	01 c0       	rjmp	.+2      	; 0x9b4 <Getpix+0xbc>
     9b2:	80 e0       	ldi	r24, 0x00	; 0
				}				 
		}

	return flag; 	

}
     9b4:	1f 91       	pop	r17
     9b6:	0f 91       	pop	r16
     9b8:	ff 90       	pop	r15
     9ba:	ef 90       	pop	r14
     9bc:	08 95       	ret

000009be <delayms>:
    int i,j;                                                                                
    for(i=0;i<count;i++)                                                                    
       {
	     for(j=0;j<255;j++);
       }                                                                                     
}
     9be:	08 95       	ret

000009c0 <Write_Cmd>:
//	输入参数：  DH 需要输入16bits命令的高8位
//              DL 需要输入16bits命令的低8位
***************************************************************************************************/
void Write_Cmd(unsigned char DH,unsigned char DL)
{
	CS_CLR;
     9c0:	23 e2       	ldi	r18, 0x23	; 35
     9c2:	30 e0       	ldi	r19, 0x00	; 0
     9c4:	f9 01       	movw	r30, r18
     9c6:	90 81       	ld	r25, Z
     9c8:	9b 7f       	andi	r25, 0xFB	; 251
     9ca:	90 83       	st	Z, r25
	RS_CLR;
     9cc:	e2 e6       	ldi	r30, 0x62	; 98
     9ce:	f0 e0       	ldi	r31, 0x00	; 0
     9d0:	90 81       	ld	r25, Z
     9d2:	9b 7f       	andi	r25, 0xFB	; 251
     9d4:	90 83       	st	Z, r25
        RD_SET;
     9d6:	90 81       	ld	r25, Z
     9d8:	91 60       	ori	r25, 0x01	; 1
     9da:	90 83       	st	Z, r25
        RW_CLR;
     9dc:	90 81       	ld	r25, Z
     9de:	9d 7f       	andi	r25, 0xFD	; 253
     9e0:	90 83       	st	Z, r25

    //注意：当使用8位数据口驱动16位数据模式时，使用74HC573作为IO扩展，程序如下
    DataPort=DL;            //送低8位命令给573待锁存
     9e2:	a5 e3       	ldi	r26, 0x35	; 53
     9e4:	b0 e0       	ldi	r27, 0x00	; 0
     9e6:	6c 93       	st	X, r22
    LE_SET;                   //锁存位
     9e8:	90 81       	ld	r25, Z
     9ea:	98 60       	ori	r25, 0x08	; 8
     9ec:	90 83       	st	Z, r25
    LE_CLR;                   //断开锁存,位选573的Q7~Q0仍保持 
     9ee:	90 81       	ld	r25, Z
     9f0:	97 7f       	andi	r25, 0xF7	; 247
     9f2:	90 83       	st	Z, r25

	DataPort=DH;            //送高8位命令给TFT
     9f4:	8c 93       	st	X, r24
    //如果使用16位数据口驱动16位数据模式，则无需IO扩展，直接将数据送到数据口即可
    DataPort_L=DL; 
    DataPort_H=DH;
	*/

	RW_SET;
     9f6:	80 81       	ld	r24, Z
     9f8:	82 60       	ori	r24, 0x02	; 2
     9fa:	80 83       	st	Z, r24
	CS_SET;
     9fc:	f9 01       	movw	r30, r18
     9fe:	80 81       	ld	r24, Z
     a00:	84 60       	ori	r24, 0x04	; 4
     a02:	80 83       	st	Z, r24
}
     a04:	08 95       	ret

00000a06 <Write_Data>:
//	实现功能：	写数据(2*8bits)
//	输入参数：  DH 需要输入16bits数据的高8位
//              DL 需要输入16bits数据的低8位
***************************************************************************************************/
void Write_Data(unsigned char DH,unsigned char DL)
{
     a06:	cf 93       	push	r28
     a08:	df 93       	push	r29
	
	CS_CLR;
     a0a:	a3 e2       	ldi	r26, 0x23	; 35
     a0c:	b0 e0       	ldi	r27, 0x00	; 0
     a0e:	9c 91       	ld	r25, X
     a10:	9b 7f       	andi	r25, 0xFB	; 251
     a12:	9c 93       	st	X, r25
	RS_SET;
     a14:	e2 e6       	ldi	r30, 0x62	; 98
     a16:	f0 e0       	ldi	r31, 0x00	; 0
     a18:	90 81       	ld	r25, Z
     a1a:	94 60       	ori	r25, 0x04	; 4
     a1c:	90 83       	st	Z, r25

    //注意：当使用8位数据口驱动16位数据模式时，使用74HC573作为IO扩展，程序如下
	DataPort=DL;            //送低8位数据给573待锁存
     a1e:	25 e3       	ldi	r18, 0x35	; 53
     a20:	30 e0       	ldi	r19, 0x00	; 0
     a22:	e9 01       	movw	r28, r18
     a24:	68 83       	st	Y, r22
    LE_SET;                   //锁存位
     a26:	90 81       	ld	r25, Z
     a28:	98 60       	ori	r25, 0x08	; 8
     a2a:	90 83       	st	Z, r25
    LE_CLR;                   //断开锁存,位选573的Q7~Q0仍保持 
     a2c:	90 81       	ld	r25, Z
     a2e:	97 7f       	andi	r25, 0xF7	; 247
     a30:	90 83       	st	Z, r25

	DataPort=DH;            //送高8位数据给TFT
     a32:	88 83       	st	Y, r24
    //如果使用16位数据口驱动16位数据模式，则无需IO扩展，直接将数据送到数据口即可
    DataPort_L=DL; 
    DataPort_H=DH;
	*/

	RW_CLR;
     a34:	80 81       	ld	r24, Z
     a36:	8d 7f       	andi	r24, 0xFD	; 253
     a38:	80 83       	st	Z, r24
	RW_SET;
     a3a:	80 81       	ld	r24, Z
     a3c:	82 60       	ori	r24, 0x02	; 2
     a3e:	80 83       	st	Z, r24
	CS_SET;
     a40:	8c 91       	ld	r24, X
     a42:	84 60       	ori	r24, 0x04	; 4
     a44:	8c 93       	st	X, r24
}
     a46:	df 91       	pop	r29
     a48:	cf 91       	pop	r28
     a4a:	08 95       	ret

00000a4c <Write_Data_U16>:
/***************************************************************************************************
//	实现功能：	写数据(16位)
//	输入参数：  y 需要输入16bits数据
***************************************************************************************************/
void  Write_Data_U16(unsigned int y)
{
     a4c:	68 2f       	mov	r22, r24
	unsigned char m,n;
	m=y>>8;
	n=y;
	Write_Data(m,n);
     a4e:	89 2f       	mov	r24, r25
     a50:	0e 94 03 05 	call	0xa06	; 0xa06 <Write_Data>
}
     a54:	08 95       	ret

00000a56 <Write_Cmd_Data>:
//	实现功能：	向x寄存器写入y数据
//	输入参数：  x 需要输入的命令 16位
//              y 需要输入的数据 16位
***************************************************************************************************/
void  Write_Cmd_Data (unsigned char x,unsigned int y)
{
     a56:	0f 93       	push	r16
     a58:	1f 93       	push	r17
     a5a:	98 2f       	mov	r25, r24
     a5c:	06 2f       	mov	r16, r22
     a5e:	17 2f       	mov	r17, r23
	unsigned char m,n;
	m=y>>8;
	n=y;
	Write_Cmd(0x00,x);
     a60:	80 e0       	ldi	r24, 0x00	; 0
     a62:	69 2f       	mov	r22, r25
     a64:	0e 94 e0 04 	call	0x9c0	; 0x9c0 <Write_Cmd>
	Write_Data(m,n);
     a68:	81 2f       	mov	r24, r17
     a6a:	60 2f       	mov	r22, r16
     a6c:	0e 94 03 05 	call	0xa06	; 0xa06 <Write_Data>
}
     a70:	1f 91       	pop	r17
     a72:	0f 91       	pop	r16
     a74:	08 95       	ret

00000a76 <TFT_Initial>:
//	实现功能：	TFT初始化
***************************************************************************************************/
void TFT_Initial(void)
{  

    RST_SET;    
     a76:	e3 e2       	ldi	r30, 0x23	; 35
     a78:	f0 e0       	ldi	r31, 0x00	; 0
     a7a:	80 81       	ld	r24, Z
     a7c:	88 60       	ori	r24, 0x08	; 8
     a7e:	80 83       	st	Z, r24
    milliseconds can be achieved.
 */
void
_delay_loop_2(uint16_t __count)
{
	__asm__ volatile (
     a80:	83 e3       	ldi	r24, 0x33	; 51
     a82:	97 e0       	ldi	r25, 0x07	; 7
     a84:	01 97       	sbiw	r24, 0x01	; 1
     a86:	f1 f7       	brne	.-4      	; 0xa84 <TFT_Initial+0xe>
	delay_ms(1);                    // Delay 1ms 
	RST_CLR;  
     a88:	80 81       	ld	r24, Z
     a8a:	87 7f       	andi	r24, 0xF7	; 247
     a8c:	80 83       	st	Z, r24
     a8e:	80 e0       	ldi	r24, 0x00	; 0
     a90:	98 e4       	ldi	r25, 0x48	; 72
     a92:	01 97       	sbiw	r24, 0x01	; 1
     a94:	f1 f7       	brne	.-4      	; 0xa92 <TFT_Initial+0x1c>
	delay_ms(10);                   // Delay 10ms            
	RST_SET;  
     a96:	80 81       	ld	r24, Z
     a98:	88 60       	ori	r24, 0x08	; 8
     a9a:	80 83       	st	Z, r24
     a9c:	24 ef       	ldi	r18, 0xF4	; 244
     a9e:	31 e0       	ldi	r19, 0x01	; 1
     aa0:	48 eb       	ldi	r20, 0xB8	; 184
     aa2:	50 e0       	ldi	r21, 0x00	; 0
     aa4:	ca 01       	movw	r24, r20
     aa6:	01 97       	sbiw	r24, 0x01	; 1
     aa8:	f1 f7       	brne	.-4      	; 0xaa6 <TFT_Initial+0x30>
		__ticks = (uint16_t) (__ms * 10.0);
		while(__ticks)
		{
			// wait 1/10 ms
			_delay_loop_2(((F_CPU) / 4e3) / 10);
			__ticks --;
     aaa:	21 50       	subi	r18, 0x01	; 1
     aac:	30 40       	sbci	r19, 0x00	; 0
		__ticks = 1;
	else if (__tmp > 65535)
	{
		//	__ticks = requested delay in 1/10 ms
		__ticks = (uint16_t) (__ms * 10.0);
		while(__ticks)
     aae:	d1 f7       	brne	.-12     	; 0xaa4 <TFT_Initial+0x2e>
	delay_ms(50);                   // Delay 50 ms  
  
	if(Device_code==0x9320)
     ab0:	80 91 d6 0d 	lds	r24, 0x0DD6
     ab4:	90 91 d7 0d 	lds	r25, 0x0DD7
     ab8:	23 e9       	ldi	r18, 0x93	; 147
     aba:	80 32       	cpi	r24, 0x20	; 32
     abc:	92 07       	cpc	r25, r18
     abe:	09 f0       	breq	.+2      	; 0xac2 <TFT_Initial+0x4c>
     ac0:	01 c1       	rjmp	.+514    	; 0xcc4 <TFT_Initial+0x24e>
     {

    //************* Start Initial Sequence **********//
	Write_Cmd_Data(0x00,0x0001);   //Set the OSC bit as ‘1’ to start the internal oscillator
     ac2:	80 e0       	ldi	r24, 0x00	; 0
     ac4:	61 e0       	ldi	r22, 0x01	; 1
     ac6:	70 e0       	ldi	r23, 0x00	; 0
     ac8:	0e 94 2b 05 	call	0xa56	; 0xa56 <Write_Cmd_Data>
    Write_Cmd_Data(0x01,0x0100);   // set SS and SM bit
     acc:	81 e0       	ldi	r24, 0x01	; 1
     ace:	60 e0       	ldi	r22, 0x00	; 0
     ad0:	71 e0       	ldi	r23, 0x01	; 1
     ad2:	0e 94 2b 05 	call	0xa56	; 0xa56 <Write_Cmd_Data>
	Write_Cmd_Data(0x02,0x0700);   // set 1 line inversion
     ad6:	82 e0       	ldi	r24, 0x02	; 2
     ad8:	60 e0       	ldi	r22, 0x00	; 0
     ada:	77 e0       	ldi	r23, 0x07	; 7
     adc:	0e 94 2b 05 	call	0xa56	; 0xa56 <Write_Cmd_Data>
	Write_Cmd_Data(0x03,0x1030);   //set GRAM Write direction and BGR=1
     ae0:	83 e0       	ldi	r24, 0x03	; 3
     ae2:	60 e3       	ldi	r22, 0x30	; 48
     ae4:	70 e1       	ldi	r23, 0x10	; 16
     ae6:	0e 94 2b 05 	call	0xa56	; 0xa56 <Write_Cmd_Data>
    Write_Cmd_Data(0x04,0x0000);   // Resize register
     aea:	84 e0       	ldi	r24, 0x04	; 4
     aec:	60 e0       	ldi	r22, 0x00	; 0
     aee:	70 e0       	ldi	r23, 0x00	; 0
     af0:	0e 94 2b 05 	call	0xa56	; 0xa56 <Write_Cmd_Data>
	Write_Cmd_Data(0x08,0x0202);   // set the back porch and front porch
     af4:	88 e0       	ldi	r24, 0x08	; 8
     af6:	62 e0       	ldi	r22, 0x02	; 2
     af8:	72 e0       	ldi	r23, 0x02	; 2
     afa:	0e 94 2b 05 	call	0xa56	; 0xa56 <Write_Cmd_Data>
    Write_Cmd_Data(0x09,0x0000);   // set non-display area refresh cycle ISC[3:0]
     afe:	89 e0       	ldi	r24, 0x09	; 9
     b00:	60 e0       	ldi	r22, 0x00	; 0
     b02:	70 e0       	ldi	r23, 0x00	; 0
     b04:	0e 94 2b 05 	call	0xa56	; 0xa56 <Write_Cmd_Data>
    Write_Cmd_Data(0x0A,0x0000);   // FMARK function
     b08:	8a e0       	ldi	r24, 0x0A	; 10
     b0a:	60 e0       	ldi	r22, 0x00	; 0
     b0c:	70 e0       	ldi	r23, 0x00	; 0
     b0e:	0e 94 2b 05 	call	0xa56	; 0xa56 <Write_Cmd_Data>
    Write_Cmd_Data(0x0C,0x0000);   // RGB interface setting
     b12:	8c e0       	ldi	r24, 0x0C	; 12
     b14:	60 e0       	ldi	r22, 0x00	; 0
     b16:	70 e0       	ldi	r23, 0x00	; 0
     b18:	0e 94 2b 05 	call	0xa56	; 0xa56 <Write_Cmd_Data>
	Write_Cmd_Data(0x0D,0x0000);   // Frame marker Position
     b1c:	8d e0       	ldi	r24, 0x0D	; 13
     b1e:	60 e0       	ldi	r22, 0x00	; 0
     b20:	70 e0       	ldi	r23, 0x00	; 0
     b22:	0e 94 2b 05 	call	0xa56	; 0xa56 <Write_Cmd_Data>
    Write_Cmd_Data(0x0F,0x0000);   // RGB interface polarity
     b26:	8f e0       	ldi	r24, 0x0F	; 15
     b28:	60 e0       	ldi	r22, 0x00	; 0
     b2a:	70 e0       	ldi	r23, 0x00	; 0
     b2c:	0e 94 2b 05 	call	0xa56	; 0xa56 <Write_Cmd_Data>
    delayms(30);
     b30:	8e e1       	ldi	r24, 0x1E	; 30
     b32:	90 e0       	ldi	r25, 0x00	; 0
     b34:	0e 94 df 04 	call	0x9be	; 0x9be <delayms>
	//*************Power On sequence ****************//
	Write_Cmd_Data(0x10, 0x16b0);   // SAP, BT[3:0], AP, DSTB, SLP, STB
     b38:	80 e1       	ldi	r24, 0x10	; 16
     b3a:	60 eb       	ldi	r22, 0xB0	; 176
     b3c:	76 e1       	ldi	r23, 0x16	; 22
     b3e:	0e 94 2b 05 	call	0xa56	; 0xa56 <Write_Cmd_Data>
	delayms(30);
     b42:	8e e1       	ldi	r24, 0x1E	; 30
     b44:	90 e0       	ldi	r25, 0x00	; 0
     b46:	0e 94 df 04 	call	0x9be	; 0x9be <delayms>
	Write_Cmd_Data(0x11, 0x0007);   //Write final user’s setting values to VC bit
     b4a:	81 e1       	ldi	r24, 0x11	; 17
     b4c:	67 e0       	ldi	r22, 0x07	; 7
     b4e:	70 e0       	ldi	r23, 0x00	; 0
     b50:	0e 94 2b 05 	call	0xa56	; 0xa56 <Write_Cmd_Data>
	Write_Cmd_Data(0x12, 0x013a);   // set Internal reference voltage
     b54:	82 e1       	ldi	r24, 0x12	; 18
     b56:	6a e3       	ldi	r22, 0x3A	; 58
     b58:	71 e0       	ldi	r23, 0x01	; 1
     b5a:	0e 94 2b 05 	call	0xa56	; 0xa56 <Write_Cmd_Data>
	Write_Cmd_Data(0x13, 0x1a00);   // VDV[4:0] for VCOM amplitude
     b5e:	83 e1       	ldi	r24, 0x13	; 19
     b60:	60 e0       	ldi	r22, 0x00	; 0
     b62:	7a e1       	ldi	r23, 0x1A	; 26
     b64:	0e 94 2b 05 	call	0xa56	; 0xa56 <Write_Cmd_Data>
    delayms(30);
     b68:	8e e1       	ldi	r24, 0x1E	; 30
     b6a:	90 e0       	ldi	r25, 0x00	; 0
     b6c:	0e 94 df 04 	call	0x9be	; 0x9be <delayms>
    Write_Cmd_Data(0x29, 0x000c);   // Set VCM[5:0] for VCOMH
     b70:	89 e2       	ldi	r24, 0x29	; 41
     b72:	6c e0       	ldi	r22, 0x0C	; 12
     b74:	70 e0       	ldi	r23, 0x00	; 0
     b76:	0e 94 2b 05 	call	0xa56	; 0xa56 <Write_Cmd_Data>
	delayms(30); // Delay 50ms
     b7a:	8e e1       	ldi	r24, 0x1E	; 30
     b7c:	90 e0       	ldi	r25, 0x00	; 0
     b7e:	0e 94 df 04 	call	0x9be	; 0x9be <delayms>

	// ----------- Adjust the Gamma Curve ----------//
	Write_Cmd_Data(0x0030, 0x0000);
     b82:	80 e3       	ldi	r24, 0x30	; 48
     b84:	60 e0       	ldi	r22, 0x00	; 0
     b86:	70 e0       	ldi	r23, 0x00	; 0
     b88:	0e 94 2b 05 	call	0xa56	; 0xa56 <Write_Cmd_Data>
	Write_Cmd_Data(0x0031, 0x0505);
     b8c:	81 e3       	ldi	r24, 0x31	; 49
     b8e:	65 e0       	ldi	r22, 0x05	; 5
     b90:	75 e0       	ldi	r23, 0x05	; 5
     b92:	0e 94 2b 05 	call	0xa56	; 0xa56 <Write_Cmd_Data>
	Write_Cmd_Data(0x0032, 0x0304);
     b96:	82 e3       	ldi	r24, 0x32	; 50
     b98:	64 e0       	ldi	r22, 0x04	; 4
     b9a:	73 e0       	ldi	r23, 0x03	; 3
     b9c:	0e 94 2b 05 	call	0xa56	; 0xa56 <Write_Cmd_Data>
	Write_Cmd_Data(0x0035, 0x0006);
     ba0:	85 e3       	ldi	r24, 0x35	; 53
     ba2:	66 e0       	ldi	r22, 0x06	; 6
     ba4:	70 e0       	ldi	r23, 0x00	; 0
     ba6:	0e 94 2b 05 	call	0xa56	; 0xa56 <Write_Cmd_Data>
	Write_Cmd_Data(0x0036, 0x0707);
     baa:	86 e3       	ldi	r24, 0x36	; 54
     bac:	67 e0       	ldi	r22, 0x07	; 7
     bae:	77 e0       	ldi	r23, 0x07	; 7
     bb0:	0e 94 2b 05 	call	0xa56	; 0xa56 <Write_Cmd_Data>
	Write_Cmd_Data(0x0037, 0x0105);
     bb4:	87 e3       	ldi	r24, 0x37	; 55
     bb6:	65 e0       	ldi	r22, 0x05	; 5
     bb8:	71 e0       	ldi	r23, 0x01	; 1
     bba:	0e 94 2b 05 	call	0xa56	; 0xa56 <Write_Cmd_Data>
	Write_Cmd_Data(0x0038, 0x0002);
     bbe:	88 e3       	ldi	r24, 0x38	; 56
     bc0:	62 e0       	ldi	r22, 0x02	; 2
     bc2:	70 e0       	ldi	r23, 0x00	; 0
     bc4:	0e 94 2b 05 	call	0xa56	; 0xa56 <Write_Cmd_Data>
	Write_Cmd_Data(0x0039, 0x0707);
     bc8:	89 e3       	ldi	r24, 0x39	; 57
     bca:	67 e0       	ldi	r22, 0x07	; 7
     bcc:	77 e0       	ldi	r23, 0x07	; 7
     bce:	0e 94 2b 05 	call	0xa56	; 0xa56 <Write_Cmd_Data>
	Write_Cmd_Data(0x003C, 0x0704);
     bd2:	8c e3       	ldi	r24, 0x3C	; 60
     bd4:	64 e0       	ldi	r22, 0x04	; 4
     bd6:	77 e0       	ldi	r23, 0x07	; 7
     bd8:	0e 94 2b 05 	call	0xa56	; 0xa56 <Write_Cmd_Data>
	Write_Cmd_Data(0x003D, 0x0807);
     bdc:	8d e3       	ldi	r24, 0x3D	; 61
     bde:	67 e0       	ldi	r22, 0x07	; 7
     be0:	78 e0       	ldi	r23, 0x08	; 8
     be2:	0e 94 2b 05 	call	0xa56	; 0xa56 <Write_Cmd_Data>

	//------------------ Set GRAM area ---------------//
	Write_Cmd_Data(0x0050, 0x0000); // Horizontal GRAM Start Address
     be6:	80 e5       	ldi	r24, 0x50	; 80
     be8:	60 e0       	ldi	r22, 0x00	; 0
     bea:	70 e0       	ldi	r23, 0x00	; 0
     bec:	0e 94 2b 05 	call	0xa56	; 0xa56 <Write_Cmd_Data>
	Write_Cmd_Data(0x0051, 0x00EF); // Horizontal GRAM End Address
     bf0:	81 e5       	ldi	r24, 0x51	; 81
     bf2:	6f ee       	ldi	r22, 0xEF	; 239
     bf4:	70 e0       	ldi	r23, 0x00	; 0
     bf6:	0e 94 2b 05 	call	0xa56	; 0xa56 <Write_Cmd_Data>
	Write_Cmd_Data(0x0052, 0x0000); // Vertical GRAM Start Address
     bfa:	82 e5       	ldi	r24, 0x52	; 82
     bfc:	60 e0       	ldi	r22, 0x00	; 0
     bfe:	70 e0       	ldi	r23, 0x00	; 0
     c00:	0e 94 2b 05 	call	0xa56	; 0xa56 <Write_Cmd_Data>
	Write_Cmd_Data(0x0053, 0x013F); // Vertical GRAM Start Address
     c04:	83 e5       	ldi	r24, 0x53	; 83
     c06:	6f e3       	ldi	r22, 0x3F	; 63
     c08:	71 e0       	ldi	r23, 0x01	; 1
     c0a:	0e 94 2b 05 	call	0xa56	; 0xa56 <Write_Cmd_Data>
	Write_Cmd_Data(0x0060, 0x2700); // Gate Scan Line
     c0e:	80 e6       	ldi	r24, 0x60	; 96
     c10:	60 e0       	ldi	r22, 0x00	; 0
     c12:	77 e2       	ldi	r23, 0x27	; 39
     c14:	0e 94 2b 05 	call	0xa56	; 0xa56 <Write_Cmd_Data>
	Write_Cmd_Data(0x0061, 0x0001); // NDL,VLE, REV
     c18:	81 e6       	ldi	r24, 0x61	; 97
     c1a:	61 e0       	ldi	r22, 0x01	; 1
     c1c:	70 e0       	ldi	r23, 0x00	; 0
     c1e:	0e 94 2b 05 	call	0xa56	; 0xa56 <Write_Cmd_Data>
	Write_Cmd_Data(0x006A, 0x0000); // set scrolling line
     c22:	8a e6       	ldi	r24, 0x6A	; 106
     c24:	60 e0       	ldi	r22, 0x00	; 0
     c26:	70 e0       	ldi	r23, 0x00	; 0
     c28:	0e 94 2b 05 	call	0xa56	; 0xa56 <Write_Cmd_Data>
    Write_Cmd_Data(0x20, 0x0000);   // GRAM horizontal Address
     c2c:	80 e2       	ldi	r24, 0x20	; 32
     c2e:	60 e0       	ldi	r22, 0x00	; 0
     c30:	70 e0       	ldi	r23, 0x00	; 0
     c32:	0e 94 2b 05 	call	0xa56	; 0xa56 <Write_Cmd_Data>
	Write_Cmd_Data(0x21, 0x0000);   // GRAM Vertical Address
     c36:	81 e2       	ldi	r24, 0x21	; 33
     c38:	60 e0       	ldi	r22, 0x00	; 0
     c3a:	70 e0       	ldi	r23, 0x00	; 0
     c3c:	0e 94 2b 05 	call	0xa56	; 0xa56 <Write_Cmd_Data>

	//-------------- Partial Display Control ---------//
	Write_Cmd_Data(0x0080, 0x0000);
     c40:	80 e8       	ldi	r24, 0x80	; 128
     c42:	60 e0       	ldi	r22, 0x00	; 0
     c44:	70 e0       	ldi	r23, 0x00	; 0
     c46:	0e 94 2b 05 	call	0xa56	; 0xa56 <Write_Cmd_Data>
	Write_Cmd_Data(0x0081, 0x0000);
     c4a:	81 e8       	ldi	r24, 0x81	; 129
     c4c:	60 e0       	ldi	r22, 0x00	; 0
     c4e:	70 e0       	ldi	r23, 0x00	; 0
     c50:	0e 94 2b 05 	call	0xa56	; 0xa56 <Write_Cmd_Data>
	Write_Cmd_Data(0x0082, 0x0000);
     c54:	82 e8       	ldi	r24, 0x82	; 130
     c56:	60 e0       	ldi	r22, 0x00	; 0
     c58:	70 e0       	ldi	r23, 0x00	; 0
     c5a:	0e 94 2b 05 	call	0xa56	; 0xa56 <Write_Cmd_Data>
	Write_Cmd_Data(0x0083, 0x0000);
     c5e:	83 e8       	ldi	r24, 0x83	; 131
     c60:	60 e0       	ldi	r22, 0x00	; 0
     c62:	70 e0       	ldi	r23, 0x00	; 0
     c64:	0e 94 2b 05 	call	0xa56	; 0xa56 <Write_Cmd_Data>
	Write_Cmd_Data(0x0084, 0x0000);
     c68:	84 e8       	ldi	r24, 0x84	; 132
     c6a:	60 e0       	ldi	r22, 0x00	; 0
     c6c:	70 e0       	ldi	r23, 0x00	; 0
     c6e:	0e 94 2b 05 	call	0xa56	; 0xa56 <Write_Cmd_Data>
	Write_Cmd_Data(0x0085, 0x0000);
     c72:	85 e8       	ldi	r24, 0x85	; 133
     c74:	60 e0       	ldi	r22, 0x00	; 0
     c76:	70 e0       	ldi	r23, 0x00	; 0
     c78:	0e 94 2b 05 	call	0xa56	; 0xa56 <Write_Cmd_Data>

	//-------------- Panel Control ---------//
    Write_Cmd_Data(0x90,0x0010);   //Frame Cycle Contral
     c7c:	80 e9       	ldi	r24, 0x90	; 144
     c7e:	60 e1       	ldi	r22, 0x10	; 16
     c80:	70 e0       	ldi	r23, 0x00	; 0
     c82:	0e 94 2b 05 	call	0xa56	; 0xa56 <Write_Cmd_Data>
	Write_Cmd_Data(0x92,0x0000);   //Panel Interface Contral
     c86:	82 e9       	ldi	r24, 0x92	; 146
     c88:	60 e0       	ldi	r22, 0x00	; 0
     c8a:	70 e0       	ldi	r23, 0x00	; 0
     c8c:	0e 94 2b 05 	call	0xa56	; 0xa56 <Write_Cmd_Data>
	Write_Cmd_Data(0x93,0x0003);   //Panel Interface Contral 3. 
     c90:	83 e9       	ldi	r24, 0x93	; 147
     c92:	63 e0       	ldi	r22, 0x03	; 3
     c94:	70 e0       	ldi	r23, 0x00	; 0
     c96:	0e 94 2b 05 	call	0xa56	; 0xa56 <Write_Cmd_Data>
	Write_Cmd_Data(0x95,0x0110);   //Frame Cycle Contral
     c9a:	85 e9       	ldi	r24, 0x95	; 149
     c9c:	60 e1       	ldi	r22, 0x10	; 16
     c9e:	71 e0       	ldi	r23, 0x01	; 1
     ca0:	0e 94 2b 05 	call	0xa56	; 0xa56 <Write_Cmd_Data>
	Write_Cmd_Data(0x97,0x0000);   // 
     ca4:	87 e9       	ldi	r24, 0x97	; 151
     ca6:	60 e0       	ldi	r22, 0x00	; 0
     ca8:	70 e0       	ldi	r23, 0x00	; 0
     caa:	0e 94 2b 05 	call	0xa56	; 0xa56 <Write_Cmd_Data>
	Write_Cmd_Data(0x98,0x0000);   //Frame Cycle Contral.     
     cae:	88 e9       	ldi	r24, 0x98	; 152
     cb0:	60 e0       	ldi	r22, 0x00	; 0
     cb2:	70 e0       	ldi	r23, 0x00	; 0
     cb4:	0e 94 2b 05 	call	0xa56	; 0xa56 <Write_Cmd_Data>

	//-------------- Display on ---------//
    Write_Cmd_Data(0x07,0x0173); 
     cb8:	87 e0       	ldi	r24, 0x07	; 7
     cba:	63 e7       	ldi	r22, 0x73	; 115
     cbc:	71 e0       	ldi	r23, 0x01	; 1
     cbe:	0e 94 2b 05 	call	0xa56	; 0xa56 <Write_Cmd_Data>
     cc2:	08 95       	ret

	}

	else if(Device_code==0x1505 )
     cc4:	25 e1       	ldi	r18, 0x15	; 21
     cc6:	85 30       	cpi	r24, 0x05	; 5
     cc8:	92 07       	cpc	r25, r18
     cca:	09 f0       	breq	.+2      	; 0xcce <TFT_Initial+0x258>
     ccc:	01 c1       	rjmp	.+514    	; 0xed0 <TFT_Initial+0x45a>
     {

    //************* Start Initial Sequence **********//
	Write_Cmd_Data(0x00,0x0001);   //Set the OSC bit as ‘1’ to start the internal oscillator
     cce:	80 e0       	ldi	r24, 0x00	; 0
     cd0:	61 e0       	ldi	r22, 0x01	; 1
     cd2:	70 e0       	ldi	r23, 0x00	; 0
     cd4:	0e 94 2b 05 	call	0xa56	; 0xa56 <Write_Cmd_Data>
    Write_Cmd_Data(0x01,0x0100);   // set SS and SM bit
     cd8:	81 e0       	ldi	r24, 0x01	; 1
     cda:	60 e0       	ldi	r22, 0x00	; 0
     cdc:	71 e0       	ldi	r23, 0x01	; 1
     cde:	0e 94 2b 05 	call	0xa56	; 0xa56 <Write_Cmd_Data>
	Write_Cmd_Data(0x02,0x0700);   // set 1 line inversion
     ce2:	82 e0       	ldi	r24, 0x02	; 2
     ce4:	60 e0       	ldi	r22, 0x00	; 0
     ce6:	77 e0       	ldi	r23, 0x07	; 7
     ce8:	0e 94 2b 05 	call	0xa56	; 0xa56 <Write_Cmd_Data>
	Write_Cmd_Data(0x03,0x1030);   //set GRAM Write direction and BGR=1
     cec:	83 e0       	ldi	r24, 0x03	; 3
     cee:	60 e3       	ldi	r22, 0x30	; 48
     cf0:	70 e1       	ldi	r23, 0x10	; 16
     cf2:	0e 94 2b 05 	call	0xa56	; 0xa56 <Write_Cmd_Data>
    Write_Cmd_Data(0x04,0x0000);   // Resize register
     cf6:	84 e0       	ldi	r24, 0x04	; 4
     cf8:	60 e0       	ldi	r22, 0x00	; 0
     cfa:	70 e0       	ldi	r23, 0x00	; 0
     cfc:	0e 94 2b 05 	call	0xa56	; 0xa56 <Write_Cmd_Data>
	Write_Cmd_Data(0x08,0x0202);   // set the back porch and front porch
     d00:	88 e0       	ldi	r24, 0x08	; 8
     d02:	62 e0       	ldi	r22, 0x02	; 2
     d04:	72 e0       	ldi	r23, 0x02	; 2
     d06:	0e 94 2b 05 	call	0xa56	; 0xa56 <Write_Cmd_Data>
    Write_Cmd_Data(0x09,0x0000);   // set non-display area refresh cycle ISC[3:0]
     d0a:	89 e0       	ldi	r24, 0x09	; 9
     d0c:	60 e0       	ldi	r22, 0x00	; 0
     d0e:	70 e0       	ldi	r23, 0x00	; 0
     d10:	0e 94 2b 05 	call	0xa56	; 0xa56 <Write_Cmd_Data>
    Write_Cmd_Data(0x0A,0x0000);   // FMARK function
     d14:	8a e0       	ldi	r24, 0x0A	; 10
     d16:	60 e0       	ldi	r22, 0x00	; 0
     d18:	70 e0       	ldi	r23, 0x00	; 0
     d1a:	0e 94 2b 05 	call	0xa56	; 0xa56 <Write_Cmd_Data>
    Write_Cmd_Data(0x0C,0x0000);   // RGB interface setting
     d1e:	8c e0       	ldi	r24, 0x0C	; 12
     d20:	60 e0       	ldi	r22, 0x00	; 0
     d22:	70 e0       	ldi	r23, 0x00	; 0
     d24:	0e 94 2b 05 	call	0xa56	; 0xa56 <Write_Cmd_Data>
	Write_Cmd_Data(0x0D,0x0000);   // Frame marker Position
     d28:	8d e0       	ldi	r24, 0x0D	; 13
     d2a:	60 e0       	ldi	r22, 0x00	; 0
     d2c:	70 e0       	ldi	r23, 0x00	; 0
     d2e:	0e 94 2b 05 	call	0xa56	; 0xa56 <Write_Cmd_Data>
    Write_Cmd_Data(0x0F,0x0000);   // RGB interface polarity
     d32:	8f e0       	ldi	r24, 0x0F	; 15
     d34:	60 e0       	ldi	r22, 0x00	; 0
     d36:	70 e0       	ldi	r23, 0x00	; 0
     d38:	0e 94 2b 05 	call	0xa56	; 0xa56 <Write_Cmd_Data>
    delayms(30);
     d3c:	8e e1       	ldi	r24, 0x1E	; 30
     d3e:	90 e0       	ldi	r25, 0x00	; 0
     d40:	0e 94 df 04 	call	0x9be	; 0x9be <delayms>
	//*************Power On sequence ****************//
	Write_Cmd_Data(0x10, 0x16b0);   // SAP, BT[3:0], AP, DSTB, SLP, STB
     d44:	80 e1       	ldi	r24, 0x10	; 16
     d46:	60 eb       	ldi	r22, 0xB0	; 176
     d48:	76 e1       	ldi	r23, 0x16	; 22
     d4a:	0e 94 2b 05 	call	0xa56	; 0xa56 <Write_Cmd_Data>
	delayms(30);
     d4e:	8e e1       	ldi	r24, 0x1E	; 30
     d50:	90 e0       	ldi	r25, 0x00	; 0
     d52:	0e 94 df 04 	call	0x9be	; 0x9be <delayms>
	Write_Cmd_Data(0x11, 0x0007);   //Write final user’s setting values to VC bit
     d56:	81 e1       	ldi	r24, 0x11	; 17
     d58:	67 e0       	ldi	r22, 0x07	; 7
     d5a:	70 e0       	ldi	r23, 0x00	; 0
     d5c:	0e 94 2b 05 	call	0xa56	; 0xa56 <Write_Cmd_Data>
	Write_Cmd_Data(0x12, 0x013a);   // set Internal reference voltage
     d60:	82 e1       	ldi	r24, 0x12	; 18
     d62:	6a e3       	ldi	r22, 0x3A	; 58
     d64:	71 e0       	ldi	r23, 0x01	; 1
     d66:	0e 94 2b 05 	call	0xa56	; 0xa56 <Write_Cmd_Data>
	Write_Cmd_Data(0x13, 0x1a00);   // VDV[4:0] for VCOM amplitude
     d6a:	83 e1       	ldi	r24, 0x13	; 19
     d6c:	60 e0       	ldi	r22, 0x00	; 0
     d6e:	7a e1       	ldi	r23, 0x1A	; 26
     d70:	0e 94 2b 05 	call	0xa56	; 0xa56 <Write_Cmd_Data>
    delayms(30);
     d74:	8e e1       	ldi	r24, 0x1E	; 30
     d76:	90 e0       	ldi	r25, 0x00	; 0
     d78:	0e 94 df 04 	call	0x9be	; 0x9be <delayms>
    Write_Cmd_Data(0x29, 0x000c);   // Set VCM[5:0] for VCOMH
     d7c:	89 e2       	ldi	r24, 0x29	; 41
     d7e:	6c e0       	ldi	r22, 0x0C	; 12
     d80:	70 e0       	ldi	r23, 0x00	; 0
     d82:	0e 94 2b 05 	call	0xa56	; 0xa56 <Write_Cmd_Data>
	delayms(30); // Delay 50ms
     d86:	8e e1       	ldi	r24, 0x1E	; 30
     d88:	90 e0       	ldi	r25, 0x00	; 0
     d8a:	0e 94 df 04 	call	0x9be	; 0x9be <delayms>

	// ----------- Adjust the Gamma Curve ----------//
	Write_Cmd_Data(0x0030, 0x0000);
     d8e:	80 e3       	ldi	r24, 0x30	; 48
     d90:	60 e0       	ldi	r22, 0x00	; 0
     d92:	70 e0       	ldi	r23, 0x00	; 0
     d94:	0e 94 2b 05 	call	0xa56	; 0xa56 <Write_Cmd_Data>
	Write_Cmd_Data(0x0031, 0x0505);
     d98:	81 e3       	ldi	r24, 0x31	; 49
     d9a:	65 e0       	ldi	r22, 0x05	; 5
     d9c:	75 e0       	ldi	r23, 0x05	; 5
     d9e:	0e 94 2b 05 	call	0xa56	; 0xa56 <Write_Cmd_Data>
	Write_Cmd_Data(0x0032, 0x0304);
     da2:	82 e3       	ldi	r24, 0x32	; 50
     da4:	64 e0       	ldi	r22, 0x04	; 4
     da6:	73 e0       	ldi	r23, 0x03	; 3
     da8:	0e 94 2b 05 	call	0xa56	; 0xa56 <Write_Cmd_Data>
	Write_Cmd_Data(0x0035, 0x0006);
     dac:	85 e3       	ldi	r24, 0x35	; 53
     dae:	66 e0       	ldi	r22, 0x06	; 6
     db0:	70 e0       	ldi	r23, 0x00	; 0
     db2:	0e 94 2b 05 	call	0xa56	; 0xa56 <Write_Cmd_Data>
	Write_Cmd_Data(0x0036, 0x0707);
     db6:	86 e3       	ldi	r24, 0x36	; 54
     db8:	67 e0       	ldi	r22, 0x07	; 7
     dba:	77 e0       	ldi	r23, 0x07	; 7
     dbc:	0e 94 2b 05 	call	0xa56	; 0xa56 <Write_Cmd_Data>
	Write_Cmd_Data(0x0037, 0x0105);
     dc0:	87 e3       	ldi	r24, 0x37	; 55
     dc2:	65 e0       	ldi	r22, 0x05	; 5
     dc4:	71 e0       	ldi	r23, 0x01	; 1
     dc6:	0e 94 2b 05 	call	0xa56	; 0xa56 <Write_Cmd_Data>
	Write_Cmd_Data(0x0038, 0x0002);
     dca:	88 e3       	ldi	r24, 0x38	; 56
     dcc:	62 e0       	ldi	r22, 0x02	; 2
     dce:	70 e0       	ldi	r23, 0x00	; 0
     dd0:	0e 94 2b 05 	call	0xa56	; 0xa56 <Write_Cmd_Data>
	Write_Cmd_Data(0x0039, 0x0707);
     dd4:	89 e3       	ldi	r24, 0x39	; 57
     dd6:	67 e0       	ldi	r22, 0x07	; 7
     dd8:	77 e0       	ldi	r23, 0x07	; 7
     dda:	0e 94 2b 05 	call	0xa56	; 0xa56 <Write_Cmd_Data>
	Write_Cmd_Data(0x003C, 0x0704);
     dde:	8c e3       	ldi	r24, 0x3C	; 60
     de0:	64 e0       	ldi	r22, 0x04	; 4
     de2:	77 e0       	ldi	r23, 0x07	; 7
     de4:	0e 94 2b 05 	call	0xa56	; 0xa56 <Write_Cmd_Data>
	Write_Cmd_Data(0x003D, 0x0807);
     de8:	8d e3       	ldi	r24, 0x3D	; 61
     dea:	67 e0       	ldi	r22, 0x07	; 7
     dec:	78 e0       	ldi	r23, 0x08	; 8
     dee:	0e 94 2b 05 	call	0xa56	; 0xa56 <Write_Cmd_Data>

	//------------------ Set GRAM area ---------------//
	Write_Cmd_Data(0x0050, 0x0000); // Horizontal GRAM Start Address
     df2:	80 e5       	ldi	r24, 0x50	; 80
     df4:	60 e0       	ldi	r22, 0x00	; 0
     df6:	70 e0       	ldi	r23, 0x00	; 0
     df8:	0e 94 2b 05 	call	0xa56	; 0xa56 <Write_Cmd_Data>
	Write_Cmd_Data(0x0051, 0x00EF); // Horizontal GRAM End Address
     dfc:	81 e5       	ldi	r24, 0x51	; 81
     dfe:	6f ee       	ldi	r22, 0xEF	; 239
     e00:	70 e0       	ldi	r23, 0x00	; 0
     e02:	0e 94 2b 05 	call	0xa56	; 0xa56 <Write_Cmd_Data>
	Write_Cmd_Data(0x0052, 0x0000); // Vertical GRAM Start Address
     e06:	82 e5       	ldi	r24, 0x52	; 82
     e08:	60 e0       	ldi	r22, 0x00	; 0
     e0a:	70 e0       	ldi	r23, 0x00	; 0
     e0c:	0e 94 2b 05 	call	0xa56	; 0xa56 <Write_Cmd_Data>
	Write_Cmd_Data(0x0053, 0x013F); // Vertical GRAM Start Address
     e10:	83 e5       	ldi	r24, 0x53	; 83
     e12:	6f e3       	ldi	r22, 0x3F	; 63
     e14:	71 e0       	ldi	r23, 0x01	; 1
     e16:	0e 94 2b 05 	call	0xa56	; 0xa56 <Write_Cmd_Data>
	Write_Cmd_Data(0x0060, 0x2700); // Gate Scan Line
     e1a:	80 e6       	ldi	r24, 0x60	; 96
     e1c:	60 e0       	ldi	r22, 0x00	; 0
     e1e:	77 e2       	ldi	r23, 0x27	; 39
     e20:	0e 94 2b 05 	call	0xa56	; 0xa56 <Write_Cmd_Data>
	Write_Cmd_Data(0x0061, 0x0001); // NDL,VLE, REV
     e24:	81 e6       	ldi	r24, 0x61	; 97
     e26:	61 e0       	ldi	r22, 0x01	; 1
     e28:	70 e0       	ldi	r23, 0x00	; 0
     e2a:	0e 94 2b 05 	call	0xa56	; 0xa56 <Write_Cmd_Data>
	Write_Cmd_Data(0x006A, 0x2700); // set scrolling line
     e2e:	8a e6       	ldi	r24, 0x6A	; 106
     e30:	60 e0       	ldi	r22, 0x00	; 0
     e32:	77 e2       	ldi	r23, 0x27	; 39
     e34:	0e 94 2b 05 	call	0xa56	; 0xa56 <Write_Cmd_Data>
    Write_Cmd_Data(0x20, 0x0000);   // GRAM horizontal Address
     e38:	80 e2       	ldi	r24, 0x20	; 32
     e3a:	60 e0       	ldi	r22, 0x00	; 0
     e3c:	70 e0       	ldi	r23, 0x00	; 0
     e3e:	0e 94 2b 05 	call	0xa56	; 0xa56 <Write_Cmd_Data>
	Write_Cmd_Data(0x21, 0x0000);   // GRAM Vertical Address
     e42:	81 e2       	ldi	r24, 0x21	; 33
     e44:	60 e0       	ldi	r22, 0x00	; 0
     e46:	70 e0       	ldi	r23, 0x00	; 0
     e48:	0e 94 2b 05 	call	0xa56	; 0xa56 <Write_Cmd_Data>

	//-------------- Partial Display Control ---------//
	Write_Cmd_Data(0x0080, 0x0000);
     e4c:	80 e8       	ldi	r24, 0x80	; 128
     e4e:	60 e0       	ldi	r22, 0x00	; 0
     e50:	70 e0       	ldi	r23, 0x00	; 0
     e52:	0e 94 2b 05 	call	0xa56	; 0xa56 <Write_Cmd_Data>
	Write_Cmd_Data(0x0081, 0x0000);
     e56:	81 e8       	ldi	r24, 0x81	; 129
     e58:	60 e0       	ldi	r22, 0x00	; 0
     e5a:	70 e0       	ldi	r23, 0x00	; 0
     e5c:	0e 94 2b 05 	call	0xa56	; 0xa56 <Write_Cmd_Data>
	Write_Cmd_Data(0x0082, 0x0000);
     e60:	82 e8       	ldi	r24, 0x82	; 130
     e62:	60 e0       	ldi	r22, 0x00	; 0
     e64:	70 e0       	ldi	r23, 0x00	; 0
     e66:	0e 94 2b 05 	call	0xa56	; 0xa56 <Write_Cmd_Data>
	Write_Cmd_Data(0x0083, 0x0000);
     e6a:	83 e8       	ldi	r24, 0x83	; 131
     e6c:	60 e0       	ldi	r22, 0x00	; 0
     e6e:	70 e0       	ldi	r23, 0x00	; 0
     e70:	0e 94 2b 05 	call	0xa56	; 0xa56 <Write_Cmd_Data>
	Write_Cmd_Data(0x0084, 0x0000);
     e74:	84 e8       	ldi	r24, 0x84	; 132
     e76:	60 e0       	ldi	r22, 0x00	; 0
     e78:	70 e0       	ldi	r23, 0x00	; 0
     e7a:	0e 94 2b 05 	call	0xa56	; 0xa56 <Write_Cmd_Data>
	Write_Cmd_Data(0x0085, 0x0000);
     e7e:	85 e8       	ldi	r24, 0x85	; 133
     e80:	60 e0       	ldi	r22, 0x00	; 0
     e82:	70 e0       	ldi	r23, 0x00	; 0
     e84:	0e 94 2b 05 	call	0xa56	; 0xa56 <Write_Cmd_Data>

	//-------------- Panel Control ---------//
    Write_Cmd_Data(0x90,0x0010);   //Frame Cycle Contral
     e88:	80 e9       	ldi	r24, 0x90	; 144
     e8a:	60 e1       	ldi	r22, 0x10	; 16
     e8c:	70 e0       	ldi	r23, 0x00	; 0
     e8e:	0e 94 2b 05 	call	0xa56	; 0xa56 <Write_Cmd_Data>
	Write_Cmd_Data(0x92,0x0000);   //Panel Interface Contral
     e92:	82 e9       	ldi	r24, 0x92	; 146
     e94:	60 e0       	ldi	r22, 0x00	; 0
     e96:	70 e0       	ldi	r23, 0x00	; 0
     e98:	0e 94 2b 05 	call	0xa56	; 0xa56 <Write_Cmd_Data>
	Write_Cmd_Data(0x93,0x0003);   //Panel Interface Contral 3. 
     e9c:	83 e9       	ldi	r24, 0x93	; 147
     e9e:	63 e0       	ldi	r22, 0x03	; 3
     ea0:	70 e0       	ldi	r23, 0x00	; 0
     ea2:	0e 94 2b 05 	call	0xa56	; 0xa56 <Write_Cmd_Data>
	Write_Cmd_Data(0x95,0x0110);   //Frame Cycle Contral
     ea6:	85 e9       	ldi	r24, 0x95	; 149
     ea8:	60 e1       	ldi	r22, 0x10	; 16
     eaa:	71 e0       	ldi	r23, 0x01	; 1
     eac:	0e 94 2b 05 	call	0xa56	; 0xa56 <Write_Cmd_Data>
	Write_Cmd_Data(0x97,0x0000);   // 
     eb0:	87 e9       	ldi	r24, 0x97	; 151
     eb2:	60 e0       	ldi	r22, 0x00	; 0
     eb4:	70 e0       	ldi	r23, 0x00	; 0
     eb6:	0e 94 2b 05 	call	0xa56	; 0xa56 <Write_Cmd_Data>
	Write_Cmd_Data(0x98,0x0000);   //Frame Cycle Contral.     
     eba:	88 e9       	ldi	r24, 0x98	; 152
     ebc:	60 e0       	ldi	r22, 0x00	; 0
     ebe:	70 e0       	ldi	r23, 0x00	; 0
     ec0:	0e 94 2b 05 	call	0xa56	; 0xa56 <Write_Cmd_Data>

	//-------------- Display on ---------//
    Write_Cmd_Data(0x07,0x0173); 
     ec4:	87 e0       	ldi	r24, 0x07	; 7
     ec6:	63 e7       	ldi	r22, 0x73	; 115
     ec8:	71 e0       	ldi	r23, 0x01	; 1
     eca:	0e 94 2b 05 	call	0xa56	; 0xa56 <Write_Cmd_Data>
     ece:	08 95       	ret

	}

    else if(Device_code==0x9328)
     ed0:	88 52       	subi	r24, 0x28	; 40
     ed2:	93 49       	sbci	r25, 0x93	; 147
     ed4:	09 f0       	breq	.+2      	; 0xed8 <TFT_Initial+0x462>
     ed6:	21 c1       	rjmp	.+578    	; 0x111a <__stack+0x1b>
     {

    //************* Start Initial Sequence **********//
	 Write_Cmd_Data(0x0001,0x0100);   //set SS and SM bit //设置扫描方向
     ed8:	81 e0       	ldi	r24, 0x01	; 1
     eda:	60 e0       	ldi	r22, 0x00	; 0
     edc:	71 e0       	ldi	r23, 0x01	; 1
     ede:	0e 94 2b 05 	call	0xa56	; 0xa56 <Write_Cmd_Data>
    Write_Cmd_Data(0x0002,0x0700);   //EOR=1 and B/C=1 to set the line inversion  //设置行反转
     ee2:	82 e0       	ldi	r24, 0x02	; 2
     ee4:	60 e0       	ldi	r22, 0x00	; 0
     ee6:	77 e0       	ldi	r23, 0x07	; 7
     ee8:	0e 94 2b 05 	call	0xa56	; 0xa56 <Write_Cmd_Data>
    Write_Cmd_Data(0x0003,0x1030);   //set Entry Mode  //设置进入模式   
     eec:	83 e0       	ldi	r24, 0x03	; 3
     eee:	60 e3       	ldi	r22, 0x30	; 48
     ef0:	70 e1       	ldi	r23, 0x10	; 16
     ef2:	0e 94 2b 05 	call	0xa56	; 0xa56 <Write_Cmd_Data>
    Write_Cmd_Data(0x0004,0x0000);   //
     ef6:	84 e0       	ldi	r24, 0x04	; 4
     ef8:	60 e0       	ldi	r22, 0x00	; 0
     efa:	70 e0       	ldi	r23, 0x00	; 0
     efc:	0e 94 2b 05 	call	0xa56	; 0xa56 <Write_Cmd_Data>
    Write_Cmd_Data(0x00A4,0x0001);
     f00:	84 ea       	ldi	r24, 0xA4	; 164
     f02:	61 e0       	ldi	r22, 0x01	; 1
     f04:	70 e0       	ldi	r23, 0x00	; 0
     f06:	0e 94 2b 05 	call	0xa56	; 0xa56 <Write_Cmd_Data>
    Write_Cmd_Data(0x0008,0x0202); // set the back porch and front porch
     f0a:	88 e0       	ldi	r24, 0x08	; 8
     f0c:	62 e0       	ldi	r22, 0x02	; 2
     f0e:	72 e0       	ldi	r23, 0x02	; 2
     f10:	0e 94 2b 05 	call	0xa56	; 0xa56 <Write_Cmd_Data>
    Write_Cmd_Data(0x0009,0x0000); // set non-display area refresh cycle ISC[3:0]
     f14:	89 e0       	ldi	r24, 0x09	; 9
     f16:	60 e0       	ldi	r22, 0x00	; 0
     f18:	70 e0       	ldi	r23, 0x00	; 0
     f1a:	0e 94 2b 05 	call	0xa56	; 0xa56 <Write_Cmd_Data>
    Write_Cmd_Data(0x000A,0x0000); // FMARK function
     f1e:	8a e0       	ldi	r24, 0x0A	; 10
     f20:	60 e0       	ldi	r22, 0x00	; 0
     f22:	70 e0       	ldi	r23, 0x00	; 0
     f24:	0e 94 2b 05 	call	0xa56	; 0xa56 <Write_Cmd_Data>
    Write_Cmd_Data(0x000C,0x0000); // RGB interface setting
     f28:	8c e0       	ldi	r24, 0x0C	; 12
     f2a:	60 e0       	ldi	r22, 0x00	; 0
     f2c:	70 e0       	ldi	r23, 0x00	; 0
     f2e:	0e 94 2b 05 	call	0xa56	; 0xa56 <Write_Cmd_Data>
    Write_Cmd_Data(0x000D, 0x0000); // Frame marker Position
     f32:	8d e0       	ldi	r24, 0x0D	; 13
     f34:	60 e0       	ldi	r22, 0x00	; 0
     f36:	70 e0       	ldi	r23, 0x00	; 0
     f38:	0e 94 2b 05 	call	0xa56	; 0xa56 <Write_Cmd_Data>
    Write_Cmd_Data(0x000F, 0x0000); // RGB interface polarity
     f3c:	8f e0       	ldi	r24, 0x0F	; 15
     f3e:	60 e0       	ldi	r22, 0x00	; 0
     f40:	70 e0       	ldi	r23, 0x00	; 0
     f42:	0e 94 2b 05 	call	0xa56	; 0xa56 <Write_Cmd_Data>



//*************Power On sequence ****************//
    Write_Cmd_Data(0x0010, 0x0000); // SAP, BT[3:0], AP, DSTB, SLP, STB 
     f46:	80 e1       	ldi	r24, 0x10	; 16
     f48:	60 e0       	ldi	r22, 0x00	; 0
     f4a:	70 e0       	ldi	r23, 0x00	; 0
     f4c:	0e 94 2b 05 	call	0xa56	; 0xa56 <Write_Cmd_Data>
    Write_Cmd_Data(0x0011, 0x0007); // DC1[2:0], DC0[2:0], VC[2:0]
     f50:	81 e1       	ldi	r24, 0x11	; 17
     f52:	67 e0       	ldi	r22, 0x07	; 7
     f54:	70 e0       	ldi	r23, 0x00	; 0
     f56:	0e 94 2b 05 	call	0xa56	; 0xa56 <Write_Cmd_Data>
    Write_Cmd_Data(0x0012, 0x0000); // VREG1OUT voltage
     f5a:	82 e1       	ldi	r24, 0x12	; 18
     f5c:	60 e0       	ldi	r22, 0x00	; 0
     f5e:	70 e0       	ldi	r23, 0x00	; 0
     f60:	0e 94 2b 05 	call	0xa56	; 0xa56 <Write_Cmd_Data>
    Write_Cmd_Data(0x0013, 0x0000); // VDV[4:0] for VCOM amplitude 
     f64:	83 e1       	ldi	r24, 0x13	; 19
     f66:	60 e0       	ldi	r22, 0x00	; 0
     f68:	70 e0       	ldi	r23, 0x00	; 0
     f6a:	0e 94 2b 05 	call	0xa56	; 0xa56 <Write_Cmd_Data>
    delayms(30);
     f6e:	8e e1       	ldi	r24, 0x1E	; 30
     f70:	90 e0       	ldi	r25, 0x00	; 0
     f72:	0e 94 df 04 	call	0x9be	; 0x9be <delayms>
    Write_Cmd_Data(0x0010, 0x1690); // SAP, BT[3:0], AP, DSTB, SLP, STB 
     f76:	80 e1       	ldi	r24, 0x10	; 16
     f78:	60 e9       	ldi	r22, 0x90	; 144
     f7a:	76 e1       	ldi	r23, 0x16	; 22
     f7c:	0e 94 2b 05 	call	0xa56	; 0xa56 <Write_Cmd_Data>
    Write_Cmd_Data(0x0011, 0x0227); // R11h=0x0221 at VCI=3.3V, DC1[2:0], DC0[2:0], VC[2:0]
     f80:	81 e1       	ldi	r24, 0x11	; 17
     f82:	67 e2       	ldi	r22, 0x27	; 39
     f84:	72 e0       	ldi	r23, 0x02	; 2
     f86:	0e 94 2b 05 	call	0xa56	; 0xa56 <Write_Cmd_Data>
    delayms(30);
     f8a:	8e e1       	ldi	r24, 0x1E	; 30
     f8c:	90 e0       	ldi	r25, 0x00	; 0
     f8e:	0e 94 df 04 	call	0x9be	; 0x9be <delayms>
    Write_Cmd_Data(0x0012, 0x001C); // External reference voltage= Vci;
     f92:	82 e1       	ldi	r24, 0x12	; 18
     f94:	6c e1       	ldi	r22, 0x1C	; 28
     f96:	70 e0       	ldi	r23, 0x00	; 0
     f98:	0e 94 2b 05 	call	0xa56	; 0xa56 <Write_Cmd_Data>
    delayms(30); 
     f9c:	8e e1       	ldi	r24, 0x1E	; 30
     f9e:	90 e0       	ldi	r25, 0x00	; 0
     fa0:	0e 94 df 04 	call	0x9be	; 0x9be <delayms>
    Write_Cmd_Data(0x0013, 0x1800); // R13=1200 when R12=009D;VDV[4:0] for VCOM amplitude
     fa4:	83 e1       	ldi	r24, 0x13	; 19
     fa6:	60 e0       	ldi	r22, 0x00	; 0
     fa8:	78 e1       	ldi	r23, 0x18	; 24
     faa:	0e 94 2b 05 	call	0xa56	; 0xa56 <Write_Cmd_Data>
    Write_Cmd_Data(0x0029, 0x001C); // R29=000C when R12=009D;VCM[5:0] for VCOMH
     fae:	89 e2       	ldi	r24, 0x29	; 41
     fb0:	6c e1       	ldi	r22, 0x1C	; 28
     fb2:	70 e0       	ldi	r23, 0x00	; 0
     fb4:	0e 94 2b 05 	call	0xa56	; 0xa56 <Write_Cmd_Data>
    Write_Cmd_Data(0x002B, 0x000D); // Frame Rate = 91Hz
     fb8:	8b e2       	ldi	r24, 0x2B	; 43
     fba:	6d e0       	ldi	r22, 0x0D	; 13
     fbc:	70 e0       	ldi	r23, 0x00	; 0
     fbe:	0e 94 2b 05 	call	0xa56	; 0xa56 <Write_Cmd_Data>
    delayms(30);    
     fc2:	8e e1       	ldi	r24, 0x1E	; 30
     fc4:	90 e0       	ldi	r25, 0x00	; 0
     fc6:	0e 94 df 04 	call	0x9be	; 0x9be <delayms>
    Write_Cmd_Data(0x0020, 0x0000); // GRAM horizontal Address
     fca:	80 e2       	ldi	r24, 0x20	; 32
     fcc:	60 e0       	ldi	r22, 0x00	; 0
     fce:	70 e0       	ldi	r23, 0x00	; 0
     fd0:	0e 94 2b 05 	call	0xa56	; 0xa56 <Write_Cmd_Data>
    Write_Cmd_Data(0x0021, 0x0000); // GRAM Vertical Address
     fd4:	81 e2       	ldi	r24, 0x21	; 33
     fd6:	60 e0       	ldi	r22, 0x00	; 0
     fd8:	70 e0       	ldi	r23, 0x00	; 0
     fda:	0e 94 2b 05 	call	0xa56	; 0xa56 <Write_Cmd_Data>
// ----------- Adjust the Gamma Curve ----------// 		 
	Write_Cmd_Data(0x0030, 0x0007);
     fde:	80 e3       	ldi	r24, 0x30	; 48
     fe0:	67 e0       	ldi	r22, 0x07	; 7
     fe2:	70 e0       	ldi	r23, 0x00	; 0
     fe4:	0e 94 2b 05 	call	0xa56	; 0xa56 <Write_Cmd_Data>
	Write_Cmd_Data(0x0031, 0x0302);
     fe8:	81 e3       	ldi	r24, 0x31	; 49
     fea:	62 e0       	ldi	r22, 0x02	; 2
     fec:	73 e0       	ldi	r23, 0x03	; 3
     fee:	0e 94 2b 05 	call	0xa56	; 0xa56 <Write_Cmd_Data>
    Write_Cmd_Data(0x0032, 0x0105);
     ff2:	82 e3       	ldi	r24, 0x32	; 50
     ff4:	65 e0       	ldi	r22, 0x05	; 5
     ff6:	71 e0       	ldi	r23, 0x01	; 1
     ff8:	0e 94 2b 05 	call	0xa56	; 0xa56 <Write_Cmd_Data>
	Write_Cmd_Data(0x0035, 0x0206);
     ffc:	85 e3       	ldi	r24, 0x35	; 53
     ffe:	66 e0       	ldi	r22, 0x06	; 6
    1000:	72 e0       	ldi	r23, 0x02	; 2
    1002:	0e 94 2b 05 	call	0xa56	; 0xa56 <Write_Cmd_Data>
    Write_Cmd_Data(0x0036, 0x0808);	          
    1006:	86 e3       	ldi	r24, 0x36	; 54
    1008:	68 e0       	ldi	r22, 0x08	; 8
    100a:	78 e0       	ldi	r23, 0x08	; 8
    100c:	0e 94 2b 05 	call	0xa56	; 0xa56 <Write_Cmd_Data>
    Write_Cmd_Data(0x0037, 0x0206);
    1010:	87 e3       	ldi	r24, 0x37	; 55
    1012:	66 e0       	ldi	r22, 0x06	; 6
    1014:	72 e0       	ldi	r23, 0x02	; 2
    1016:	0e 94 2b 05 	call	0xa56	; 0xa56 <Write_Cmd_Data>
    Write_Cmd_Data(0x0038, 0x0504);
    101a:	88 e3       	ldi	r24, 0x38	; 56
    101c:	64 e0       	ldi	r22, 0x04	; 4
    101e:	75 e0       	ldi	r23, 0x05	; 5
    1020:	0e 94 2b 05 	call	0xa56	; 0xa56 <Write_Cmd_Data>
    Write_Cmd_Data(0x0039, 0x0007);
    1024:	89 e3       	ldi	r24, 0x39	; 57
    1026:	67 e0       	ldi	r22, 0x07	; 7
    1028:	70 e0       	ldi	r23, 0x00	; 0
    102a:	0e 94 2b 05 	call	0xa56	; 0xa56 <Write_Cmd_Data>
    Write_Cmd_Data(0x003C, 0x0105);
    102e:	8c e3       	ldi	r24, 0x3C	; 60
    1030:	65 e0       	ldi	r22, 0x05	; 5
    1032:	71 e0       	ldi	r23, 0x01	; 1
    1034:	0e 94 2b 05 	call	0xa56	; 0xa56 <Write_Cmd_Data>
    Write_Cmd_Data(0x003D, 0x0808);
    1038:	8d e3       	ldi	r24, 0x3D	; 61
    103a:	68 e0       	ldi	r22, 0x08	; 8
    103c:	78 e0       	ldi	r23, 0x08	; 8
    103e:	0e 94 2b 05 	call	0xa56	; 0xa56 <Write_Cmd_Data>
//------------------ Set GRAM area ---------------//
    Write_Cmd_Data(0x0050, 0x0000); // Horizontal GRAM Start Address
    1042:	80 e5       	ldi	r24, 0x50	; 80
    1044:	60 e0       	ldi	r22, 0x00	; 0
    1046:	70 e0       	ldi	r23, 0x00	; 0
    1048:	0e 94 2b 05 	call	0xa56	; 0xa56 <Write_Cmd_Data>
    Write_Cmd_Data(0x0051, 0x00EF); // Horizontal GRAM End Address
    104c:	81 e5       	ldi	r24, 0x51	; 81
    104e:	6f ee       	ldi	r22, 0xEF	; 239
    1050:	70 e0       	ldi	r23, 0x00	; 0
    1052:	0e 94 2b 05 	call	0xa56	; 0xa56 <Write_Cmd_Data>
    Write_Cmd_Data(0x0052, 0x0000); // Vertical GRAM Start Address
    1056:	82 e5       	ldi	r24, 0x52	; 82
    1058:	60 e0       	ldi	r22, 0x00	; 0
    105a:	70 e0       	ldi	r23, 0x00	; 0
    105c:	0e 94 2b 05 	call	0xa56	; 0xa56 <Write_Cmd_Data>
	delayms(30);
    1060:	8e e1       	ldi	r24, 0x1E	; 30
    1062:	90 e0       	ldi	r25, 0x00	; 0
    1064:	0e 94 df 04 	call	0x9be	; 0x9be <delayms>
    Write_Cmd_Data(0x0053, 0x013F); // Vertical GRAM Start Address
    1068:	83 e5       	ldi	r24, 0x53	; 83
    106a:	6f e3       	ldi	r22, 0x3F	; 63
    106c:	71 e0       	ldi	r23, 0x01	; 1
    106e:	0e 94 2b 05 	call	0xa56	; 0xa56 <Write_Cmd_Data>
	delayms(30);
    1072:	8e e1       	ldi	r24, 0x1E	; 30
    1074:	90 e0       	ldi	r25, 0x00	; 0
    1076:	0e 94 df 04 	call	0x9be	; 0x9be <delayms>
    Write_Cmd_Data(0x0060, 0xA700); // Gate Scan Line
    107a:	80 e6       	ldi	r24, 0x60	; 96
    107c:	60 e0       	ldi	r22, 0x00	; 0
    107e:	77 ea       	ldi	r23, 0xA7	; 167
    1080:	0e 94 2b 05 	call	0xa56	; 0xa56 <Write_Cmd_Data>
    Write_Cmd_Data(0x0061, 0x0001); // NDL,VLE, REV  
    1084:	81 e6       	ldi	r24, 0x61	; 97
    1086:	61 e0       	ldi	r22, 0x01	; 1
    1088:	70 e0       	ldi	r23, 0x00	; 0
    108a:	0e 94 2b 05 	call	0xa56	; 0xa56 <Write_Cmd_Data>
    Write_Cmd_Data(0x006A, 0x0000); // set scrolling line
    108e:	8a e6       	ldi	r24, 0x6A	; 106
    1090:	60 e0       	ldi	r22, 0x00	; 0
    1092:	70 e0       	ldi	r23, 0x00	; 0
    1094:	0e 94 2b 05 	call	0xa56	; 0xa56 <Write_Cmd_Data>
//-------------- Partial Display Control ---------//
    Write_Cmd_Data(0x0080, 0x0000);
    1098:	80 e8       	ldi	r24, 0x80	; 128
    109a:	60 e0       	ldi	r22, 0x00	; 0
    109c:	70 e0       	ldi	r23, 0x00	; 0
    109e:	0e 94 2b 05 	call	0xa56	; 0xa56 <Write_Cmd_Data>
    Write_Cmd_Data(0x0081, 0x0000);
    10a2:	81 e8       	ldi	r24, 0x81	; 129
    10a4:	60 e0       	ldi	r22, 0x00	; 0
    10a6:	70 e0       	ldi	r23, 0x00	; 0
    10a8:	0e 94 2b 05 	call	0xa56	; 0xa56 <Write_Cmd_Data>
    Write_Cmd_Data(0x0082,0x0000); 
    10ac:	82 e8       	ldi	r24, 0x82	; 130
    10ae:	60 e0       	ldi	r22, 0x00	; 0
    10b0:	70 e0       	ldi	r23, 0x00	; 0
    10b2:	0e 94 2b 05 	call	0xa56	; 0xa56 <Write_Cmd_Data>
    Write_Cmd_Data(0x0083,0x0000); 
    10b6:	83 e8       	ldi	r24, 0x83	; 131
    10b8:	60 e0       	ldi	r22, 0x00	; 0
    10ba:	70 e0       	ldi	r23, 0x00	; 0
    10bc:	0e 94 2b 05 	call	0xa56	; 0xa56 <Write_Cmd_Data>
    Write_Cmd_Data(0x0084,0x0000); 
    10c0:	84 e8       	ldi	r24, 0x84	; 132
    10c2:	60 e0       	ldi	r22, 0x00	; 0
    10c4:	70 e0       	ldi	r23, 0x00	; 0
    10c6:	0e 94 2b 05 	call	0xa56	; 0xa56 <Write_Cmd_Data>
    Write_Cmd_Data(0x0085,0x0000); 
    10ca:	85 e8       	ldi	r24, 0x85	; 133
    10cc:	60 e0       	ldi	r22, 0x00	; 0
    10ce:	70 e0       	ldi	r23, 0x00	; 0
    10d0:	0e 94 2b 05 	call	0xa56	; 0xa56 <Write_Cmd_Data>
//-------------- Panel Control -------------------//        
    Write_Cmd_Data(0x0090, 0x0010);
    10d4:	80 e9       	ldi	r24, 0x90	; 144
    10d6:	60 e1       	ldi	r22, 0x10	; 16
    10d8:	70 e0       	ldi	r23, 0x00	; 0
    10da:	0e 94 2b 05 	call	0xa56	; 0xa56 <Write_Cmd_Data>
    Write_Cmd_Data(0x0092, 0x0000);
    10de:	82 e9       	ldi	r24, 0x92	; 146
    10e0:	60 e0       	ldi	r22, 0x00	; 0
    10e2:	70 e0       	ldi	r23, 0x00	; 0
    10e4:	0e 94 2b 05 	call	0xa56	; 0xa56 <Write_Cmd_Data>
    Write_Cmd_Data(0x0093, 0x0003);
    10e8:	83 e9       	ldi	r24, 0x93	; 147
    10ea:	63 e0       	ldi	r22, 0x03	; 3
    10ec:	70 e0       	ldi	r23, 0x00	; 0
    10ee:	0e 94 2b 05 	call	0xa56	; 0xa56 <Write_Cmd_Data>
    Write_Cmd_Data(0x0095, 0x0110);
    10f2:	85 e9       	ldi	r24, 0x95	; 149
    10f4:	60 e1       	ldi	r22, 0x10	; 16
    10f6:	71 e0       	ldi	r23, 0x01	; 1
    10f8:	0e 94 2b 05 	call	0xa56	; 0xa56 <Write_Cmd_Data>
    Write_Cmd_Data(0x0097, 0x0000);
    10fc:	87 e9       	ldi	r24, 0x97	; 151
    10fe:	60 e0       	ldi	r22, 0x00	; 0
    1100:	70 e0       	ldi	r23, 0x00	; 0
    1102:	0e 94 2b 05 	call	0xa56	; 0xa56 <Write_Cmd_Data>
    Write_Cmd_Data(0x0098, 0x0000);
    1106:	88 e9       	ldi	r24, 0x98	; 152
    1108:	60 e0       	ldi	r22, 0x00	; 0
    110a:	70 e0       	ldi	r23, 0x00	; 0
    110c:	0e 94 2b 05 	call	0xa56	; 0xa56 <Write_Cmd_Data>
    Write_Cmd_Data(0x0007, 0x0133); // 262K color and display ON
    1110:	87 e0       	ldi	r24, 0x07	; 7
    1112:	63 e3       	ldi	r22, 0x33	; 51
    1114:	71 e0       	ldi	r23, 0x01	; 1
    1116:	0e 94 2b 05 	call	0xa56	; 0xa56 <Write_Cmd_Data>
    111a:	08 95       	ret

0000111c <LCD_SetPos>:
//	实现功能：	设置坐标
//  输入参数：  x0，y0 起始坐标
//              x1，y1 结束坐标
***************************************************************************************************/
void LCD_SetPos(unsigned int x0,unsigned int x1,unsigned int y0,unsigned int y1)
{
    111c:	af 92       	push	r10
    111e:	bf 92       	push	r11
    1120:	cf 92       	push	r12
    1122:	df 92       	push	r13
    1124:	ef 92       	push	r14
    1126:	ff 92       	push	r15
    1128:	0f 93       	push	r16
    112a:	1f 93       	push	r17
    112c:	6c 01       	movw	r12, r24
    112e:	8b 01       	movw	r16, r22
    1130:	5a 01       	movw	r10, r20
    1132:	79 01       	movw	r14, r18

  Write_Cmd_Data(0x50,x0);  // Horizontal GRAM Start Address
    1134:	80 e5       	ldi	r24, 0x50	; 80
    1136:	b6 01       	movw	r22, r12
    1138:	0e 94 2b 05 	call	0xa56	; 0xa56 <Write_Cmd_Data>
  Write_Cmd_Data(0x51,x1);  // Horizontal GRAM End Address
    113c:	81 e5       	ldi	r24, 0x51	; 81
    113e:	b8 01       	movw	r22, r16
    1140:	0e 94 2b 05 	call	0xa56	; 0xa56 <Write_Cmd_Data>
  Write_Cmd_Data(0x52,y0);  // Vertical GRAM Start Address
    1144:	82 e5       	ldi	r24, 0x52	; 82
    1146:	b5 01       	movw	r22, r10
    1148:	0e 94 2b 05 	call	0xa56	; 0xa56 <Write_Cmd_Data>
  Write_Cmd_Data(0x53,y1);  // Vertical GRAM Start Address
    114c:	83 e5       	ldi	r24, 0x53	; 83
    114e:	b7 01       	movw	r22, r14
    1150:	0e 94 2b 05 	call	0xa56	; 0xa56 <Write_Cmd_Data>
  Write_Cmd_Data(0x20,x0);  // GRAM horizontal Address
    1154:	80 e2       	ldi	r24, 0x20	; 32
    1156:	b6 01       	movw	r22, r12
    1158:	0e 94 2b 05 	call	0xa56	; 0xa56 <Write_Cmd_Data>
  Write_Cmd_Data(0x21,y0);  // GRAM Vertical Address
    115c:	81 e2       	ldi	r24, 0x21	; 33
    115e:	b5 01       	movw	r22, r10
    1160:	0e 94 2b 05 	call	0xa56	; 0xa56 <Write_Cmd_Data>
  Write_Cmd (0x00,0x22);    // 0x0022,Start to Write Data to GRAM 
    1164:	80 e0       	ldi	r24, 0x00	; 0
    1166:	62 e2       	ldi	r22, 0x22	; 34
    1168:	0e 94 e0 04 	call	0x9c0	; 0x9c0 <Write_Cmd>
}
    116c:	1f 91       	pop	r17
    116e:	0f 91       	pop	r16
    1170:	ff 90       	pop	r15
    1172:	ef 90       	pop	r14
    1174:	df 90       	pop	r13
    1176:	cf 90       	pop	r12
    1178:	bf 90       	pop	r11
    117a:	af 90       	pop	r10
    117c:	08 95       	ret

0000117e <Show_RGB>:
//              x1，y1 结束坐标
//		        Color  背景颜色
***************************************************************************************************/

void Show_RGB (unsigned int x0,unsigned int x1,unsigned int y0,unsigned int y1,unsigned int Color)
{
    117e:	6f 92       	push	r6
    1180:	7f 92       	push	r7
    1182:	8f 92       	push	r8
    1184:	9f 92       	push	r9
    1186:	af 92       	push	r10
    1188:	bf 92       	push	r11
    118a:	cf 92       	push	r12
    118c:	df 92       	push	r13
    118e:	ef 92       	push	r14
    1190:	ff 92       	push	r15
    1192:	0f 93       	push	r16
    1194:	1f 93       	push	r17
    1196:	cf 93       	push	r28
    1198:	df 93       	push	r29
    119a:	4c 01       	movw	r8, r24
    119c:	7b 01       	movw	r14, r22
    119e:	ea 01       	movw	r28, r20
    11a0:	59 01       	movw	r10, r18
	unsigned int i,j;
	LCD_SetPos(x0,x1,y0,y1);      //设置显示位置
    11a2:	0e 94 8e 08 	call	0x111c	; 0x111c <LCD_SetPos>
	for (i=y0;i<=y1;i++)
    11a6:	ac 16       	cp	r10, r28
    11a8:	bd 06       	cpc	r11, r29
    11aa:	c8 f0       	brcs	.+50     	; 0x11de <Show_RGB+0x60>
    11ac:	6e 01       	movw	r12, r28
    11ae:	c4 01       	movw	r24, r8
    11b0:	68 2c       	mov	r6, r8
    11b2:	79 2e       	mov	r7, r25
    11b4:	10 c0       	rjmp	.+32     	; 0x11d6 <Show_RGB+0x58>
    11b6:	86 2d       	mov	r24, r6
    11b8:	97 2d       	mov	r25, r7
    11ba:	ec 01       	movw	r28, r24
	{
	   for (j=x0;j<=x1;j++)
	       Write_Data_U16(Color);
    11bc:	c8 01       	movw	r24, r16
    11be:	0e 94 26 05 	call	0xa4c	; 0xa4c <Write_Data_U16>
{
	unsigned int i,j;
	LCD_SetPos(x0,x1,y0,y1);      //设置显示位置
	for (i=y0;i<=y1;i++)
	{
	   for (j=x0;j<=x1;j++)
    11c2:	21 96       	adiw	r28, 0x01	; 1
    11c4:	ec 16       	cp	r14, r28
    11c6:	fd 06       	cpc	r15, r29
    11c8:	c8 f7       	brcc	.-14     	; 0x11bc <Show_RGB+0x3e>

void Show_RGB (unsigned int x0,unsigned int x1,unsigned int y0,unsigned int y1,unsigned int Color)
{
	unsigned int i,j;
	LCD_SetPos(x0,x1,y0,y1);      //设置显示位置
	for (i=y0;i<=y1;i++)
    11ca:	08 94       	sec
    11cc:	c1 1c       	adc	r12, r1
    11ce:	d1 1c       	adc	r13, r1
    11d0:	ac 14       	cp	r10, r12
    11d2:	bd 04       	cpc	r11, r13
    11d4:	20 f0       	brcs	.+8      	; 0x11de <Show_RGB+0x60>
	{
	   for (j=x0;j<=x1;j++)
    11d6:	e8 14       	cp	r14, r8
    11d8:	f9 04       	cpc	r15, r9
    11da:	68 f7       	brcc	.-38     	; 0x11b6 <Show_RGB+0x38>
    11dc:	f6 cf       	rjmp	.-20     	; 0x11ca <Show_RGB+0x4c>
	       Write_Data_U16(Color);
	}
}
    11de:	df 91       	pop	r29
    11e0:	cf 91       	pop	r28
    11e2:	1f 91       	pop	r17
    11e4:	0f 91       	pop	r16
    11e6:	ff 90       	pop	r15
    11e8:	ef 90       	pop	r14
    11ea:	df 90       	pop	r13
    11ec:	cf 90       	pop	r12
    11ee:	bf 90       	pop	r11
    11f0:	af 90       	pop	r10
    11f2:	9f 90       	pop	r9
    11f4:	8f 90       	pop	r8
    11f6:	7f 90       	pop	r7
    11f8:	6f 90       	pop	r6
    11fa:	08 95       	ret

000011fc <PutGB2424>:
          y 纵坐标
          c 需要显示的汉字码
	  fColor 字符颜色
          bColor 字符背景颜色
***********************************************************************************************************/
void PutGB2424(unsigned short x, unsigned short  y, unsigned char c[2], unsigned int fColor,unsigned int bColor){
    11fc:	2f 92       	push	r2
    11fe:	3f 92       	push	r3
    1200:	4f 92       	push	r4
    1202:	5f 92       	push	r5
    1204:	6f 92       	push	r6
    1206:	7f 92       	push	r7
    1208:	8f 92       	push	r8
    120a:	9f 92       	push	r9
    120c:	af 92       	push	r10
    120e:	bf 92       	push	r11
    1210:	cf 92       	push	r12
    1212:	df 92       	push	r13
    1214:	ef 92       	push	r14
    1216:	ff 92       	push	r15
    1218:	0f 93       	push	r16
    121a:	1f 93       	push	r17
    121c:	df 93       	push	r29
    121e:	cf 93       	push	r28
    1220:	00 d0       	rcall	.+0      	; 0x1222 <PutGB2424+0x26>
    1222:	00 d0       	rcall	.+0      	; 0x1224 <PutGB2424+0x28>
    1224:	cd b7       	in	r28, 0x3d	; 61
    1226:	de b7       	in	r29, 0x3e	; 62
    1228:	fb 01       	movw	r30, r22
    122a:	5a 83       	std	Y+2, r21	; 0x02
    122c:	49 83       	std	Y+1, r20	; 0x01
    122e:	49 01       	movw	r8, r18
    1230:	58 01       	movw	r10, r16
	unsigned int i,j,k;

	LCD_SetPos(x,  x+24-1,y, y+24-1);
    1232:	bc 01       	movw	r22, r24
    1234:	69 5e       	subi	r22, 0xE9	; 233
    1236:	7f 4f       	sbci	r23, 0xFF	; 255
    1238:	9f 01       	movw	r18, r30
    123a:	29 5e       	subi	r18, 0xE9	; 233
    123c:	3f 4f       	sbci	r19, 0xFF	; 255
    123e:	af 01       	movw	r20, r30
    1240:	0e 94 8e 08 	call	0x111c	; 0x111c <LCD_SetPos>
    1244:	0f 2e       	mov	r0, r31
    1246:	fb ea       	ldi	r31, 0xAB	; 171
    1248:	6f 2e       	mov	r6, r31
    124a:	f7 e0       	ldi	r31, 0x07	; 7
    124c:	7f 2e       	mov	r7, r31
    124e:	f0 2d       	mov	r31, r0
    1250:	44 24       	eor	r4, r4
    1252:	55 24       	eor	r5, r5

	for (k=0;k<12;k++) { //11表示自建汉字库中的个数，循环查询内码
	  if ((codeGB_24[k].Index[0]==c[0])&&(codeGB_24[k].Index[1]==c[1])){ 
    	for(i=0;i<72;i++) {
		  unsigned short m=codeGB_24[k].Msk[i];
    1254:	80 e0       	ldi	r24, 0x00	; 0
    1256:	90 e0       	ldi	r25, 0x00	; 0
    1258:	28 2e       	mov	r2, r24
    125a:	39 2e       	mov	r3, r25
	unsigned int i,j,k;

	LCD_SetPos(x,  x+24-1,y, y+24-1);

	for (k=0;k<12;k++) { //11表示自建汉字库中的个数，循环查询内码
	  if ((codeGB_24[k].Index[0]==c[0])&&(codeGB_24[k].Index[1]==c[1])){ 
    125c:	d3 01       	movw	r26, r6
    125e:	9c 91       	ld	r25, X
    1260:	e9 81       	ldd	r30, Y+1	; 0x01
    1262:	fa 81       	ldd	r31, Y+2	; 0x02
    1264:	80 81       	ld	r24, Z
    1266:	98 17       	cp	r25, r24
    1268:	09 f0       	breq	.+2      	; 0x126c <PutGB2424+0x70>
    126a:	48 c0       	rjmp	.+144    	; 0x12fc <PutGB2424+0x100>
    126c:	11 96       	adiw	r26, 0x01	; 1
    126e:	9c 91       	ld	r25, X
    1270:	81 81       	ldd	r24, Z+1	; 0x01
    1272:	98 17       	cp	r25, r24
    1274:	09 f0       	breq	.+2      	; 0x1278 <PutGB2424+0x7c>
    1276:	42 c0       	rjmp	.+132    	; 0x12fc <PutGB2424+0x100>
    1278:	c2 01       	movw	r24, r4
    127a:	88 0f       	add	r24, r24
    127c:	99 1f       	adc	r25, r25
    127e:	88 0f       	add	r24, r24
    1280:	99 1f       	adc	r25, r25
    1282:	9c 01       	movw	r18, r24
    1284:	22 0f       	add	r18, r18
    1286:	33 1f       	adc	r19, r19
    1288:	22 0f       	add	r18, r18
    128a:	33 1f       	adc	r19, r19
    128c:	22 0f       	add	r18, r18
    128e:	33 1f       	adc	r19, r19
    1290:	82 0f       	add	r24, r18
    1292:	93 1f       	adc	r25, r19
    1294:	84 0d       	add	r24, r4
    1296:	95 1d       	adc	r25, r5
    1298:	01 96       	adiw	r24, 0x01	; 1
    129a:	88 0f       	add	r24, r24
    129c:	99 1f       	adc	r25, r25
    129e:	0f 2e       	mov	r0, r31
    12a0:	fb ea       	ldi	r31, 0xAB	; 171
    12a2:	cf 2e       	mov	r12, r31
    12a4:	f7 e0       	ldi	r31, 0x07	; 7
    12a6:	df 2e       	mov	r13, r31
    12a8:	f0 2d       	mov	r31, r0
    12aa:	c8 0e       	add	r12, r24
    12ac:	d9 1e       	adc	r13, r25
    12ae:	ee 24       	eor	r14, r14
    12b0:	ff 24       	eor	r15, r15
    	for(i=0;i<72;i++) {
		  unsigned short m=codeGB_24[k].Msk[i];
    12b2:	d6 01       	movw	r26, r12
    12b4:	8c 91       	ld	r24, X
    12b6:	08 2f       	mov	r16, r24
    12b8:	10 e0       	ldi	r17, 0x00	; 0
    12ba:	82 2d       	mov	r24, r2
    12bc:	93 2d       	mov	r25, r3
    12be:	9c 83       	std	Y+4, r25	; 0x04
    12c0:	8b 83       	std	Y+3, r24	; 0x03
		  for(j=0;j<8;j++) {
			if((m&0x80)==0x80) {
    12c2:	00 23       	and	r16, r16
    12c4:	24 f4       	brge	.+8      	; 0x12ce <PutGB2424+0xd2>
				Write_Data_U16(fColor);
    12c6:	c4 01       	movw	r24, r8
    12c8:	0e 94 26 05 	call	0xa4c	; 0xa4c <Write_Data_U16>
    12cc:	03 c0       	rjmp	.+6      	; 0x12d4 <PutGB2424+0xd8>
				}
			else {
				Write_Data_U16(bColor);
    12ce:	c5 01       	movw	r24, r10
    12d0:	0e 94 26 05 	call	0xa4c	; 0xa4c <Write_Data_U16>

	for (k=0;k<12;k++) { //11表示自建汉字库中的个数，循环查询内码
	  if ((codeGB_24[k].Index[0]==c[0])&&(codeGB_24[k].Index[1]==c[1])){ 
    	for(i=0;i<72;i++) {
		  unsigned short m=codeGB_24[k].Msk[i];
		  for(j=0;j<8;j++) {
    12d4:	eb 81       	ldd	r30, Y+3	; 0x03
    12d6:	fc 81       	ldd	r31, Y+4	; 0x04
    12d8:	31 96       	adiw	r30, 0x01	; 1
    12da:	fc 83       	std	Y+4, r31	; 0x04
    12dc:	eb 83       	std	Y+3, r30	; 0x03
    12de:	38 97       	sbiw	r30, 0x08	; 8
    12e0:	19 f0       	breq	.+6      	; 0x12e8 <PutGB2424+0xec>
				Write_Data_U16(fColor);
				}
			else {
				Write_Data_U16(bColor);
				}
			m<<=1;
    12e2:	00 0f       	add	r16, r16
    12e4:	11 1f       	adc	r17, r17
    12e6:	ed cf       	rjmp	.-38     	; 0x12c2 <PutGB2424+0xc6>

	LCD_SetPos(x,  x+24-1,y, y+24-1);

	for (k=0;k<12;k++) { //11表示自建汉字库中的个数，循环查询内码
	  if ((codeGB_24[k].Index[0]==c[0])&&(codeGB_24[k].Index[1]==c[1])){ 
    	for(i=0;i<72;i++) {
    12e8:	08 94       	sec
    12ea:	e1 1c       	adc	r14, r1
    12ec:	f1 1c       	adc	r15, r1
    12ee:	08 94       	sec
    12f0:	c1 1c       	adc	r12, r1
    12f2:	d1 1c       	adc	r13, r1
    12f4:	f8 e4       	ldi	r31, 0x48	; 72
    12f6:	ef 16       	cp	r14, r31
    12f8:	f1 04       	cpc	r15, r1
    12fa:	d9 f6       	brne	.-74     	; 0x12b2 <PutGB2424+0xb6>
void PutGB2424(unsigned short x, unsigned short  y, unsigned char c[2], unsigned int fColor,unsigned int bColor){
	unsigned int i,j,k;

	LCD_SetPos(x,  x+24-1,y, y+24-1);

	for (k=0;k<12;k++) { //11表示自建汉字库中的个数，循环查询内码
    12fc:	08 94       	sec
    12fe:	41 1c       	adc	r4, r1
    1300:	51 1c       	adc	r5, r1
    1302:	8a e4       	ldi	r24, 0x4A	; 74
    1304:	90 e0       	ldi	r25, 0x00	; 0
    1306:	68 0e       	add	r6, r24
    1308:	79 1e       	adc	r7, r25
    130a:	9c e0       	ldi	r25, 0x0C	; 12
    130c:	49 16       	cp	r4, r25
    130e:	51 04       	cpc	r5, r1
    1310:	09 f0       	breq	.+2      	; 0x1314 <PutGB2424+0x118>
    1312:	a4 cf       	rjmp	.-184    	; 0x125c <PutGB2424+0x60>
			m<<=1;
			} 
		  }
		}  
	  }	
}
    1314:	0f 90       	pop	r0
    1316:	0f 90       	pop	r0
    1318:	0f 90       	pop	r0
    131a:	0f 90       	pop	r0
    131c:	cf 91       	pop	r28
    131e:	df 91       	pop	r29
    1320:	1f 91       	pop	r17
    1322:	0f 91       	pop	r16
    1324:	ff 90       	pop	r15
    1326:	ef 90       	pop	r14
    1328:	df 90       	pop	r13
    132a:	cf 90       	pop	r12
    132c:	bf 90       	pop	r11
    132e:	af 90       	pop	r10
    1330:	9f 90       	pop	r9
    1332:	8f 90       	pop	r8
    1334:	7f 90       	pop	r7
    1336:	6f 90       	pop	r6
    1338:	5f 90       	pop	r5
    133a:	4f 90       	pop	r4
    133c:	3f 90       	pop	r3
    133e:	2f 90       	pop	r2
    1340:	08 95       	ret

00001342 <Put16x16>:
//		        fColor 字符颜色
//		        bColor 字符背景颜色
***************************************************************************************************/

void Put16x16(unsigned short x, unsigned short  y, unsigned char g[2], unsigned int fColor,unsigned int bColor)
{
    1342:	2f 92       	push	r2
    1344:	3f 92       	push	r3
    1346:	4f 92       	push	r4
    1348:	5f 92       	push	r5
    134a:	6f 92       	push	r6
    134c:	7f 92       	push	r7
    134e:	8f 92       	push	r8
    1350:	9f 92       	push	r9
    1352:	af 92       	push	r10
    1354:	bf 92       	push	r11
    1356:	cf 92       	push	r12
    1358:	df 92       	push	r13
    135a:	ef 92       	push	r14
    135c:	ff 92       	push	r15
    135e:	0f 93       	push	r16
    1360:	1f 93       	push	r17
    1362:	df 93       	push	r29
    1364:	cf 93       	push	r28
    1366:	00 d0       	rcall	.+0      	; 0x1368 <Put16x16+0x26>
    1368:	00 d0       	rcall	.+0      	; 0x136a <Put16x16+0x28>
    136a:	cd b7       	in	r28, 0x3d	; 61
    136c:	de b7       	in	r29, 0x3e	; 62
    136e:	fb 01       	movw	r30, r22
    1370:	5a 83       	std	Y+2, r21	; 0x02
    1372:	49 83       	std	Y+1, r20	; 0x01
    1374:	49 01       	movw	r8, r18
    1376:	58 01       	movw	r10, r16
	unsigned int i,j,k;

	LCD_SetPos(x,  x+16-1,y, y+16-1);                       //设置汉字显示位置
    1378:	bc 01       	movw	r22, r24
    137a:	61 5f       	subi	r22, 0xF1	; 241
    137c:	7f 4f       	sbci	r23, 0xFF	; 255
    137e:	9f 01       	movw	r18, r30
    1380:	21 5f       	subi	r18, 0xF1	; 241
    1382:	3f 4f       	sbci	r19, 0xFF	; 255
    1384:	af 01       	movw	r20, r30
    1386:	0e 94 8e 08 	call	0x111c	; 0x111c <LCD_SetPos>
    138a:	0f 2e       	mov	r0, r31
    138c:	ff e8       	ldi	r31, 0x8F	; 143
    138e:	6f 2e       	mov	r6, r31
    1390:	fa e0       	ldi	r31, 0x0A	; 10
    1392:	7f 2e       	mov	r7, r31
    1394:	f0 2d       	mov	r31, r0
    1396:	44 24       	eor	r4, r4
    1398:	55 24       	eor	r5, r5
	{ 
	  if ((ch16[k].GBK[0]==g[0])&&(ch16[k].GBK[1]==g[1]))   //判断第k个汉字的编码是否与输入汉字g[2]相等
	  { 
    	for(i=0;i<32;i++)                                   //如果相等，既已找到待显示字模位置，循环写入32字节
		{
		  unsigned short m=ch16[k].hz16[i];                 //读取32字节中的第i字节
    139a:	80 e0       	ldi	r24, 0x00	; 0
    139c:	90 e0       	ldi	r25, 0x00	; 0
    139e:	28 2e       	mov	r2, r24
    13a0:	39 2e       	mov	r3, r25

	LCD_SetPos(x,  x+16-1,y, y+16-1);                       //设置汉字显示位置

	for (k=0;k<32;k++)                                      //循环32次，查询汉字字模位置
	{ 
	  if ((ch16[k].GBK[0]==g[0])&&(ch16[k].GBK[1]==g[1]))   //判断第k个汉字的编码是否与输入汉字g[2]相等
    13a2:	d3 01       	movw	r26, r6
    13a4:	9c 91       	ld	r25, X
    13a6:	e9 81       	ldd	r30, Y+1	; 0x01
    13a8:	fa 81       	ldd	r31, Y+2	; 0x02
    13aa:	80 81       	ld	r24, Z
    13ac:	98 17       	cp	r25, r24
    13ae:	09 f0       	breq	.+2      	; 0x13b2 <Put16x16+0x70>
    13b0:	40 c0       	rjmp	.+128    	; 0x1432 <Put16x16+0xf0>
    13b2:	11 96       	adiw	r26, 0x01	; 1
    13b4:	9c 91       	ld	r25, X
    13b6:	81 81       	ldd	r24, Z+1	; 0x01
    13b8:	98 17       	cp	r25, r24
    13ba:	d9 f5       	brne	.+118    	; 0x1432 <Put16x16+0xf0>
    13bc:	c2 01       	movw	r24, r4
    13be:	82 95       	swap	r24
    13c0:	92 95       	swap	r25
    13c2:	90 7f       	andi	r25, 0xF0	; 240
    13c4:	98 27       	eor	r25, r24
    13c6:	80 7f       	andi	r24, 0xF0	; 240
    13c8:	98 27       	eor	r25, r24
    13ca:	84 0d       	add	r24, r4
    13cc:	95 1d       	adc	r25, r5
    13ce:	01 96       	adiw	r24, 0x01	; 1
    13d0:	88 0f       	add	r24, r24
    13d2:	99 1f       	adc	r25, r25
    13d4:	0f 2e       	mov	r0, r31
    13d6:	ff e8       	ldi	r31, 0x8F	; 143
    13d8:	cf 2e       	mov	r12, r31
    13da:	fa e0       	ldi	r31, 0x0A	; 10
    13dc:	df 2e       	mov	r13, r31
    13de:	f0 2d       	mov	r31, r0
    13e0:	c8 0e       	add	r12, r24
    13e2:	d9 1e       	adc	r13, r25
    13e4:	ee 24       	eor	r14, r14
    13e6:	ff 24       	eor	r15, r15
	  { 
    	for(i=0;i<32;i++)                                   //如果相等，既已找到待显示字模位置，循环写入32字节
		{
		  unsigned short m=ch16[k].hz16[i];                 //读取32字节中的第i字节
    13e8:	d6 01       	movw	r26, r12
    13ea:	8c 91       	ld	r24, X
    13ec:	08 2f       	mov	r16, r24
    13ee:	10 e0       	ldi	r17, 0x00	; 0
    13f0:	82 2d       	mov	r24, r2
    13f2:	93 2d       	mov	r25, r3
    13f4:	9c 83       	std	Y+4, r25	; 0x04
    13f6:	8b 83       	std	Y+3, r24	; 0x03
		  for(j=0;j<8;j++)                                  //循环写入8位数据
		   {                                                
			 if((m&0x80)==0x80) Write_Data_U16(fColor);     //判断最高位是否为1,最高位为1，写入字符颜色
    13f8:	00 23       	and	r16, r16
    13fa:	24 f4       	brge	.+8      	; 0x1404 <Put16x16+0xc2>
    13fc:	c4 01       	movw	r24, r8
    13fe:	0e 94 26 05 	call	0xa4c	; 0xa4c <Write_Data_U16>
    1402:	03 c0       	rjmp	.+6      	; 0x140a <Put16x16+0xc8>
			 else              Write_Data_U16(bColor);      //最高位为0，写入背景颜色
    1404:	c5 01       	movw	r24, r10
    1406:	0e 94 26 05 	call	0xa4c	; 0xa4c <Write_Data_U16>
	  if ((ch16[k].GBK[0]==g[0])&&(ch16[k].GBK[1]==g[1]))   //判断第k个汉字的编码是否与输入汉字g[2]相等
	  { 
    	for(i=0;i<32;i++)                                   //如果相等，既已找到待显示字模位置，循环写入32字节
		{
		  unsigned short m=ch16[k].hz16[i];                 //读取32字节中的第i字节
		  for(j=0;j<8;j++)                                  //循环写入8位数据
    140a:	eb 81       	ldd	r30, Y+3	; 0x03
    140c:	fc 81       	ldd	r31, Y+4	; 0x04
    140e:	31 96       	adiw	r30, 0x01	; 1
    1410:	fc 83       	std	Y+4, r31	; 0x04
    1412:	eb 83       	std	Y+3, r30	; 0x03
    1414:	38 97       	sbiw	r30, 0x08	; 8
    1416:	19 f0       	breq	.+6      	; 0x141e <Put16x16+0xdc>
		   {                                                
			 if((m&0x80)==0x80) Write_Data_U16(fColor);     //判断最高位是否为1,最高位为1，写入字符颜色
			 else              Write_Data_U16(bColor);      //最高位为0，写入背景颜色
		     m<<=1;                                         //左移1位，准备写下一位
    1418:	00 0f       	add	r16, r16
    141a:	11 1f       	adc	r17, r17
    141c:	ed cf       	rjmp	.-38     	; 0x13f8 <Put16x16+0xb6>

	for (k=0;k<32;k++)                                      //循环32次，查询汉字字模位置
	{ 
	  if ((ch16[k].GBK[0]==g[0])&&(ch16[k].GBK[1]==g[1]))   //判断第k个汉字的编码是否与输入汉字g[2]相等
	  { 
    	for(i=0;i<32;i++)                                   //如果相等，既已找到待显示字模位置，循环写入32字节
    141e:	08 94       	sec
    1420:	e1 1c       	adc	r14, r1
    1422:	f1 1c       	adc	r15, r1
    1424:	08 94       	sec
    1426:	c1 1c       	adc	r12, r1
    1428:	d1 1c       	adc	r13, r1
    142a:	f0 e2       	ldi	r31, 0x20	; 32
    142c:	ef 16       	cp	r14, r31
    142e:	f1 04       	cpc	r15, r1
    1430:	d9 f6       	brne	.-74     	; 0x13e8 <Put16x16+0xa6>
{
	unsigned int i,j,k;

	LCD_SetPos(x,  x+16-1,y, y+16-1);                       //设置汉字显示位置

	for (k=0;k<32;k++)                                      //循环32次，查询汉字字模位置
    1432:	08 94       	sec
    1434:	41 1c       	adc	r4, r1
    1436:	51 1c       	adc	r5, r1
    1438:	82 e2       	ldi	r24, 0x22	; 34
    143a:	90 e0       	ldi	r25, 0x00	; 0
    143c:	68 0e       	add	r6, r24
    143e:	79 1e       	adc	r7, r25
    1440:	90 e2       	ldi	r25, 0x20	; 32
    1442:	49 16       	cp	r4, r25
    1444:	51 04       	cpc	r5, r1
    1446:	09 f0       	breq	.+2      	; 0x144a <Put16x16+0x108>
    1448:	ac cf       	rjmp	.-168    	; 0x13a2 <Put16x16+0x60>
		     m<<=1;                                         //左移1位，准备写下一位
	       } 
		}
	  }  
    }	
}
    144a:	0f 90       	pop	r0
    144c:	0f 90       	pop	r0
    144e:	0f 90       	pop	r0
    1450:	0f 90       	pop	r0
    1452:	cf 91       	pop	r28
    1454:	df 91       	pop	r29
    1456:	1f 91       	pop	r17
    1458:	0f 91       	pop	r16
    145a:	ff 90       	pop	r15
    145c:	ef 90       	pop	r14
    145e:	df 90       	pop	r13
    1460:	cf 90       	pop	r12
    1462:	bf 90       	pop	r11
    1464:	af 90       	pop	r10
    1466:	9f 90       	pop	r9
    1468:	8f 90       	pop	r8
    146a:	7f 90       	pop	r7
    146c:	6f 90       	pop	r6
    146e:	5f 90       	pop	r5
    1470:	4f 90       	pop	r4
    1472:	3f 90       	pop	r3
    1474:	2f 90       	pop	r2
    1476:	08 95       	ret

00001478 <LCD_PutChar>:
//		        fColor 字符颜色
//		        bColor 字符背景颜色
***************************************************************************************************/
//#include "Ascii_8x16.h"
void LCD_PutChar(unsigned short x, unsigned short y, char c, unsigned int fColor, unsigned int bColor)
{
    1478:	6f 92       	push	r6
    147a:	7f 92       	push	r7
    147c:	8f 92       	push	r8
    147e:	9f 92       	push	r9
    1480:	af 92       	push	r10
    1482:	bf 92       	push	r11
    1484:	cf 92       	push	r12
    1486:	df 92       	push	r13
    1488:	ef 92       	push	r14
    148a:	ff 92       	push	r15
    148c:	0f 93       	push	r16
    148e:	1f 93       	push	r17
    1490:	cf 93       	push	r28
    1492:	df 93       	push	r29
    1494:	fb 01       	movw	r30, r22
    1496:	f4 2e       	mov	r15, r20
    1498:	59 01       	movw	r10, r18
    149a:	68 01       	movw	r12, r16
 unsigned int i,j;
 LCD_SetPos(x,x+8-1,y,y+16-1);                    //设置字符显示位置
    149c:	bc 01       	movw	r22, r24
    149e:	69 5f       	subi	r22, 0xF9	; 249
    14a0:	7f 4f       	sbci	r23, 0xFF	; 255
    14a2:	9f 01       	movw	r18, r30
    14a4:	21 5f       	subi	r18, 0xF1	; 241
    14a6:	3f 4f       	sbci	r19, 0xFF	; 255
    14a8:	af 01       	movw	r20, r30
    14aa:	0e 94 8e 08 	call	0x111c	; 0x111c <LCD_SetPos>
 for(i=0; i<16;i++) {                             //循环写入16字节，一个字符为16字节
		unsigned char m=Font8x16[(c-0x20)*16+i];  //提取c字符的第i个字节以,c减去0x20是由于Ascii码库中的0~1f被去掉
    14ae:	4f 2d       	mov	r20, r15
    14b0:	50 e0       	ldi	r21, 0x00	; 0
    14b2:	40 52       	subi	r20, 0x20	; 32
    14b4:	50 40       	sbci	r21, 0x00	; 0
    14b6:	42 95       	swap	r20
    14b8:	52 95       	swap	r21
    14ba:	50 7f       	andi	r21, 0xF0	; 240
    14bc:	54 27       	eor	r21, r20
    14be:	40 7f       	andi	r20, 0xF0	; 240
    14c0:	54 27       	eor	r21, r20
    14c2:	0f 2e       	mov	r0, r31
    14c4:	fb ea       	ldi	r31, 0xAB	; 171
    14c6:	ef 2e       	mov	r14, r31
    14c8:	f1 e0       	ldi	r31, 0x01	; 1
    14ca:	ff 2e       	mov	r15, r31
    14cc:	f0 2d       	mov	r31, r0
    14ce:	e4 0e       	add	r14, r20
    14d0:	f5 1e       	adc	r15, r21
    14d2:	66 24       	eor	r6, r6
    14d4:	77 24       	eor	r7, r7
//#include "Ascii_8x16.h"
void LCD_PutChar(unsigned short x, unsigned short y, char c, unsigned int fColor, unsigned int bColor)
{
 unsigned int i,j;
 LCD_SetPos(x,x+8-1,y,y+16-1);                    //设置字符显示位置
 for(i=0; i<16;i++) {                             //循环写入16字节，一个字符为16字节
    14d6:	40 5f       	subi	r20, 0xF0	; 240
    14d8:	5f 4f       	sbci	r21, 0xFF	; 255
    14da:	0f 2e       	mov	r0, r31
    14dc:	fb ea       	ldi	r31, 0xAB	; 171
    14de:	8f 2e       	mov	r8, r31
    14e0:	f1 e0       	ldi	r31, 0x01	; 1
    14e2:	9f 2e       	mov	r9, r31
    14e4:	f0 2d       	mov	r31, r0
    14e6:	84 0e       	add	r8, r20
    14e8:	95 1e       	adc	r9, r21
		unsigned char m=Font8x16[(c-0x20)*16+i];  //提取c字符的第i个字节以,c减去0x20是由于Ascii码库中的0~1f被去掉
    14ea:	f7 01       	movw	r30, r14
    14ec:	10 81       	ld	r17, Z
    14ee:	e3 01       	movw	r28, r6
		for(j=0;j<8;j++) {                        //循环写入8位，一个字节为8位
			if((m&0x80)==0x80) {                  //判断最高位是否为1
    14f0:	11 23       	and	r17, r17
    14f2:	24 f4       	brge	.+8      	; 0x14fc <LCD_PutChar+0x84>
				Write_Data_U16(fColor);           //最高位为1，写入字符颜色
    14f4:	c5 01       	movw	r24, r10
    14f6:	0e 94 26 05 	call	0xa4c	; 0xa4c <Write_Data_U16>
    14fa:	03 c0       	rjmp	.+6      	; 0x1502 <LCD_PutChar+0x8a>
				}
			else {
				Write_Data_U16(bColor);           //最高位为0，写入背景颜色
    14fc:	c6 01       	movw	r24, r12
    14fe:	0e 94 26 05 	call	0xa4c	; 0xa4c <Write_Data_U16>
{
 unsigned int i,j;
 LCD_SetPos(x,x+8-1,y,y+16-1);                    //设置字符显示位置
 for(i=0; i<16;i++) {                             //循环写入16字节，一个字符为16字节
		unsigned char m=Font8x16[(c-0x20)*16+i];  //提取c字符的第i个字节以,c减去0x20是由于Ascii码库中的0~1f被去掉
		for(j=0;j<8;j++) {                        //循环写入8位，一个字节为8位
    1502:	21 96       	adiw	r28, 0x01	; 1
    1504:	c8 30       	cpi	r28, 0x08	; 8
    1506:	d1 05       	cpc	r29, r1
    1508:	11 f0       	breq	.+4      	; 0x150e <LCD_PutChar+0x96>
				Write_Data_U16(fColor);           //最高位为1，写入字符颜色
				}
			else {
				Write_Data_U16(bColor);           //最高位为0，写入背景颜色
				}
			m<<=1;                                //左移1位，准备写下一位
    150a:	11 0f       	add	r17, r17
    150c:	f1 cf       	rjmp	.-30     	; 0x14f0 <LCD_PutChar+0x78>
    150e:	08 94       	sec
    1510:	e1 1c       	adc	r14, r1
    1512:	f1 1c       	adc	r15, r1
//#include "Ascii_8x16.h"
void LCD_PutChar(unsigned short x, unsigned short y, char c, unsigned int fColor, unsigned int bColor)
{
 unsigned int i,j;
 LCD_SetPos(x,x+8-1,y,y+16-1);                    //设置字符显示位置
 for(i=0; i<16;i++) {                             //循环写入16字节，一个字符为16字节
    1514:	e8 14       	cp	r14, r8
    1516:	f9 04       	cpc	r15, r9
    1518:	41 f7       	brne	.-48     	; 0x14ea <LCD_PutChar+0x72>
				Write_Data_U16(bColor);           //最高位为0，写入背景颜色
				}
			m<<=1;                                //左移1位，准备写下一位
			}
		}
}
    151a:	df 91       	pop	r29
    151c:	cf 91       	pop	r28
    151e:	1f 91       	pop	r17
    1520:	0f 91       	pop	r16
    1522:	ff 90       	pop	r15
    1524:	ef 90       	pop	r14
    1526:	df 90       	pop	r13
    1528:	cf 90       	pop	r12
    152a:	bf 90       	pop	r11
    152c:	af 90       	pop	r10
    152e:	9f 90       	pop	r9
    1530:	8f 90       	pop	r8
    1532:	7f 90       	pop	r7
    1534:	6f 90       	pop	r6
    1536:	08 95       	ret

00001538 <LCD_PutString24>:
          y 纵坐标
         *s 需要显示的字符串
	  fColor 字符颜色
          bColor 字符背景颜色
******************************************************************************************/
void LCD_PutString24(unsigned short x, unsigned short y, unsigned char *s, unsigned int fColor, unsigned int bColor) {
    1538:	6f 92       	push	r6
    153a:	7f 92       	push	r7
    153c:	8f 92       	push	r8
    153e:	9f 92       	push	r9
    1540:	af 92       	push	r10
    1542:	bf 92       	push	r11
    1544:	cf 92       	push	r12
    1546:	df 92       	push	r13
    1548:	ef 92       	push	r14
    154a:	ff 92       	push	r15
    154c:	0f 93       	push	r16
    154e:	1f 93       	push	r17
    1550:	cf 93       	push	r28
    1552:	df 93       	push	r29
    1554:	3c 01       	movw	r6, r24
    1556:	4b 01       	movw	r8, r22
    1558:	ea 01       	movw	r28, r20
    155a:	59 01       	movw	r10, r18
    155c:	68 01       	movw	r12, r16
    155e:	ff 24       	eor	r15, r15
			LCD_PutChar(x+l*8,y,*s,fColor,bColor);
			s++;l++;
			}
		else
		    {
			PutGB2424(x+l*12,y,(unsigned char*)s,fColor,bColor);
    1560:	0f 2e       	mov	r0, r31
    1562:	fc e0       	ldi	r31, 0x0C	; 12
    1564:	ef 2e       	mov	r14, r31
    1566:	f0 2d       	mov	r31, r0
    1568:	22 c0       	rjmp	.+68     	; 0x15ae <LCD_PutString24+0x76>
          bColor 字符背景颜色
******************************************************************************************/
void LCD_PutString24(unsigned short x, unsigned short y, unsigned char *s, unsigned int fColor, unsigned int bColor) {
	 unsigned char l=0;
	while(*s) {
		if( *s < 0x80) 
    156a:	44 23       	and	r20, r20
    156c:	94 f0       	brlt	.+36     	; 0x1592 <LCD_PutString24+0x5a>
		    {
			LCD_PutChar(x+l*8,y,*s,fColor,bColor);
    156e:	8f 2d       	mov	r24, r15
    1570:	90 e0       	ldi	r25, 0x00	; 0
    1572:	88 0f       	add	r24, r24
    1574:	99 1f       	adc	r25, r25
    1576:	88 0f       	add	r24, r24
    1578:	99 1f       	adc	r25, r25
    157a:	88 0f       	add	r24, r24
    157c:	99 1f       	adc	r25, r25
    157e:	86 0d       	add	r24, r6
    1580:	97 1d       	adc	r25, r7
    1582:	b4 01       	movw	r22, r8
    1584:	95 01       	movw	r18, r10
    1586:	86 01       	movw	r16, r12
    1588:	0e 94 3c 0a 	call	0x1478	; 0x1478 <LCD_PutChar>
			s++;l++;
    158c:	21 96       	adiw	r28, 0x01	; 1
    158e:	f3 94       	inc	r15
    1590:	0e c0       	rjmp	.+28     	; 0x15ae <LCD_PutString24+0x76>
			}
		else
		    {
			PutGB2424(x+l*12,y,(unsigned char*)s,fColor,bColor);
    1592:	fe 9c       	mul	r15, r14
    1594:	c0 01       	movw	r24, r0
    1596:	11 24       	eor	r1, r1
    1598:	86 0d       	add	r24, r6
    159a:	97 1d       	adc	r25, r7
    159c:	b4 01       	movw	r22, r8
    159e:	ae 01       	movw	r20, r28
    15a0:	95 01       	movw	r18, r10
    15a2:	86 01       	movw	r16, r12
    15a4:	0e 94 fe 08 	call	0x11fc	; 0x11fc <PutGB2424>
			s+=2;l+=2;
    15a8:	22 96       	adiw	r28, 0x02	; 2
    15aa:	82 e0       	ldi	r24, 0x02	; 2
    15ac:	f8 0e       	add	r15, r24
	  fColor 字符颜色
          bColor 字符背景颜色
******************************************************************************************/
void LCD_PutString24(unsigned short x, unsigned short y, unsigned char *s, unsigned int fColor, unsigned int bColor) {
	 unsigned char l=0;
	while(*s) {
    15ae:	48 81       	ld	r20, Y
    15b0:	44 23       	and	r20, r20
    15b2:	d9 f6       	brne	.-74     	; 0x156a <LCD_PutString24+0x32>
		    {
			PutGB2424(x+l*12,y,(unsigned char*)s,fColor,bColor);
			s+=2;l+=2;
			}
		}
	}
    15b4:	df 91       	pop	r29
    15b6:	cf 91       	pop	r28
    15b8:	1f 91       	pop	r17
    15ba:	0f 91       	pop	r16
    15bc:	ff 90       	pop	r15
    15be:	ef 90       	pop	r14
    15c0:	df 90       	pop	r13
    15c2:	cf 90       	pop	r12
    15c4:	bf 90       	pop	r11
    15c6:	af 90       	pop	r10
    15c8:	9f 90       	pop	r9
    15ca:	8f 90       	pop	r8
    15cc:	7f 90       	pop	r7
    15ce:	6f 90       	pop	r6
    15d0:	08 95       	ret

000015d2 <LCD_PutString>:
//              y 纵坐标
//		        *s 待显示的字符串,例如LCD_PutString(24,16,"123蓝芯",White,Blue);即把"123蓝芯"的第一个字符地址赋给指针变量s.
//		        bColor 字符背景颜色
**************************************************************************************************/
void LCD_PutString(unsigned short x, unsigned short y, unsigned char *s, unsigned int fColor, unsigned int bColor) 
{
    15d2:	6f 92       	push	r6
    15d4:	7f 92       	push	r7
    15d6:	8f 92       	push	r8
    15d8:	9f 92       	push	r9
    15da:	af 92       	push	r10
    15dc:	bf 92       	push	r11
    15de:	cf 92       	push	r12
    15e0:	df 92       	push	r13
    15e2:	ff 92       	push	r15
    15e4:	0f 93       	push	r16
    15e6:	1f 93       	push	r17
    15e8:	cf 93       	push	r28
    15ea:	df 93       	push	r29
    15ec:	3c 01       	movw	r6, r24
    15ee:	4b 01       	movw	r8, r22
    15f0:	ea 01       	movw	r28, r20
    15f2:	59 01       	movw	r10, r18
    15f4:	68 01       	movw	r12, r16
    15f6:	ff 24       	eor	r15, r15
    15f8:	27 c0       	rjmp	.+78     	; 0x1648 <LCD_PutString+0x76>
	 unsigned char l=0;                            //显示屏位置增量
     while(*s) 
	 {
		if( *s < 0x80)                             //判断s指向的字符串中的某字符的编码值是否小于128,如果小于,即为ASCII字符
    15fa:	44 23       	and	r20, r20
    15fc:	94 f0       	brlt	.+36     	; 0x1622 <LCD_PutString+0x50>
		    {
			 LCD_PutChar(x+l*8,y,*s,fColor,bColor);//显示该字符
    15fe:	8f 2d       	mov	r24, r15
    1600:	90 e0       	ldi	r25, 0x00	; 0
    1602:	88 0f       	add	r24, r24
    1604:	99 1f       	adc	r25, r25
    1606:	88 0f       	add	r24, r24
    1608:	99 1f       	adc	r25, r25
    160a:	88 0f       	add	r24, r24
    160c:	99 1f       	adc	r25, r25
    160e:	86 0d       	add	r24, r6
    1610:	97 1d       	adc	r25, r7
    1612:	b4 01       	movw	r22, r8
    1614:	95 01       	movw	r18, r10
    1616:	86 01       	movw	r16, r12
    1618:	0e 94 3c 0a 	call	0x1478	; 0x1478 <LCD_PutChar>
		     s++;l++;                              //指针加1,位置加1
    161c:	21 96       	adiw	r28, 0x01	; 1
    161e:	f3 94       	inc	r15
    1620:	13 c0       	rjmp	.+38     	; 0x1648 <LCD_PutString+0x76>
			}
		else
		    {
			 Put16x16(x+l*8,y,(unsigned char*)s,fColor,bColor);//显示该汉字
    1622:	8f 2d       	mov	r24, r15
    1624:	90 e0       	ldi	r25, 0x00	; 0
    1626:	88 0f       	add	r24, r24
    1628:	99 1f       	adc	r25, r25
    162a:	88 0f       	add	r24, r24
    162c:	99 1f       	adc	r25, r25
    162e:	88 0f       	add	r24, r24
    1630:	99 1f       	adc	r25, r25
    1632:	86 0d       	add	r24, r6
    1634:	97 1d       	adc	r25, r7
    1636:	b4 01       	movw	r22, r8
    1638:	ae 01       	movw	r20, r28
    163a:	95 01       	movw	r18, r10
    163c:	86 01       	movw	r16, r12
    163e:	0e 94 a1 09 	call	0x1342	; 0x1342 <Put16x16>
		     s+=2;l+=2;                                        //因为汉字为编码为2字节，指针加2,显示16x16所以位置加2
    1642:	22 96       	adiw	r28, 0x02	; 2
    1644:	82 e0       	ldi	r24, 0x02	; 2
    1646:	f8 0e       	add	r15, r24
//		        bColor 字符背景颜色
**************************************************************************************************/
void LCD_PutString(unsigned short x, unsigned short y, unsigned char *s, unsigned int fColor, unsigned int bColor) 
{
	 unsigned char l=0;                            //显示屏位置增量
     while(*s) 
    1648:	48 81       	ld	r20, Y
    164a:	44 23       	and	r20, r20
    164c:	b1 f6       	brne	.-84     	; 0x15fa <LCD_PutString+0x28>
		    {
			 Put16x16(x+l*8,y,(unsigned char*)s,fColor,bColor);//显示该汉字
		     s+=2;l+=2;                                        //因为汉字为编码为2字节，指针加2,显示16x16所以位置加2
			}
	 }
}
    164e:	df 91       	pop	r29
    1650:	cf 91       	pop	r28
    1652:	1f 91       	pop	r17
    1654:	0f 91       	pop	r16
    1656:	ff 90       	pop	r15
    1658:	df 90       	pop	r13
    165a:	cf 90       	pop	r12
    165c:	bf 90       	pop	r11
    165e:	af 90       	pop	r10
    1660:	9f 90       	pop	r9
    1662:	8f 90       	pop	r8
    1664:	7f 90       	pop	r7
    1666:	6f 90       	pop	r6
    1668:	08 95       	ret

0000166a <SD_SizeDisplay>:
BYTE (* FAT_ReadSector)(DWORD sector, BYTE * buffer)=mmcRead;//device read
BYTE (* FAT_WriteSector)(DWORD sector, BYTE * buffer)=mmcWrite;//device write

struct FileInfoStruct FileInfo;//temporarily buffer for file information
void SD_SizeDisplay(DWORD Capacity)
{
    166a:	8f 92       	push	r8
    166c:	9f 92       	push	r9
    166e:	af 92       	push	r10
    1670:	bf 92       	push	r11
    1672:	cf 92       	push	r12
    1674:	df 92       	push	r13
    1676:	ef 92       	push	r14
    1678:	ff 92       	push	r15
    167a:	0f 93       	push	r16
    167c:	1f 93       	push	r17
    167e:	6b 01       	movw	r12, r22
    1680:	7c 01       	movw	r14, r24
	static	unsigned int SizeQ,SizeB,SizeS,SizeG;
	DWORD Size;
    LCD_PutString(0,64,"SD Size:",White,Black);  //显示SD卡容量
    1682:	80 e0       	ldi	r24, 0x00	; 0
    1684:	90 e0       	ldi	r25, 0x00	; 0
    1686:	60 e4       	ldi	r22, 0x40	; 64
    1688:	70 e0       	ldi	r23, 0x00	; 0
    168a:	40 e0       	ldi	r20, 0x00	; 0
    168c:	51 e0       	ldi	r21, 0x01	; 1
    168e:	2f ef       	ldi	r18, 0xFF	; 255
    1690:	3f ef       	ldi	r19, 0xFF	; 255
    1692:	00 e0       	ldi	r16, 0x00	; 0
    1694:	10 e0       	ldi	r17, 0x00	; 0
    1696:	0e 94 e9 0a 	call	0x15d2	; 0x15d2 <LCD_PutString>
	Size=Capacity/1024/1024;
    169a:	0b 2e       	mov	r0, r27
    169c:	b4 e1       	ldi	r27, 0x14	; 20
    169e:	f6 94       	lsr	r15
    16a0:	e7 94       	ror	r14
    16a2:	d7 94       	ror	r13
    16a4:	c7 94       	ror	r12
    16a6:	ba 95       	dec	r27
    16a8:	d1 f7       	brne	.-12     	; 0x169e <SD_SizeDisplay+0x34>
    16aa:	b0 2d       	mov	r27, r0
	SizeQ=Size/1000;
    16ac:	c7 01       	movw	r24, r14
    16ae:	b6 01       	movw	r22, r12
    16b0:	28 ee       	ldi	r18, 0xE8	; 232
    16b2:	33 e0       	ldi	r19, 0x03	; 3
    16b4:	40 e0       	ldi	r20, 0x00	; 0
    16b6:	50 e0       	ldi	r21, 0x00	; 0
    16b8:	0e 94 61 1b 	call	0x36c2	; 0x36c2 <__udivmodsi4>
    16bc:	89 01       	movw	r16, r18
    16be:	30 93 c9 0d 	sts	0x0DC9, r19
    16c2:	20 93 c8 0d 	sts	0x0DC8, r18
	SizeB=(Size%1000)/100;
    16c6:	c7 01       	movw	r24, r14
    16c8:	b6 01       	movw	r22, r12
    16ca:	28 ee       	ldi	r18, 0xE8	; 232
    16cc:	33 e0       	ldi	r19, 0x03	; 3
    16ce:	40 e0       	ldi	r20, 0x00	; 0
    16d0:	50 e0       	ldi	r21, 0x00	; 0
    16d2:	0e 94 61 1b 	call	0x36c2	; 0x36c2 <__udivmodsi4>
    16d6:	f6 2e       	mov	r15, r22
    16d8:	e7 2e       	mov	r14, r23
    16da:	d8 2e       	mov	r13, r24
    16dc:	c9 2e       	mov	r12, r25
    16de:	24 e6       	ldi	r18, 0x64	; 100
    16e0:	30 e0       	ldi	r19, 0x00	; 0
    16e2:	40 e0       	ldi	r20, 0x00	; 0
    16e4:	50 e0       	ldi	r21, 0x00	; 0
    16e6:	0e 94 61 1b 	call	0x36c2	; 0x36c2 <__udivmodsi4>
    16ea:	59 01       	movw	r10, r18
    16ec:	30 93 c7 0d 	sts	0x0DC7, r19
    16f0:	20 93 c6 0d 	sts	0x0DC6, r18
	SizeS=(Size%1000)%100/10;
    16f4:	6f 2d       	mov	r22, r15
    16f6:	7e 2d       	mov	r23, r14
    16f8:	8d 2d       	mov	r24, r13
    16fa:	9c 2d       	mov	r25, r12
    16fc:	24 e6       	ldi	r18, 0x64	; 100
    16fe:	30 e0       	ldi	r19, 0x00	; 0
    1700:	40 e0       	ldi	r20, 0x00	; 0
    1702:	50 e0       	ldi	r21, 0x00	; 0
    1704:	0e 94 61 1b 	call	0x36c2	; 0x36c2 <__udivmodsi4>
    1708:	f6 2e       	mov	r15, r22
    170a:	e7 2e       	mov	r14, r23
    170c:	98 2e       	mov	r9, r24
    170e:	89 2e       	mov	r8, r25
    1710:	2a e0       	ldi	r18, 0x0A	; 10
    1712:	30 e0       	ldi	r19, 0x00	; 0
    1714:	40 e0       	ldi	r20, 0x00	; 0
    1716:	50 e0       	ldi	r21, 0x00	; 0
    1718:	0e 94 61 1b 	call	0x36c2	; 0x36c2 <__udivmodsi4>
    171c:	69 01       	movw	r12, r18
    171e:	30 93 c5 0d 	sts	0x0DC5, r19
    1722:	20 93 c4 0d 	sts	0x0DC4, r18
	SizeG=(Size%1000)%100%10;
    1726:	6f 2d       	mov	r22, r15
    1728:	7e 2d       	mov	r23, r14
    172a:	89 2d       	mov	r24, r9
    172c:	98 2d       	mov	r25, r8
    172e:	2a e0       	ldi	r18, 0x0A	; 10
    1730:	30 e0       	ldi	r19, 0x00	; 0
    1732:	40 e0       	ldi	r20, 0x00	; 0
    1734:	50 e0       	ldi	r21, 0x00	; 0
    1736:	0e 94 61 1b 	call	0x36c2	; 0x36c2 <__udivmodsi4>
    173a:	7b 01       	movw	r14, r22
    173c:	70 93 c3 0d 	sts	0x0DC3, r23
    1740:	60 93 c2 0d 	sts	0x0DC2, r22
    LCD_PutChar(64,64,SizeQ+'0',Red,Black);
    1744:	00 5d       	subi	r16, 0xD0	; 208
    1746:	1f 4f       	sbci	r17, 0xFF	; 255
    1748:	80 e4       	ldi	r24, 0x40	; 64
    174a:	90 e0       	ldi	r25, 0x00	; 0
    174c:	60 e4       	ldi	r22, 0x40	; 64
    174e:	70 e0       	ldi	r23, 0x00	; 0
    1750:	a8 01       	movw	r20, r16
    1752:	20 e0       	ldi	r18, 0x00	; 0
    1754:	38 ef       	ldi	r19, 0xF8	; 248
    1756:	00 e0       	ldi	r16, 0x00	; 0
    1758:	10 e0       	ldi	r17, 0x00	; 0
    175a:	0e 94 3c 0a 	call	0x1478	; 0x1478 <LCD_PutChar>
	LCD_PutChar(72,64,SizeB+'0',Red,Black);
    175e:	80 e3       	ldi	r24, 0x30	; 48
    1760:	90 e0       	ldi	r25, 0x00	; 0
    1762:	a8 0e       	add	r10, r24
    1764:	b9 1e       	adc	r11, r25
    1766:	88 e4       	ldi	r24, 0x48	; 72
    1768:	90 e0       	ldi	r25, 0x00	; 0
    176a:	60 e4       	ldi	r22, 0x40	; 64
    176c:	70 e0       	ldi	r23, 0x00	; 0
    176e:	a5 01       	movw	r20, r10
    1770:	20 e0       	ldi	r18, 0x00	; 0
    1772:	38 ef       	ldi	r19, 0xF8	; 248
    1774:	0e 94 3c 0a 	call	0x1478	; 0x1478 <LCD_PutChar>
	LCD_PutChar(80,64,SizeS+'0',Red,Black);
    1778:	80 e3       	ldi	r24, 0x30	; 48
    177a:	90 e0       	ldi	r25, 0x00	; 0
    177c:	c8 0e       	add	r12, r24
    177e:	d9 1e       	adc	r13, r25
    1780:	80 e5       	ldi	r24, 0x50	; 80
    1782:	90 e0       	ldi	r25, 0x00	; 0
    1784:	60 e4       	ldi	r22, 0x40	; 64
    1786:	70 e0       	ldi	r23, 0x00	; 0
    1788:	a6 01       	movw	r20, r12
    178a:	20 e0       	ldi	r18, 0x00	; 0
    178c:	38 ef       	ldi	r19, 0xF8	; 248
    178e:	0e 94 3c 0a 	call	0x1478	; 0x1478 <LCD_PutChar>
	LCD_PutChar(88,64,SizeG+'0',Red,Black);
    1792:	80 e3       	ldi	r24, 0x30	; 48
    1794:	90 e0       	ldi	r25, 0x00	; 0
    1796:	e8 0e       	add	r14, r24
    1798:	f9 1e       	adc	r15, r25
    179a:	88 e5       	ldi	r24, 0x58	; 88
    179c:	90 e0       	ldi	r25, 0x00	; 0
    179e:	60 e4       	ldi	r22, 0x40	; 64
    17a0:	70 e0       	ldi	r23, 0x00	; 0
    17a2:	a7 01       	movw	r20, r14
    17a4:	20 e0       	ldi	r18, 0x00	; 0
    17a6:	38 ef       	ldi	r19, 0xF8	; 248
    17a8:	0e 94 3c 0a 	call	0x1478	; 0x1478 <LCD_PutChar>
	LCD_PutString(96,64,"MB",Red,Black);  					//显示SD卡容量
    17ac:	80 e6       	ldi	r24, 0x60	; 96
    17ae:	90 e0       	ldi	r25, 0x00	; 0
    17b0:	60 e4       	ldi	r22, 0x40	; 64
    17b2:	70 e0       	ldi	r23, 0x00	; 0
    17b4:	49 e0       	ldi	r20, 0x09	; 9
    17b6:	51 e0       	ldi	r21, 0x01	; 1
    17b8:	20 e0       	ldi	r18, 0x00	; 0
    17ba:	38 ef       	ldi	r19, 0xF8	; 248
    17bc:	0e 94 e9 0a 	call	0x15d2	; 0x15d2 <LCD_PutString>
	LCD_PutString(0,80,"BMP Num:",White,Black);  			//BMP图片数量，最大显示99张，可以更改算法
    17c0:	80 e0       	ldi	r24, 0x00	; 0
    17c2:	90 e0       	ldi	r25, 0x00	; 0
    17c4:	60 e5       	ldi	r22, 0x50	; 80
    17c6:	70 e0       	ldi	r23, 0x00	; 0
    17c8:	4c e0       	ldi	r20, 0x0C	; 12
    17ca:	51 e0       	ldi	r21, 0x01	; 1
    17cc:	2f ef       	ldi	r18, 0xFF	; 255
    17ce:	3f ef       	ldi	r19, 0xFF	; 255
    17d0:	0e 94 e9 0a 	call	0x15d2	; 0x15d2 <LCD_PutString>
	LCD_PutString(66,80,"Finding...",Red,Black);  			//BMP图片数量，最大显示99张，可以更改算法
    17d4:	82 e4       	ldi	r24, 0x42	; 66
    17d6:	90 e0       	ldi	r25, 0x00	; 0
    17d8:	60 e5       	ldi	r22, 0x50	; 80
    17da:	70 e0       	ldi	r23, 0x00	; 0
    17dc:	45 e1       	ldi	r20, 0x15	; 21
    17de:	51 e0       	ldi	r21, 0x01	; 1
    17e0:	20 e0       	ldi	r18, 0x00	; 0
    17e2:	38 ef       	ldi	r19, 0xF8	; 248
    17e4:	0e 94 e9 0a 	call	0x15d2	; 0x15d2 <LCD_PutString>
}
    17e8:	1f 91       	pop	r17
    17ea:	0f 91       	pop	r16
    17ec:	ff 90       	pop	r15
    17ee:	ef 90       	pop	r14
    17f0:	df 90       	pop	r13
    17f2:	cf 90       	pop	r12
    17f4:	bf 90       	pop	r11
    17f6:	af 90       	pop	r10
    17f8:	9f 90       	pop	r9
    17fa:	8f 90       	pop	r8
    17fc:	08 95       	ret

000017fe <FAT_Init>:

//FAT初始化，不含SD的初始化，用之前应先调用sd的初始化
unsigned char FAT_Init()//Initialize of FAT  need initialize SD first
{
    17fe:	8f 92       	push	r8
    1800:	9f 92       	push	r9
    1802:	af 92       	push	r10
    1804:	bf 92       	push	r11
    1806:	cf 92       	push	r12
    1808:	df 92       	push	r13
    180a:	ef 92       	push	r14
    180c:	ff 92       	push	r15
    180e:	0f 93       	push	r16
    1810:	1f 93       	push	r17
    1812:	df 93       	push	r29
    1814:	cf 93       	push	r28
    1816:	cd b7       	in	r28, 0x3d	; 61
    1818:	de b7       	in	r29, 0x3e	; 62
    181a:	c0 50       	subi	r28, 0x00	; 0
    181c:	d2 40       	sbci	r29, 0x02	; 2
    181e:	0f b6       	in	r0, 0x3f	; 63
    1820:	f8 94       	cli
    1822:	de bf       	out	0x3e, r29	; 62
    1824:	0f be       	out	0x3f, r0	; 63
    1826:	cd bf       	out	0x3d, r28	; 61
	BYTE buffer[512];
	DWORD hidsec=0;
	DWORD Capacity,CapacityDisp;


	Capacity = MMC_SD_ReadCapacity();
    1828:	0e 94 f0 01 	call	0x3e0	; 0x3e0 <MMC_SD_ReadCapacity>
    182c:	7b 01       	movw	r14, r22
    182e:	8c 01       	movw	r16, r24
	SD_SizeDisplay(Capacity);
    1830:	0e 94 35 0b 	call	0x166a	; 0x166a <SD_SizeDisplay>

	if(Capacity<0xff)return 1;
    1834:	8f ef       	ldi	r24, 0xFF	; 255
    1836:	e8 16       	cp	r14, r24
    1838:	f1 04       	cpc	r15, r1
    183a:	01 05       	cpc	r16, r1
    183c:	11 05       	cpc	r17, r1
    183e:	08 f4       	brcc	.+2      	; 0x1842 <FAT_Init+0x44>
    1840:	ef c0       	rjmp	.+478    	; 0x1a20 <FAT_Init+0x222>


	if(FAT_ReadSector(0,buffer))return 1;
    1842:	e0 91 a7 01 	lds	r30, 0x01A7
    1846:	f0 91 a8 01 	lds	r31, 0x01A8
    184a:	60 e0       	ldi	r22, 0x00	; 0
    184c:	70 e0       	ldi	r23, 0x00	; 0
    184e:	80 e0       	ldi	r24, 0x00	; 0
    1850:	90 e0       	ldi	r25, 0x00	; 0
    1852:	ae 01       	movw	r20, r28
    1854:	4f 5f       	subi	r20, 0xFF	; 255
    1856:	5f 4f       	sbci	r21, 0xFF	; 255
    1858:	09 95       	icall
    185a:	88 23       	and	r24, r24
    185c:	09 f0       	breq	.+2      	; 0x1860 <FAT_Init+0x62>
    185e:	e0 c0       	rjmp	.+448    	; 0x1a20 <FAT_Init+0x222>
	bs = (struct bootsector710 *)buffer;		
    1860:	4e 01       	movw	r8, r28
    1862:	08 94       	sec
    1864:	81 1c       	adc	r8, r1
    1866:	91 1c       	adc	r9, r1
	pr = (struct partrecord *)((struct partsector *)buffer)->psPart;//first partition
	hidsec = pr->prStartLBA;//the hidden sectors
    1868:	fe 01       	movw	r30, r28
    186a:	e1 54       	subi	r30, 0x41	; 65
    186c:	fe 4f       	sbci	r31, 0xFE	; 254
    186e:	a0 84       	ldd	r10, Z+8	; 0x08
    1870:	b1 84       	ldd	r11, Z+9	; 0x09
    1872:	c2 84       	ldd	r12, Z+10	; 0x0a
    1874:	d3 84       	ldd	r13, Z+11	; 0x0b
	if(hidsec >= Capacity/512)
    1876:	d8 01       	movw	r26, r16
    1878:	c7 01       	movw	r24, r14
    187a:	07 2e       	mov	r0, r23
    187c:	79 e0       	ldi	r23, 0x09	; 9
    187e:	b6 95       	lsr	r27
    1880:	a7 95       	ror	r26
    1882:	97 95       	ror	r25
    1884:	87 95       	ror	r24
    1886:	7a 95       	dec	r23
    1888:	d1 f7       	brne	.-12     	; 0x187e <FAT_Init+0x80>
    188a:	70 2d       	mov	r23, r0
    188c:	a8 16       	cp	r10, r24
    188e:	b9 06       	cpc	r11, r25
    1890:	ca 06       	cpc	r12, r26
    1892:	db 06       	cpc	r13, r27
    1894:	f0 f4       	brcc	.+60     	; 0x18d2 <FAT_Init+0xd4>
	{
		hidsec = 0;
	}
	else 
	{
		if(FAT_ReadSector(pr->prStartLBA,buffer))return 1;//read the bpb sector
    1896:	e0 91 a7 01 	lds	r30, 0x01A7
    189a:	f0 91 a8 01 	lds	r31, 0x01A8
    189e:	c6 01       	movw	r24, r12
    18a0:	b5 01       	movw	r22, r10
    18a2:	a4 01       	movw	r20, r8
    18a4:	09 95       	icall
    18a6:	88 23       	and	r24, r24
    18a8:	09 f0       	breq	.+2      	; 0x18ac <FAT_Init+0xae>
    18aa:	ba c0       	rjmp	.+372    	; 0x1a20 <FAT_Init+0x222>
		bs = (struct bootsector710 *)buffer;
		if(bs->bsJump[0]!=0xE9 && bs->bsJump[0]!=0xEB)
    18ac:	f4 01       	movw	r30, r8
    18ae:	80 81       	ld	r24, Z
    18b0:	89 3e       	cpi	r24, 0xE9	; 233
    18b2:	c9 f0       	breq	.+50     	; 0x18e6 <FAT_Init+0xe8>
    18b4:	8b 3e       	cpi	r24, 0xEB	; 235
    18b6:	b9 f0       	breq	.+46     	; 0x18e6 <FAT_Init+0xe8>
		{
			hidsec = 0;
			if(FAT_ReadSector(0,buffer))return 1;//read the bpb sector
    18b8:	e0 91 a7 01 	lds	r30, 0x01A7
    18bc:	f0 91 a8 01 	lds	r31, 0x01A8
    18c0:	60 e0       	ldi	r22, 0x00	; 0
    18c2:	70 e0       	ldi	r23, 0x00	; 0
    18c4:	80 e0       	ldi	r24, 0x00	; 0
    18c6:	90 e0       	ldi	r25, 0x00	; 0
    18c8:	a4 01       	movw	r20, r8
    18ca:	09 95       	icall
    18cc:	88 23       	and	r24, r24
    18ce:	09 f0       	breq	.+2      	; 0x18d2 <FAT_Init+0xd4>
    18d0:	a7 c0       	rjmp	.+334    	; 0x1a20 <FAT_Init+0x222>
			bs = (struct bootsector710 *)buffer;	
		}
	}

	if(bs->bsJump[0]!=0xE9 && bs->bsJump[0]!=0xEB)//对付没有bootsect的sd卡	//dead with the card which has no bootsect
    18d2:	f4 01       	movw	r30, r8
    18d4:	80 81       	ld	r24, Z
    18d6:	89 3e       	cpi	r24, 0xE9	; 233
    18d8:	19 f0       	breq	.+6      	; 0x18e0 <FAT_Init+0xe2>
    18da:	8b 3e       	cpi	r24, 0xEB	; 235
    18dc:	09 f0       	breq	.+2      	; 0x18e0 <FAT_Init+0xe2>
    18de:	a0 c0       	rjmp	.+320    	; 0x1a20 <FAT_Init+0x222>
    18e0:	aa 24       	eor	r10, r10
    18e2:	bb 24       	eor	r11, r11
    18e4:	65 01       	movw	r12, r10
		return 1;
	}
	
	
	
	bpb = (struct bpb710 *)bs->bsBPB;
    18e6:	f4 01       	movw	r30, r8
    18e8:	3b 96       	adiw	r30, 0x0b	; 11

	
	if(bpb->bpbFATsecs)//detemine thd FAT type  //do not support FAT12
    18ea:	83 85       	ldd	r24, Z+11	; 0x0b
    18ec:	94 85       	ldd	r25, Z+12	; 0x0c
    18ee:	00 97       	sbiw	r24, 0x00	; 0
    18f0:	99 f0       	breq	.+38     	; 0x1918 <FAT_Init+0x11a>
	{
		FAT32_Enable=0;	//FAT16
    18f2:	10 92 f6 0d 	sts	0x0DF6, r1
		FATsectors		= bpb->bpbFATsecs;//FAT占用的扇区数	//the sectors number occupied by one fat talbe
    18f6:	90 93 f8 0d 	sts	0x0DF8, r25
    18fa:	80 93 f7 0d 	sts	0x0DF7, r24
		FirstDirClust = 2;
    18fe:	82 e0       	ldi	r24, 0x02	; 2
    1900:	90 e0       	ldi	r25, 0x00	; 0
    1902:	a0 e0       	ldi	r26, 0x00	; 0
    1904:	b0 e0       	ldi	r27, 0x00	; 0
    1906:	80 93 01 0e 	sts	0x0E01, r24
    190a:	90 93 02 0e 	sts	0x0E02, r25
    190e:	a0 93 03 0e 	sts	0x0E03, r26
    1912:	b0 93 04 0e 	sts	0x0E04, r27
    1916:	15 c0       	rjmp	.+42     	; 0x1942 <FAT_Init+0x144>
	}
	else
	{
		FAT32_Enable=1;	//FAT32
    1918:	81 e0       	ldi	r24, 0x01	; 1
    191a:	80 93 f6 0d 	sts	0x0DF6, r24
		FATsectors		= bpb->bpbBigFATsecs;//FAT占用的扇区数	//the sectors number occupied by one fat talbe
    191e:	81 8d       	ldd	r24, Z+25	; 0x19
    1920:	92 8d       	ldd	r25, Z+26	; 0x1a
    1922:	90 93 f8 0d 	sts	0x0DF8, r25
    1926:	80 93 f7 0d 	sts	0x0DF7, r24
		FirstDirClust = bpb->bpbRootClust;
    192a:	81 a1       	ldd	r24, Z+33	; 0x21
    192c:	92 a1       	ldd	r25, Z+34	; 0x22
    192e:	a3 a1       	ldd	r26, Z+35	; 0x23
    1930:	b4 a1       	ldd	r27, Z+36	; 0x24
    1932:	80 93 01 0e 	sts	0x0E01, r24
    1936:	90 93 02 0e 	sts	0x0E02, r25
    193a:	a0 93 03 0e 	sts	0x0E03, r26
    193e:	b0 93 04 0e 	sts	0x0E04, r27
	}

	BytesPerSector	= bpb->bpbBytesPerSec;//每扇区字节数
    1942:	80 81       	ld	r24, Z
    1944:	91 81       	ldd	r25, Z+1	; 0x01
    1946:	90 93 fe 0d 	sts	0x0DFE, r25
    194a:	80 93 fd 0d 	sts	0x0DFD, r24
	
	SectorsPerClust	= (BYTE)bpb->bpbSecPerClust;//每簇扇区数
    194e:	82 81       	ldd	r24, Z+2	; 0x02
    1950:	80 93 d2 0d 	sts	0x0DD2, r24
    1954:	10 92 d3 0d 	sts	0x0DD3, r1
	
	FirstFATSector	= bpb->bpbResSectors+hidsec;//第一个FAT表扇区
    1958:	83 81       	ldd	r24, Z+3	; 0x03
    195a:	94 81       	ldd	r25, Z+4	; 0x04
    195c:	a0 e0       	ldi	r26, 0x00	; 0
    195e:	b0 e0       	ldi	r27, 0x00	; 0
    1960:	86 01       	movw	r16, r12
    1962:	75 01       	movw	r14, r10
    1964:	e8 0e       	add	r14, r24
    1966:	f9 1e       	adc	r15, r25
    1968:	0a 1f       	adc	r16, r26
    196a:	1b 1f       	adc	r17, r27
    196c:	e0 92 e1 0d 	sts	0x0DE1, r14
    1970:	f0 92 e2 0d 	sts	0x0DE2, r15
    1974:	00 93 e3 0d 	sts	0x0DE3, r16
    1978:	10 93 e4 0d 	sts	0x0DE4, r17
	RootDirCount	= bpb->bpbRootDirEnts;//根目录项数
    197c:	26 81       	ldd	r18, Z+6	; 0x06
    197e:	37 81       	ldd	r19, Z+7	; 0x07
    1980:	40 e0       	ldi	r20, 0x00	; 0
    1982:	50 e0       	ldi	r21, 0x00	; 0
    1984:	20 93 ce 0d 	sts	0x0DCE, r18
    1988:	30 93 cf 0d 	sts	0x0DCF, r19
    198c:	40 93 d0 0d 	sts	0x0DD0, r20
    1990:	50 93 d1 0d 	sts	0x0DD1, r21
	RootDirSectors	= (RootDirCount*32)>>9;//根目录占用的扇区数
    1994:	22 0f       	add	r18, r18
    1996:	33 1f       	adc	r19, r19
    1998:	44 1f       	adc	r20, r20
    199a:	55 1f       	adc	r21, r21
    199c:	22 0f       	add	r18, r18
    199e:	33 1f       	adc	r19, r19
    19a0:	44 1f       	adc	r20, r20
    19a2:	55 1f       	adc	r21, r21
    19a4:	22 0f       	add	r18, r18
    19a6:	33 1f       	adc	r19, r19
    19a8:	44 1f       	adc	r20, r20
    19aa:	55 1f       	adc	r21, r21
    19ac:	22 0f       	add	r18, r18
    19ae:	33 1f       	adc	r19, r19
    19b0:	44 1f       	adc	r20, r20
    19b2:	55 1f       	adc	r21, r21
    19b4:	23 2f       	mov	r18, r19
    19b6:	34 2f       	mov	r19, r20
    19b8:	45 2f       	mov	r20, r21
    19ba:	55 27       	eor	r21, r21
    19bc:	20 93 f9 0d 	sts	0x0DF9, r18
    19c0:	30 93 fa 0d 	sts	0x0DFA, r19
    19c4:	40 93 fb 0d 	sts	0x0DFB, r20
    19c8:	50 93 fc 0d 	sts	0x0DFC, r21
	FirstDirSector	= FirstFATSector+bpb->bpbFATs*FATsectors;//第一个目录扇区
    19cc:	85 81       	ldd	r24, Z+5	; 0x05
    19ce:	90 e0       	ldi	r25, 0x00	; 0
    19d0:	60 91 f7 0d 	lds	r22, 0x0DF7
    19d4:	70 91 f8 0d 	lds	r23, 0x0DF8
    19d8:	fc 01       	movw	r30, r24
    19da:	e6 9f       	mul	r30, r22
    19dc:	c0 01       	movw	r24, r0
    19de:	e7 9f       	mul	r30, r23
    19e0:	90 0d       	add	r25, r0
    19e2:	f6 9f       	mul	r31, r22
    19e4:	90 0d       	add	r25, r0
    19e6:	11 24       	eor	r1, r1
    19e8:	a0 e0       	ldi	r26, 0x00	; 0
    19ea:	b0 e0       	ldi	r27, 0x00	; 0
    19ec:	e8 0e       	add	r14, r24
    19ee:	f9 1e       	adc	r15, r25
    19f0:	0a 1f       	adc	r16, r26
    19f2:	1b 1f       	adc	r17, r27
    19f4:	e0 92 ca 0d 	sts	0x0DCA, r14
    19f8:	f0 92 cb 0d 	sts	0x0DCB, r15
    19fc:	00 93 cc 0d 	sts	0x0DCC, r16
    1a00:	10 93 cd 0d 	sts	0x0DCD, r17
	FirstDataSector	= FirstDirSector+RootDirSectors;//第一个数据扇区
    1a04:	e2 0e       	add	r14, r18
    1a06:	f3 1e       	adc	r15, r19
    1a08:	04 1f       	adc	r16, r20
    1a0a:	15 1f       	adc	r17, r21
    1a0c:	e0 92 dc 0d 	sts	0x0DDC, r14
    1a10:	f0 92 dd 0d 	sts	0x0DDD, r15
    1a14:	00 93 de 0d 	sts	0x0DDE, r16
    1a18:	10 93 df 0d 	sts	0x0DDF, r17
    1a1c:	80 e0       	ldi	r24, 0x00	; 0
    1a1e:	01 c0       	rjmp	.+2      	; 0x1a22 <FAT_Init+0x224>
	return 0;
    1a20:	81 e0       	ldi	r24, 0x01	; 1
}
    1a22:	c0 50       	subi	r28, 0x00	; 0
    1a24:	de 4f       	sbci	r29, 0xFE	; 254
    1a26:	0f b6       	in	r0, 0x3f	; 63
    1a28:	f8 94       	cli
    1a2a:	de bf       	out	0x3e, r29	; 62
    1a2c:	0f be       	out	0x3f, r0	; 63
    1a2e:	cd bf       	out	0x3d, r28	; 61
    1a30:	cf 91       	pop	r28
    1a32:	df 91       	pop	r29
    1a34:	1f 91       	pop	r17
    1a36:	0f 91       	pop	r16
    1a38:	ff 90       	pop	r15
    1a3a:	ef 90       	pop	r14
    1a3c:	df 90       	pop	r13
    1a3e:	cf 90       	pop	r12
    1a40:	bf 90       	pop	r11
    1a42:	af 90       	pop	r10
    1a44:	9f 90       	pop	r9
    1a46:	8f 90       	pop	r8
    1a48:	08 95       	ret

00001a4a <CLR_Screen>:
/***************************************************************************************************
//	实现功能：	TFT清屏
//	输入参数：	bColor 清屏所使用的背景色
***************************************************************************************************/
void CLR_Screen(unsigned int bColor)
{
    1a4a:	cf 92       	push	r12
    1a4c:	df 92       	push	r13
    1a4e:	ef 92       	push	r14
    1a50:	ff 92       	push	r15
    1a52:	0f 93       	push	r16
    1a54:	1f 93       	push	r17
    1a56:	cf 93       	push	r28
    1a58:	df 93       	push	r29
    1a5a:	8c 01       	movw	r16, r24
 unsigned int i,j;
 LCD_SetPos(0,240,0,320);//320x240
    1a5c:	80 e0       	ldi	r24, 0x00	; 0
    1a5e:	90 e0       	ldi	r25, 0x00	; 0
    1a60:	60 ef       	ldi	r22, 0xF0	; 240
    1a62:	70 e0       	ldi	r23, 0x00	; 0
    1a64:	40 e0       	ldi	r20, 0x00	; 0
    1a66:	50 e0       	ldi	r21, 0x00	; 0
    1a68:	20 e4       	ldi	r18, 0x40	; 64
    1a6a:	31 e0       	ldi	r19, 0x01	; 1
    1a6c:	0e 94 8e 08 	call	0x111c	; 0x111c <LCD_SetPos>
    1a70:	ee 24       	eor	r14, r14
    1a72:	ff 24       	eor	r15, r15
 for (i=0;i<320;i++)
	{
	   for (j=0;j<240;j++)
	       Write_Data_U16(bColor);
	}
}
    1a74:	cc 24       	eor	r12, r12
    1a76:	dd 24       	eor	r13, r13
    1a78:	0f c0       	rjmp	.+30     	; 0x1a98 <CLR_Screen+0x4e>
 unsigned int i,j;
 LCD_SetPos(0,240,0,320);//320x240
 for (i=0;i<320;i++)
	{
	   for (j=0;j<240;j++)
	       Write_Data_U16(bColor);
    1a7a:	c8 01       	movw	r24, r16
    1a7c:	0e 94 26 05 	call	0xa4c	; 0xa4c <Write_Data_U16>
{
 unsigned int i,j;
 LCD_SetPos(0,240,0,320);//320x240
 for (i=0;i<320;i++)
	{
	   for (j=0;j<240;j++)
    1a80:	21 96       	adiw	r28, 0x01	; 1
    1a82:	c0 3f       	cpi	r28, 0xF0	; 240
    1a84:	d1 05       	cpc	r29, r1
    1a86:	c9 f7       	brne	.-14     	; 0x1a7a <CLR_Screen+0x30>
***************************************************************************************************/
void CLR_Screen(unsigned int bColor)
{
 unsigned int i,j;
 LCD_SetPos(0,240,0,320);//320x240
 for (i=0;i<320;i++)
    1a88:	08 94       	sec
    1a8a:	e1 1c       	adc	r14, r1
    1a8c:	f1 1c       	adc	r15, r1
    1a8e:	80 e4       	ldi	r24, 0x40	; 64
    1a90:	e8 16       	cp	r14, r24
    1a92:	81 e0       	ldi	r24, 0x01	; 1
    1a94:	f8 06       	cpc	r15, r24
    1a96:	11 f0       	breq	.+4      	; 0x1a9c <CLR_Screen+0x52>
	{
	   for (j=0;j<240;j++)
	       Write_Data_U16(bColor);
	}
}
    1a98:	e6 01       	movw	r28, r12
    1a9a:	ef cf       	rjmp	.-34     	; 0x1a7a <CLR_Screen+0x30>
    1a9c:	df 91       	pop	r29
    1a9e:	cf 91       	pop	r28
    1aa0:	1f 91       	pop	r17
    1aa2:	0f 91       	pop	r16
    1aa4:	ff 90       	pop	r15
    1aa6:	ef 90       	pop	r14
    1aa8:	df 90       	pop	r13
    1aaa:	cf 90       	pop	r12
    1aac:	08 95       	ret

00001aae <Put_pixel>:
//	实现功能：	画点
//  输入参数：  x，y 需要画点坐标
//              color 点的颜色
***************************************************************************************************/
void Put_pixel(unsigned int x,unsigned int y,unsigned int color)
{
    1aae:	0f 93       	push	r16
    1ab0:	1f 93       	push	r17
    1ab2:	fc 01       	movw	r30, r24
    1ab4:	9b 01       	movw	r18, r22
    1ab6:	8a 01       	movw	r16, r20
	LCD_SetPos(x,x,y,y);        //设置待画点坐标
    1ab8:	bf 01       	movw	r22, r30
    1aba:	a9 01       	movw	r20, r18
    1abc:	0e 94 8e 08 	call	0x111c	; 0x111c <LCD_SetPos>
	Write_Data_U16(color);      //在指定点写入颜色数据
    1ac0:	c8 01       	movw	r24, r16
    1ac2:	0e 94 26 05 	call	0xa4c	; 0xa4c <Write_Data_U16>
}
    1ac6:	1f 91       	pop	r17
    1ac8:	0f 91       	pop	r16
    1aca:	08 95       	ret

00001acc <Port_Init>:
/********************************************************************
			初始化IO口子程序
********************************************************************/
void Port_Init()
{
	DDRF = 0xFF;
    1acc:	8f ef       	ldi	r24, 0xFF	; 255
    1ace:	80 93 61 00 	sts	0x0061, r24
	PORTF = 0x00;
    1ad2:	10 92 62 00 	sts	0x0062, r1

	DDRE = 0xFF;
    1ad6:	82 b9       	out	0x02, r24	; 2
	PORTE = 0xFF;
    1ad8:	83 b9       	out	0x03, r24	; 3

	DDRC = 0xFF;
    1ada:	84 bb       	out	0x14, r24	; 20
	PORTC = 0x00;
    1adc:	15 ba       	out	0x15, r1	; 21

	DDRA = 0xFC;
    1ade:	8c ef       	ldi	r24, 0xFC	; 252
    1ae0:	8a bb       	out	0x1a, r24	; 26
	PORTA = 0x00;
    1ae2:	1b ba       	out	0x1b, r1	; 27

}
    1ae4:	08 95       	ret

00001ae6 <LED_Light>:
/********************************************************************
	LED闪烁一次，可在需要查看程序执行位置时灵活设置，类似断点
********************************************************************/
void LED_Light()
{
    LED8=0x00;                    //点亮LED
    1ae6:	13 b8       	out	0x03, r1	; 3
    1ae8:	28 e8       	ldi	r18, 0x88	; 136
    1aea:	33 e1       	ldi	r19, 0x13	; 19
    1aec:	48 eb       	ldi	r20, 0xB8	; 184
    1aee:	50 e0       	ldi	r21, 0x00	; 0
    1af0:	ca 01       	movw	r24, r20
    1af2:	01 97       	sbiw	r24, 0x01	; 1
    1af4:	f1 f7       	brne	.-4      	; 0x1af2 <LED_Light+0xc>
		{
			// wait 1/10 ms
			_delay_loop_2(((F_CPU) / 4e3) / 10);
			__ticks --;
    1af6:	21 50       	subi	r18, 0x01	; 1
    1af8:	30 40       	sbci	r19, 0x00	; 0
		__ticks = 1;
	else if (__tmp > 65535)
	{
		//	__ticks = requested delay in 1/10 ms
		__ticks = (uint16_t) (__ms * 10.0);
		while(__ticks)
    1afa:	d1 f7       	brne	.-12     	; 0x1af0 <LED_Light+0xa>
    delay_ms(500);
    LED8=0xFF;                    //熄灭LED
    1afc:	8f ef       	ldi	r24, 0xFF	; 255
    1afe:	83 b9       	out	0x03, r24	; 3
    1b00:	28 e8       	ldi	r18, 0x88	; 136
    1b02:	33 e1       	ldi	r19, 0x13	; 19
    1b04:	48 eb       	ldi	r20, 0xB8	; 184
    1b06:	50 e0       	ldi	r21, 0x00	; 0
    1b08:	ca 01       	movw	r24, r20
    1b0a:	01 97       	sbiw	r24, 0x01	; 1
    1b0c:	f1 f7       	brne	.-4      	; 0x1b0a <LED_Light+0x24>
		{
			// wait 1/10 ms
			_delay_loop_2(((F_CPU) / 4e3) / 10);
			__ticks --;
    1b0e:	21 50       	subi	r18, 0x01	; 1
    1b10:	30 40       	sbci	r19, 0x00	; 0
		__ticks = 1;
	else if (__tmp > 65535)
	{
		//	__ticks = requested delay in 1/10 ms
		__ticks = (uint16_t) (__ms * 10.0);
		while(__ticks)
    1b12:	d1 f7       	brne	.-12     	; 0x1b08 <LED_Light+0x22>
    delay_ms(500);
}
    1b14:	08 95       	ret

00001b16 <GetFolderCluster>:
	eeprom_write_byte(addr+2,cluster>>8);
	eeprom_write_byte(addr+3,cluster>>0);
}

DWORD GetFolderCluster(WORD addr)
{
    1b16:	cf 92       	push	r12
    1b18:	df 92       	push	r13
    1b1a:	ef 92       	push	r14
    1b1c:	ff 92       	push	r15
    1b1e:	0f 93       	push	r16
    1b20:	1f 93       	push	r17
    1b22:	6c 01       	movw	r12, r24
	DWORD temp;
	temp = eeprom_read_byte(addr);
    1b24:	0e 94 bf 1c 	call	0x397e	; 0x397e <__eerd_byte_m128>
    1b28:	e8 2e       	mov	r14, r24
    1b2a:	ff 24       	eor	r15, r15
    1b2c:	00 e0       	ldi	r16, 0x00	; 0
    1b2e:	10 e0       	ldi	r17, 0x00	; 0
	temp <<= 8;
    1b30:	10 2f       	mov	r17, r16
    1b32:	0f 2d       	mov	r16, r15
    1b34:	fe 2c       	mov	r15, r14
    1b36:	ee 24       	eor	r14, r14
	temp += eeprom_read_byte(addr+1);
    1b38:	c6 01       	movw	r24, r12
    1b3a:	01 96       	adiw	r24, 0x01	; 1
    1b3c:	0e 94 bf 1c 	call	0x397e	; 0x397e <__eerd_byte_m128>
    1b40:	e8 0e       	add	r14, r24
    1b42:	f1 1c       	adc	r15, r1
    1b44:	01 1d       	adc	r16, r1
    1b46:	11 1d       	adc	r17, r1
	temp <<= 8;
    1b48:	10 2f       	mov	r17, r16
    1b4a:	0f 2d       	mov	r16, r15
    1b4c:	fe 2c       	mov	r15, r14
    1b4e:	ee 24       	eor	r14, r14
	temp += eeprom_read_byte(addr+2);
    1b50:	c6 01       	movw	r24, r12
    1b52:	02 96       	adiw	r24, 0x02	; 2
    1b54:	0e 94 bf 1c 	call	0x397e	; 0x397e <__eerd_byte_m128>
    1b58:	e8 0e       	add	r14, r24
    1b5a:	f1 1c       	adc	r15, r1
    1b5c:	01 1d       	adc	r16, r1
    1b5e:	11 1d       	adc	r17, r1
	temp <<= 8;
    1b60:	10 2f       	mov	r17, r16
    1b62:	0f 2d       	mov	r16, r15
    1b64:	fe 2c       	mov	r15, r14
    1b66:	ee 24       	eor	r14, r14
	temp += eeprom_read_byte(addr+3);
    1b68:	c6 01       	movw	r24, r12
    1b6a:	03 96       	adiw	r24, 0x03	; 3
    1b6c:	0e 94 bf 1c 	call	0x397e	; 0x397e <__eerd_byte_m128>
    1b70:	e8 0e       	add	r14, r24
    1b72:	f1 1c       	adc	r15, r1
    1b74:	01 1d       	adc	r16, r1
    1b76:	11 1d       	adc	r17, r1
#if FAT_DEBUG
	printf_P(PSTR("\r\nRead EEPROM address: %d value is: %ld"),addr,temp);
#endif
	return temp;
}
    1b78:	6e 2d       	mov	r22, r14
    1b7a:	7f 2d       	mov	r23, r15
    1b7c:	80 2f       	mov	r24, r16
    1b7e:	91 2f       	mov	r25, r17
    1b80:	1f 91       	pop	r17
    1b82:	0f 91       	pop	r16
    1b84:	ff 90       	pop	r15
    1b86:	ef 90       	pop	r14
    1b88:	df 90       	pop	r13
    1b8a:	cf 90       	pop	r12
    1b8c:	08 95       	ret

00001b8e <Search>:
}



BYTE Search(/*BYTE *dirWORD *music_record_addr,*/struct direntry *MusicInfo,WORD *Count,BYTE *type)//当COUNT为零时，有它带回这个目录下总共有多少图片
{                                                            //不为零时有MusicInfo带回第Count图片的详细文件信息
    1b8e:	2f 92       	push	r2
    1b90:	3f 92       	push	r3
    1b92:	4f 92       	push	r4
    1b94:	5f 92       	push	r5
    1b96:	6f 92       	push	r6
    1b98:	7f 92       	push	r7
    1b9a:	8f 92       	push	r8
    1b9c:	9f 92       	push	r9
    1b9e:	af 92       	push	r10
    1ba0:	bf 92       	push	r11
    1ba2:	cf 92       	push	r12
    1ba4:	df 92       	push	r13
    1ba6:	ef 92       	push	r14
    1ba8:	ff 92       	push	r15
    1baa:	0f 93       	push	r16
    1bac:	1f 93       	push	r17
    1bae:	df 93       	push	r29
    1bb0:	cf 93       	push	r28
    1bb2:	cd b7       	in	r28, 0x3d	; 61
    1bb4:	de b7       	in	r29, 0x3e	; 62
    1bb6:	2c 97       	sbiw	r28, 0x0c	; 12
    1bb8:	0f b6       	in	r0, 0x3f	; 63
    1bba:	f8 94       	cli
    1bbc:	de bf       	out	0x3e, r29	; 62
    1bbe:	0f be       	out	0x3f, r0	; 63
    1bc0:	cd bf       	out	0x3d, r28	; 61
    1bc2:	9f 83       	std	Y+7, r25	; 0x07
    1bc4:	8e 83       	std	Y+6, r24	; 0x06
    1bc6:	79 87       	std	Y+9, r23	; 0x09
    1bc8:	68 87       	std	Y+8, r22	; 0x08
    1bca:	fa 01       	movw	r30, r20
	//cluster = FAT_OpenDir(dir);
	//if(cluster == 1)return 1;
	
	BYTE file_type[3] ;
	
	switch(*type)
    1bcc:	e0 81       	ld	r30, Z
    1bce:	e1 30       	cpi	r30, 0x01	; 1
    1bd0:	19 f0       	breq	.+6      	; 0x1bd8 <Search+0x4a>
    1bd2:	e2 30       	cpi	r30, 0x02	; 2
    1bd4:	71 f4       	brne	.+28     	; 0x1bf2 <Search+0x64>
    1bd6:	07 c0       	rjmp	.+14     	; 0x1be6 <Search+0x58>
    1bd8:	20 e5       	ldi	r18, 0x50	; 80
    1bda:	29 83       	std	Y+1, r18	; 0x01
    1bdc:	0f 2e       	mov	r0, r31
    1bde:	fd e4       	ldi	r31, 0x4D	; 77
    1be0:	2f 2e       	mov	r2, r31
    1be2:	f0 2d       	mov	r31, r0
    1be4:	06 c0       	rjmp	.+12     	; 0x1bf2 <Search+0x64>
    1be6:	3e e4       	ldi	r19, 0x4E	; 78
    1be8:	39 83       	std	Y+1, r19	; 0x01
    1bea:	0f 2e       	mov	r0, r31
    1bec:	f9 e4       	ldi	r31, 0x49	; 73
    1bee:	2f 2e       	mov	r2, r31
    1bf0:	f0 2d       	mov	r31, r0
    1bf2:	1d 82       	std	Y+5, r1	; 0x05
    1bf4:	1c 82       	std	Y+4, r1	; 0x04
    1bf6:	1b 82       	std	Y+3, r1	; 0x03
    1bf8:	1a 82       	std	Y+2, r1	; 0x02
				while(1)
				{
					sector=FirstDataSector+(DWORD)(tempclust-2)*(DWORD)SectorsPerClust;//calculate the actual sector number
					buffer=malloc(512);//apply memory
					if(buffer==0)return 1;//if failed
					for(cnt=0;cnt<SectorsPerClust;cnt++)
    1bfa:	1a 86       	std	Y+10, r1	; 0x0a
	
	
	WORD addr = RECORD_ADDR_START;
	while(1)
	{
		cluster = GetFolderCluster(addr);
    1bfc:	8a 81       	ldd	r24, Y+2	; 0x02
    1bfe:	9b 81       	ldd	r25, Y+3	; 0x03
    1c00:	0e 94 8b 0d 	call	0x1b16	; 0x1b16 <GetFolderCluster>
		addr += 4;
    1c04:	ea 81       	ldd	r30, Y+2	; 0x02
    1c06:	fb 81       	ldd	r31, Y+3	; 0x03
    1c08:	34 96       	adiw	r30, 0x04	; 4
    1c0a:	fb 83       	std	Y+3, r31	; 0x03
    1c0c:	ea 83       	std	Y+2, r30	; 0x02
		if(cluster == 0xffffffff) break;
    1c0e:	6f 3f       	cpi	r22, 0xFF	; 255
    1c10:	ff ef       	ldi	r31, 0xFF	; 255
    1c12:	7f 07       	cpc	r23, r31
    1c14:	ff ef       	ldi	r31, 0xFF	; 255
    1c16:	8f 07       	cpc	r24, r31
    1c18:	ff ef       	ldi	r31, 0xFF	; 255
    1c1a:	9f 07       	cpc	r25, r31
    1c1c:	09 f4       	brne	.+2      	; 0x1c20 <Search+0x92>
    1c1e:	60 c1       	rjmp	.+704    	; 0x1ee0 <Search+0x352>
		
		else
		{
			//*music_record_addr = addr - 4;	/* record in which record found the right file */
			if(cluster==0 && FAT32_Enable==0)// 根目录，FAT16文件系统
    1c20:	61 15       	cp	r22, r1
    1c22:	71 05       	cpc	r23, r1
    1c24:	81 05       	cpc	r24, r1
    1c26:	91 05       	cpc	r25, r1
    1c28:	19 f0       	breq	.+6      	; 0x1c30 <Search+0xa2>
    1c2a:	2b 01       	movw	r4, r22
    1c2c:	3c 01       	movw	r6, r24
    1c2e:	99 c0       	rjmp	.+306    	; 0x1d62 <Search+0x1d4>
    1c30:	80 91 f6 0d 	lds	r24, 0x0DF6
    1c34:	88 23       	and	r24, r24
    1c36:	21 f0       	breq	.+8      	; 0x1c40 <Search+0xb2>
    1c38:	44 24       	eor	r4, r4
    1c3a:	55 24       	eor	r5, r5
    1c3c:	32 01       	movw	r6, r4
    1c3e:	91 c0       	rjmp	.+290    	; 0x1d62 <Search+0x1d4>
			{
			
			
				buffer=malloc(512);//动态分配空间512字节
    1c40:	80 e0       	ldi	r24, 0x00	; 0
    1c42:	92 e0       	ldi	r25, 0x02	; 2
    1c44:	0e 94 ba 1b 	call	0x3774	; 0x3774 <malloc>
    1c48:	bc 01       	movw	r22, r24
    1c4a:	cb 01       	movw	r24, r22
    1c4c:	e6 2e       	mov	r14, r22
    1c4e:	d9 2e       	mov	r13, r25
				if(buffer==0)return 1;//if failed
    1c50:	61 15       	cp	r22, r1
    1c52:	71 05       	cpc	r23, r1
    1c54:	09 f4       	brne	.+2      	; 0x1c58 <Search+0xca>
    1c56:	54 c1       	rjmp	.+680    	; 0x1f00 <Search+0x372>
				
				
				for(cnt=0;cnt<RootDirSectors;cnt++)
    1c58:	80 91 f9 0d 	lds	r24, 0x0DF9
    1c5c:	90 91 fa 0d 	lds	r25, 0x0DFA
    1c60:	a0 91 fb 0d 	lds	r26, 0x0DFB
    1c64:	b0 91 fc 0d 	lds	r27, 0x0DFC
    1c68:	00 97       	sbiw	r24, 0x00	; 0
    1c6a:	a1 05       	cpc	r26, r1
    1c6c:	b1 05       	cpc	r27, r1
    1c6e:	09 f4       	brne	.+2      	; 0x1c72 <Search+0xe4>
    1c70:	73 c0       	rjmp	.+230    	; 0x1d58 <Search+0x1ca>
    1c72:	ff 24       	eor	r15, r15
    1c74:	20 e0       	ldi	r18, 0x00	; 0
    1c76:	30 e0       	ldi	r19, 0x00	; 0
    1c78:	40 e0       	ldi	r20, 0x00	; 0
    1c7a:	50 e0       	ldi	r21, 0x00	; 0
				{
					if(FAT_ReadSector(FirstDirSector+cnt,buffer)){free(buffer);return 1;}
    1c7c:	cb 01       	movw	r24, r22
    1c7e:	c6 2e       	mov	r12, r22
    1c80:	b9 2e       	mov	r11, r25
					for(offset=0;offset<512;offset+=32)
    1c82:	8b 01       	movw	r16, r22
    1c84:	00 50       	subi	r16, 0x00	; 0
    1c86:	1e 4f       	sbci	r17, 0xFE	; 254
				if(buffer==0)return 1;//if failed
				
				
				for(cnt=0;cnt<RootDirSectors;cnt++)
				{
					if(FAT_ReadSector(FirstDirSector+cnt,buffer)){free(buffer);return 1;}
    1c88:	80 91 ca 0d 	lds	r24, 0x0DCA
    1c8c:	90 91 cb 0d 	lds	r25, 0x0DCB
    1c90:	a0 91 cc 0d 	lds	r26, 0x0DCC
    1c94:	b0 91 cd 0d 	lds	r27, 0x0DCD
    1c98:	bc 01       	movw	r22, r24
    1c9a:	cd 01       	movw	r24, r26
    1c9c:	62 0f       	add	r22, r18
    1c9e:	73 1f       	adc	r23, r19
    1ca0:	84 1f       	adc	r24, r20
    1ca2:	95 1f       	adc	r25, r21
    1ca4:	e0 91 a7 01 	lds	r30, 0x01A7
    1ca8:	f0 91 a8 01 	lds	r31, 0x01A8
    1cac:	4e 2d       	mov	r20, r14
    1cae:	5d 2d       	mov	r21, r13
    1cb0:	09 95       	icall
    1cb2:	88 23       	and	r24, r24
    1cb4:	31 f0       	breq	.+12     	; 0x1cc2 <Search+0x134>
    1cb6:	8e 2d       	mov	r24, r14
    1cb8:	9d 2d       	mov	r25, r13
    1cba:	0e 94 67 1c 	call	0x38ce	; 0x38ce <free>
    1cbe:	81 e0       	ldi	r24, 0x01	; 1
    1cc0:	20 c1       	rjmp	.+576    	; 0x1f02 <Search+0x374>
    1cc2:	8c 2d       	mov	r24, r12
    1cc4:	9b 2d       	mov	r25, r11
    1cc6:	4c 01       	movw	r8, r24
    1cc8:	68 2d       	mov	r22, r8
    1cca:	79 2d       	mov	r23, r9
					for(offset=0;offset<512;offset+=32)
					{
						item=(struct direntry *)(&buffer[offset]);//pointer convert
						//find a valid item and display it
						if((item->deName[0] != '.') && (item->deName[0] != 0x00) && (item->deName[0] != 0xe5) && (item->deAttributes != 0x0f))
    1ccc:	f4 01       	movw	r30, r8
    1cce:	80 81       	ld	r24, Z
    1cd0:	8e 32       	cpi	r24, 0x2E	; 46
    1cd2:	41 f1       	breq	.+80     	; 0x1d24 <Search+0x196>
    1cd4:	88 23       	and	r24, r24
    1cd6:	31 f1       	breq	.+76     	; 0x1d24 <Search+0x196>
    1cd8:	85 3e       	cpi	r24, 0xE5	; 229
    1cda:	21 f1       	breq	.+72     	; 0x1d24 <Search+0x196>
    1cdc:	83 85       	ldd	r24, Z+11	; 0x0b
    1cde:	8f 30       	cpi	r24, 0x0F	; 15
    1ce0:	09 f1       	breq	.+66     	; 0x1d24 <Search+0x196>
						{
						
							if((item->deExtension[0] == file_type[0])&&(item->deExtension[1] == file_type[1])&&(item->deExtension[2] == file_type[2]))
    1ce2:	80 85       	ldd	r24, Z+8	; 0x08
    1ce4:	82 34       	cpi	r24, 0x42	; 66
    1ce6:	f1 f4       	brne	.+60     	; 0x1d24 <Search+0x196>
    1ce8:	81 85       	ldd	r24, Z+9	; 0x09
    1cea:	82 15       	cp	r24, r2
    1cec:	d9 f4       	brne	.+54     	; 0x1d24 <Search+0x196>
    1cee:	82 85       	ldd	r24, Z+10	; 0x0a
    1cf0:	f9 81       	ldd	r31, Y+1	; 0x01
    1cf2:	8f 17       	cp	r24, r31
    1cf4:	b9 f4       	brne	.+46     	; 0x1d24 <Search+0x196>
							{
								
								CopyDirentruyItem(MusicInfo,item);
    1cf6:	8e 81       	ldd	r24, Y+6	; 0x06
    1cf8:	9f 81       	ldd	r25, Y+7	; 0x07
    1cfa:	0e 94 54 03 	call	0x6a8	; 0x6a8 <CopyDirentruyItem>
								
								i++;
    1cfe:	2c 81       	ldd	r18, Y+4	; 0x04
    1d00:	3d 81       	ldd	r19, Y+5	; 0x05
    1d02:	2f 5f       	subi	r18, 0xFF	; 255
    1d04:	3f 4f       	sbci	r19, 0xFF	; 255
    1d06:	3d 83       	std	Y+5, r19	; 0x05
    1d08:	2c 83       	std	Y+4, r18	; 0x04
								if(i==*Count){free(buffer);return 0;}
    1d0a:	e8 85       	ldd	r30, Y+8	; 0x08
    1d0c:	f9 85       	ldd	r31, Y+9	; 0x09
    1d0e:	80 81       	ld	r24, Z
    1d10:	91 81       	ldd	r25, Z+1	; 0x01
    1d12:	82 17       	cp	r24, r18
    1d14:	93 07       	cpc	r25, r19
    1d16:	31 f4       	brne	.+12     	; 0x1d24 <Search+0x196>
    1d18:	8e 2d       	mov	r24, r14
    1d1a:	9d 2d       	mov	r25, r13
    1d1c:	0e 94 67 1c 	call	0x38ce	; 0x38ce <free>
    1d20:	80 e0       	ldi	r24, 0x00	; 0
    1d22:	ef c0       	rjmp	.+478    	; 0x1f02 <Search+0x374>
    1d24:	20 e2       	ldi	r18, 0x20	; 32
    1d26:	30 e0       	ldi	r19, 0x00	; 0
    1d28:	82 0e       	add	r8, r18
    1d2a:	93 1e       	adc	r9, r19
				
				
				for(cnt=0;cnt<RootDirSectors;cnt++)
				{
					if(FAT_ReadSector(FirstDirSector+cnt,buffer)){free(buffer);return 1;}
					for(offset=0;offset<512;offset+=32)
    1d2c:	80 16       	cp	r8, r16
    1d2e:	91 06       	cpc	r9, r17
    1d30:	59 f6       	brne	.-106    	; 0x1cc8 <Search+0x13a>
			
				buffer=malloc(512);//动态分配空间512字节
				if(buffer==0)return 1;//if failed
				
				
				for(cnt=0;cnt<RootDirSectors;cnt++)
    1d32:	f3 94       	inc	r15
    1d34:	2f 2d       	mov	r18, r15
    1d36:	30 e0       	ldi	r19, 0x00	; 0
    1d38:	40 e0       	ldi	r20, 0x00	; 0
    1d3a:	50 e0       	ldi	r21, 0x00	; 0
    1d3c:	80 91 f9 0d 	lds	r24, 0x0DF9
    1d40:	90 91 fa 0d 	lds	r25, 0x0DFA
    1d44:	a0 91 fb 0d 	lds	r26, 0x0DFB
    1d48:	b0 91 fc 0d 	lds	r27, 0x0DFC
    1d4c:	28 17       	cp	r18, r24
    1d4e:	39 07       	cpc	r19, r25
    1d50:	4a 07       	cpc	r20, r26
    1d52:	5b 07       	cpc	r21, r27
    1d54:	08 f4       	brcc	.+2      	; 0x1d58 <Search+0x1ca>
    1d56:	98 cf       	rjmp	.-208    	; 0x1c88 <Search+0xfa>
								if(i==*Count){free(buffer);return 0;}
							}							 
						}
					}
				}
				free(buffer);//release释放空间
    1d58:	8e 2d       	mov	r24, r14
    1d5a:	9d 2d       	mov	r25, r13
    1d5c:	0e 94 67 1c 	call	0x38ce	; 0x38ce <free>
    1d60:	4d cf       	rjmp	.-358    	; 0x1bfc <Search+0x6e>
			else//other folders
			{
				tempclust=cluster;
				while(1)
				{
					sector=FirstDataSector+(DWORD)(tempclust-2)*(DWORD)SectorsPerClust;//calculate the actual sector number
    1d62:	c3 01       	movw	r24, r6
    1d64:	b2 01       	movw	r22, r4
    1d66:	62 50       	subi	r22, 0x02	; 2
    1d68:	70 40       	sbci	r23, 0x00	; 0
    1d6a:	80 40       	sbci	r24, 0x00	; 0
    1d6c:	90 40       	sbci	r25, 0x00	; 0
    1d6e:	20 91 d2 0d 	lds	r18, 0x0DD2
    1d72:	30 91 d3 0d 	lds	r19, 0x0DD3
    1d76:	40 e0       	ldi	r20, 0x00	; 0
    1d78:	50 e0       	ldi	r21, 0x00	; 0
    1d7a:	0e 94 2e 1b 	call	0x365c	; 0x365c <__mulsi3>
    1d7e:	20 91 dc 0d 	lds	r18, 0x0DDC
    1d82:	30 91 dd 0d 	lds	r19, 0x0DDD
    1d86:	40 91 de 0d 	lds	r20, 0x0DDE
    1d8a:	50 91 df 0d 	lds	r21, 0x0DDF
    1d8e:	5b 01       	movw	r10, r22
    1d90:	6c 01       	movw	r12, r24
    1d92:	a2 0e       	add	r10, r18
    1d94:	b3 1e       	adc	r11, r19
    1d96:	c4 1e       	adc	r12, r20
    1d98:	d5 1e       	adc	r13, r21
					buffer=malloc(512);//apply memory
    1d9a:	80 e0       	ldi	r24, 0x00	; 0
    1d9c:	92 e0       	ldi	r25, 0x02	; 2
    1d9e:	0e 94 ba 1b 	call	0x3774	; 0x3774 <malloc>
    1da2:	9c 01       	movw	r18, r24
    1da4:	c9 01       	movw	r24, r18
    1da6:	e2 2e       	mov	r14, r18
    1da8:	99 2e       	mov	r9, r25
					if(buffer==0)return 1;//if failed
    1daa:	21 15       	cp	r18, r1
    1dac:	31 05       	cpc	r19, r1
    1dae:	09 f4       	brne	.+2      	; 0x1db2 <Search+0x224>
    1db0:	a7 c0       	rjmp	.+334    	; 0x1f00 <Search+0x372>
					for(cnt=0;cnt<SectorsPerClust;cnt++)
    1db2:	80 91 d2 0d 	lds	r24, 0x0DD2
    1db6:	90 91 d3 0d 	lds	r25, 0x0DD3
    1dba:	89 2b       	or	r24, r25
    1dbc:	09 f4       	brne	.+2      	; 0x1dc0 <Search+0x232>
    1dbe:	63 c0       	rjmp	.+198    	; 0x1e86 <Search+0x2f8>
    1dc0:	fa 84       	ldd	r15, Y+10	; 0x0a
					{
						if(FAT_ReadSector(sector+cnt,buffer)){free(buffer);return 1;}
    1dc2:	c9 01       	movw	r24, r18
    1dc4:	82 2e       	mov	r8, r18
    1dc6:	39 2e       	mov	r3, r25
						for(offset=0;offset<512;offset+=32)
    1dc8:	89 01       	movw	r16, r18
    1dca:	00 50       	subi	r16, 0x00	; 0
    1dcc:	1e 4f       	sbci	r17, 0xFE	; 254
					sector=FirstDataSector+(DWORD)(tempclust-2)*(DWORD)SectorsPerClust;//calculate the actual sector number
					buffer=malloc(512);//apply memory
					if(buffer==0)return 1;//if failed
					for(cnt=0;cnt<SectorsPerClust;cnt++)
					{
						if(FAT_ReadSector(sector+cnt,buffer)){free(buffer);return 1;}
    1dce:	c6 01       	movw	r24, r12
    1dd0:	b5 01       	movw	r22, r10
    1dd2:	6f 0d       	add	r22, r15
    1dd4:	71 1d       	adc	r23, r1
    1dd6:	81 1d       	adc	r24, r1
    1dd8:	91 1d       	adc	r25, r1
    1dda:	e0 91 a7 01 	lds	r30, 0x01A7
    1dde:	f0 91 a8 01 	lds	r31, 0x01A8
    1de2:	4e 2d       	mov	r20, r14
    1de4:	59 2d       	mov	r21, r9
    1de6:	09 95       	icall
    1de8:	88 23       	and	r24, r24
    1dea:	31 f0       	breq	.+12     	; 0x1df8 <Search+0x26a>
    1dec:	8e 2d       	mov	r24, r14
    1dee:	99 2d       	mov	r25, r9
    1df0:	0e 94 67 1c 	call	0x38ce	; 0x38ce <free>
    1df4:	81 e0       	ldi	r24, 0x01	; 1
    1df6:	85 c0       	rjmp	.+266    	; 0x1f02 <Search+0x374>
    1df8:	88 2d       	mov	r24, r8
    1dfa:	93 2d       	mov	r25, r3
    1dfc:	9c 87       	std	Y+12, r25	; 0x0c
    1dfe:	8b 87       	std	Y+11, r24	; 0x0b
    1e00:	6b 85       	ldd	r22, Y+11	; 0x0b
    1e02:	7c 85       	ldd	r23, Y+12	; 0x0c
						for(offset=0;offset<512;offset+=32)
						{
							item=(struct direntry *)(&buffer[offset]);
							if((item->deName[0] != '.') && (item->deName[0] != 0x00) && (item->deName[0] != 0xe5) && (item->deAttributes != 0x0f))
    1e04:	eb 85       	ldd	r30, Y+11	; 0x0b
    1e06:	fc 85       	ldd	r31, Y+12	; 0x0c
    1e08:	80 81       	ld	r24, Z
    1e0a:	8e 32       	cpi	r24, 0x2E	; 46
    1e0c:	41 f1       	breq	.+80     	; 0x1e5e <Search+0x2d0>
    1e0e:	88 23       	and	r24, r24
    1e10:	31 f1       	breq	.+76     	; 0x1e5e <Search+0x2d0>
    1e12:	85 3e       	cpi	r24, 0xE5	; 229
    1e14:	21 f1       	breq	.+72     	; 0x1e5e <Search+0x2d0>
    1e16:	83 85       	ldd	r24, Z+11	; 0x0b
    1e18:	8f 30       	cpi	r24, 0x0F	; 15
    1e1a:	09 f1       	breq	.+66     	; 0x1e5e <Search+0x2d0>
							{		
                               		
								if((item->deExtension[0] == file_type[0])&&(item->deExtension[1] == file_type[1])&&(item->deExtension[2] == file_type[2]))
    1e1c:	80 85       	ldd	r24, Z+8	; 0x08
    1e1e:	82 34       	cpi	r24, 0x42	; 66
    1e20:	f1 f4       	brne	.+60     	; 0x1e5e <Search+0x2d0>
    1e22:	81 85       	ldd	r24, Z+9	; 0x09
    1e24:	82 15       	cp	r24, r2
    1e26:	d9 f4       	brne	.+54     	; 0x1e5e <Search+0x2d0>
    1e28:	82 85       	ldd	r24, Z+10	; 0x0a
    1e2a:	f9 81       	ldd	r31, Y+1	; 0x01
    1e2c:	8f 17       	cp	r24, r31
    1e2e:	b9 f4       	brne	.+46     	; 0x1e5e <Search+0x2d0>
								{
								    
									CopyDirentruyItem(MusicInfo,item);
    1e30:	8e 81       	ldd	r24, Y+6	; 0x06
    1e32:	9f 81       	ldd	r25, Y+7	; 0x07
    1e34:	0e 94 54 03 	call	0x6a8	; 0x6a8 <CopyDirentruyItem>
									
									i++;
    1e38:	2c 81       	ldd	r18, Y+4	; 0x04
    1e3a:	3d 81       	ldd	r19, Y+5	; 0x05
    1e3c:	2f 5f       	subi	r18, 0xFF	; 255
    1e3e:	3f 4f       	sbci	r19, 0xFF	; 255
    1e40:	3d 83       	std	Y+5, r19	; 0x05
    1e42:	2c 83       	std	Y+4, r18	; 0x04
									if(i==*Count){free(buffer);return 0;}
    1e44:	e8 85       	ldd	r30, Y+8	; 0x08
    1e46:	f9 85       	ldd	r31, Y+9	; 0x09
    1e48:	80 81       	ld	r24, Z
    1e4a:	91 81       	ldd	r25, Z+1	; 0x01
    1e4c:	82 17       	cp	r24, r18
    1e4e:	93 07       	cpc	r25, r19
    1e50:	31 f4       	brne	.+12     	; 0x1e5e <Search+0x2d0>
    1e52:	8e 2d       	mov	r24, r14
    1e54:	99 2d       	mov	r25, r9
    1e56:	0e 94 67 1c 	call	0x38ce	; 0x38ce <free>
    1e5a:	80 e0       	ldi	r24, 0x00	; 0
    1e5c:	52 c0       	rjmp	.+164    	; 0x1f02 <Search+0x374>
    1e5e:	2b 85       	ldd	r18, Y+11	; 0x0b
    1e60:	3c 85       	ldd	r19, Y+12	; 0x0c
    1e62:	20 5e       	subi	r18, 0xE0	; 224
    1e64:	3f 4f       	sbci	r19, 0xFF	; 255
    1e66:	3c 87       	std	Y+12, r19	; 0x0c
    1e68:	2b 87       	std	Y+11, r18	; 0x0b
					buffer=malloc(512);//apply memory
					if(buffer==0)return 1;//if failed
					for(cnt=0;cnt<SectorsPerClust;cnt++)
					{
						if(FAT_ReadSector(sector+cnt,buffer)){free(buffer);return 1;}
						for(offset=0;offset<512;offset+=32)
    1e6a:	20 17       	cp	r18, r16
    1e6c:	31 07       	cpc	r19, r17
    1e6e:	41 f6       	brne	.-112    	; 0x1e00 <Search+0x272>
				while(1)
				{
					sector=FirstDataSector+(DWORD)(tempclust-2)*(DWORD)SectorsPerClust;//calculate the actual sector number
					buffer=malloc(512);//apply memory
					if(buffer==0)return 1;//if failed
					for(cnt=0;cnt<SectorsPerClust;cnt++)
    1e70:	f3 94       	inc	r15
    1e72:	2f 2d       	mov	r18, r15
    1e74:	30 e0       	ldi	r19, 0x00	; 0
    1e76:	80 91 d2 0d 	lds	r24, 0x0DD2
    1e7a:	90 91 d3 0d 	lds	r25, 0x0DD3
    1e7e:	28 17       	cp	r18, r24
    1e80:	39 07       	cpc	r19, r25
    1e82:	08 f4       	brcc	.+2      	; 0x1e86 <Search+0x2f8>
    1e84:	a4 cf       	rjmp	.-184    	; 0x1dce <Search+0x240>
									if(i==*Count){free(buffer);return 0;}
								}
							}
						}
					}
					free(buffer);//release
    1e86:	8e 2d       	mov	r24, r14
    1e88:	99 2d       	mov	r25, r9
    1e8a:	0e 94 67 1c 	call	0x38ce	; 0x38ce <free>
					tempclust=FAT_NextCluster(tempclust);//next cluster
    1e8e:	c3 01       	movw	r24, r6
    1e90:	b2 01       	movw	r22, r4
    1e92:	0e 94 d6 02 	call	0x5ac	; 0x5ac <FAT_NextCluster>
    1e96:	2b 01       	movw	r4, r22
    1e98:	3c 01       	movw	r6, r24
					if(tempclust == 0x0fffffff || tempclust == 0x0ffffff8 || (FAT32_Enable == 0 && tempclust == 0xffff))break;
    1e9a:	6f 3f       	cpi	r22, 0xFF	; 255
    1e9c:	3f ef       	ldi	r19, 0xFF	; 255
    1e9e:	73 07       	cpc	r23, r19
    1ea0:	3f ef       	ldi	r19, 0xFF	; 255
    1ea2:	83 07       	cpc	r24, r19
    1ea4:	3f e0       	ldi	r19, 0x0F	; 15
    1ea6:	93 07       	cpc	r25, r19
    1ea8:	09 f4       	brne	.+2      	; 0x1eac <Search+0x31e>
    1eaa:	a8 ce       	rjmp	.-688    	; 0x1bfc <Search+0x6e>
    1eac:	88 ef       	ldi	r24, 0xF8	; 248
    1eae:	48 16       	cp	r4, r24
    1eb0:	8f ef       	ldi	r24, 0xFF	; 255
    1eb2:	58 06       	cpc	r5, r24
    1eb4:	8f ef       	ldi	r24, 0xFF	; 255
    1eb6:	68 06       	cpc	r6, r24
    1eb8:	8f e0       	ldi	r24, 0x0F	; 15
    1eba:	78 06       	cpc	r7, r24
    1ebc:	09 f4       	brne	.+2      	; 0x1ec0 <Search+0x332>
    1ebe:	9e ce       	rjmp	.-708    	; 0x1bfc <Search+0x6e>
    1ec0:	80 91 f6 0d 	lds	r24, 0x0DF6
    1ec4:	88 23       	and	r24, r24
    1ec6:	09 f0       	breq	.+2      	; 0x1eca <Search+0x33c>
    1ec8:	4c cf       	rjmp	.-360    	; 0x1d62 <Search+0x1d4>
    1eca:	9f ef       	ldi	r25, 0xFF	; 255
    1ecc:	49 16       	cp	r4, r25
    1ece:	9f ef       	ldi	r25, 0xFF	; 255
    1ed0:	59 06       	cpc	r5, r25
    1ed2:	90 e0       	ldi	r25, 0x00	; 0
    1ed4:	69 06       	cpc	r6, r25
    1ed6:	90 e0       	ldi	r25, 0x00	; 0
    1ed8:	79 06       	cpc	r7, r25
    1eda:	09 f0       	breq	.+2      	; 0x1ede <Search+0x350>
    1edc:	42 cf       	rjmp	.-380    	; 0x1d62 <Search+0x1d4>
    1ede:	8e ce       	rjmp	.-740    	; 0x1bfc <Search+0x6e>
				}
			}
		}
	}
	if(*Count==0)*Count=i;
    1ee0:	e8 85       	ldd	r30, Y+8	; 0x08
    1ee2:	f9 85       	ldd	r31, Y+9	; 0x09
    1ee4:	80 81       	ld	r24, Z
    1ee6:	91 81       	ldd	r25, Z+1	; 0x01
    1ee8:	89 2b       	or	r24, r25
    1eea:	11 f0       	breq	.+4      	; 0x1ef0 <Search+0x362>
    1eec:	80 e0       	ldi	r24, 0x00	; 0
    1eee:	09 c0       	rjmp	.+18     	; 0x1f02 <Search+0x374>
    1ef0:	2c 81       	ldd	r18, Y+4	; 0x04
    1ef2:	3d 81       	ldd	r19, Y+5	; 0x05
    1ef4:	e8 85       	ldd	r30, Y+8	; 0x08
    1ef6:	f9 85       	ldd	r31, Y+9	; 0x09
    1ef8:	31 83       	std	Z+1, r19	; 0x01
    1efa:	20 83       	st	Z, r18
    1efc:	80 e0       	ldi	r24, 0x00	; 0
    1efe:	01 c0       	rjmp	.+2      	; 0x1f02 <Search+0x374>
    1f00:	81 e0       	ldi	r24, 0x01	; 1
	GUI_sprintf_chartohex(130,300,*type,0xffff,0x0000) ;
	GUI_sprintf_chartohex(160,300,i,0xffff,0x0000) ;
	GUI_sprintf_chartohex(190,300,*Count,0xffff,0x0000) ;
	while(1) ;*/
	return 0;	
}
    1f02:	2c 96       	adiw	r28, 0x0c	; 12
    1f04:	0f b6       	in	r0, 0x3f	; 63
    1f06:	f8 94       	cli
    1f08:	de bf       	out	0x3e, r29	; 62
    1f0a:	0f be       	out	0x3f, r0	; 63
    1f0c:	cd bf       	out	0x3d, r28	; 61
    1f0e:	cf 91       	pop	r28
    1f10:	df 91       	pop	r29
    1f12:	1f 91       	pop	r17
    1f14:	0f 91       	pop	r16
    1f16:	ff 90       	pop	r15
    1f18:	ef 90       	pop	r14
    1f1a:	df 90       	pop	r13
    1f1c:	cf 90       	pop	r12
    1f1e:	bf 90       	pop	r11
    1f20:	af 90       	pop	r10
    1f22:	9f 90       	pop	r9
    1f24:	8f 90       	pop	r8
    1f26:	7f 90       	pop	r7
    1f28:	6f 90       	pop	r6
    1f2a:	5f 90       	pop	r5
    1f2c:	4f 90       	pop	r4
    1f2e:	3f 90       	pop	r3
    1f30:	2f 90       	pop	r2
    1f32:	08 95       	ret

00001f34 <disp_image>:

//***********************************************************************
//	显示图片函数，每张图片轮流显示，文件位于根目录下，24位色或32位色
//***********************************************************************
void disp_image(void)
  {
    1f34:	2f 92       	push	r2
    1f36:	3f 92       	push	r3
    1f38:	4f 92       	push	r4
    1f3a:	5f 92       	push	r5
    1f3c:	6f 92       	push	r6
    1f3e:	7f 92       	push	r7
    1f40:	8f 92       	push	r8
    1f42:	9f 92       	push	r9
    1f44:	af 92       	push	r10
    1f46:	bf 92       	push	r11
    1f48:	cf 92       	push	r12
    1f4a:	df 92       	push	r13
    1f4c:	ef 92       	push	r14
    1f4e:	ff 92       	push	r15
    1f50:	0f 93       	push	r16
    1f52:	1f 93       	push	r17
    1f54:	df 93       	push	r29
    1f56:	cf 93       	push	r28
    1f58:	cd b7       	in	r28, 0x3d	; 61
    1f5a:	de b7       	in	r29, 0x3e	; 62
    1f5c:	e2 97       	sbiw	r28, 0x32	; 50
    1f5e:	0f b6       	in	r0, 0x3f	; 63
    1f60:	f8 94       	cli
    1f62:	de bf       	out	0x3e, r29	; 62
    1f64:	0f be       	out	0x3f, r0	; 63
    1f66:	cd bf       	out	0x3d, r28	; 61
    WORD count= 1 ,i =0   ;
	uchar *buffer ;
	uchar type ,x , rgb,first ,color_byte,byte1,byte2,byte3 ;
	uint y ,color,tmp_color ;
    ulong p;												//簇指示值			
	type = 1 ;	
    1f68:	81 e0       	ldi	r24, 0x01	; 1
    1f6a:	89 83       	std	Y+1, r24	; 0x01

    struct direntry BMPInfo;								//要显示的BMP文件信息		
	
	
	
	if( image_all == 0 )    								//读取总图片数
    1f6c:	80 91 c0 0d 	lds	r24, 0x0DC0
    1f70:	90 91 c1 0d 	lds	r25, 0x0DC1
    1f74:	89 2b       	or	r24, r25
    1f76:	09 f0       	breq	.+2      	; 0x1f7a <disp_image+0x46>
    1f78:	53 c0       	rjmp	.+166    	; 0x2020 <disp_image+0xec>
	  {
         image_count =  0 ;
    1f7a:	10 92 bf 0d 	sts	0x0DBF, r1
    1f7e:	10 92 be 0d 	sts	0x0DBE, r1
	     byte1 = Search(&BMPInfo,&image_count,&type) ;
    1f82:	ce 01       	movw	r24, r28
    1f84:	02 96       	adiw	r24, 0x02	; 2
    1f86:	6e eb       	ldi	r22, 0xBE	; 190
    1f88:	7d e0       	ldi	r23, 0x0D	; 13
    1f8a:	ae 01       	movw	r20, r28
    1f8c:	4f 5f       	subi	r20, 0xFF	; 255
    1f8e:	5f 4f       	sbci	r21, 0xFF	; 255
    1f90:	0e 94 c7 0d 	call	0x1b8e	; 0x1b8e <Search>
    1f94:	8a a7       	std	Y+42, r24	; 0x2a
		 image_all = image_count ;
    1f96:	80 91 be 0d 	lds	r24, 0x0DBE
    1f9a:	90 91 bf 0d 	lds	r25, 0x0DBF
    1f9e:	90 93 c1 0d 	sts	0x0DC1, r25
    1fa2:	80 93 c0 0d 	sts	0x0DC0, r24
 		 LCD_PutChar(66,80,image_all/10+'0',Red,Black);  	//BMP图片数量显示
    1fa6:	6a e0       	ldi	r22, 0x0A	; 10
    1fa8:	70 e0       	ldi	r23, 0x00	; 0
    1faa:	0e 94 4d 1b 	call	0x369a	; 0x369a <__udivmodhi4>
    1fae:	46 2f       	mov	r20, r22
    1fb0:	40 5d       	subi	r20, 0xD0	; 208
    1fb2:	82 e4       	ldi	r24, 0x42	; 66
    1fb4:	90 e0       	ldi	r25, 0x00	; 0
    1fb6:	60 e5       	ldi	r22, 0x50	; 80
    1fb8:	70 e0       	ldi	r23, 0x00	; 0
    1fba:	20 e0       	ldi	r18, 0x00	; 0
    1fbc:	38 ef       	ldi	r19, 0xF8	; 248
    1fbe:	00 e0       	ldi	r16, 0x00	; 0
    1fc0:	10 e0       	ldi	r17, 0x00	; 0
    1fc2:	0e 94 3c 0a 	call	0x1478	; 0x1478 <LCD_PutChar>
		 LCD_PutChar(74,80,image_all%10+'0',Red,Black);  	//BMP图片数量显示
    1fc6:	80 91 c0 0d 	lds	r24, 0x0DC0
    1fca:	90 91 c1 0d 	lds	r25, 0x0DC1
    1fce:	6a e0       	ldi	r22, 0x0A	; 10
    1fd0:	70 e0       	ldi	r23, 0x00	; 0
    1fd2:	0e 94 4d 1b 	call	0x369a	; 0x369a <__udivmodhi4>
    1fd6:	48 2f       	mov	r20, r24
    1fd8:	40 5d       	subi	r20, 0xD0	; 208
    1fda:	8a e4       	ldi	r24, 0x4A	; 74
    1fdc:	90 e0       	ldi	r25, 0x00	; 0
    1fde:	60 e5       	ldi	r22, 0x50	; 80
    1fe0:	70 e0       	ldi	r23, 0x00	; 0
    1fe2:	20 e0       	ldi	r18, 0x00	; 0
    1fe4:	38 ef       	ldi	r19, 0xF8	; 248
    1fe6:	0e 94 3c 0a 	call	0x1478	; 0x1478 <LCD_PutChar>
		 LCD_PutString(82,80,"        ",Black,Black);  		//BMP图片数量，最大显示99张，可以更改算法
    1fea:	82 e5       	ldi	r24, 0x52	; 82
    1fec:	90 e0       	ldi	r25, 0x00	; 0
    1fee:	60 e5       	ldi	r22, 0x50	; 80
    1ff0:	70 e0       	ldi	r23, 0x00	; 0
    1ff2:	40 e2       	ldi	r20, 0x20	; 32
    1ff4:	51 e0       	ldi	r21, 0x01	; 1
    1ff6:	20 e0       	ldi	r18, 0x00	; 0
    1ff8:	30 e0       	ldi	r19, 0x00	; 0
    1ffa:	0e 94 e9 0a 	call	0x15d2	; 0x15d2 <LCD_PutString>
    1ffe:	20 e1       	ldi	r18, 0x10	; 16
    2000:	37 e2       	ldi	r19, 0x27	; 39
    2002:	48 eb       	ldi	r20, 0xB8	; 184
    2004:	50 e0       	ldi	r21, 0x00	; 0
    2006:	ca 01       	movw	r24, r20
    2008:	01 97       	sbiw	r24, 0x01	; 1
    200a:	f1 f7       	brne	.-4      	; 0x2008 <disp_image+0xd4>
		{
			// wait 1/10 ms
			_delay_loop_2(((F_CPU) / 4e3) / 10);
			__ticks --;
    200c:	21 50       	subi	r18, 0x01	; 1
    200e:	30 40       	sbci	r19, 0x00	; 0
		__ticks = 1;
	else if (__tmp > 65535)
	{
		//	__ticks = requested delay in 1/10 ms
		__ticks = (uint16_t) (__ms * 10.0);
		while(__ticks)
    2010:	d1 f7       	brne	.-12     	; 0x2006 <disp_image+0xd2>
		 delay_ms(1000);
		 image_count = 1 ;
    2012:	81 e0       	ldi	r24, 0x01	; 1
    2014:	90 e0       	ldi	r25, 0x00	; 0
    2016:	90 93 bf 0d 	sts	0x0DBF, r25
    201a:	80 93 be 0d 	sts	0x0DBE, r24
    201e:	0a c0       	rjmp	.+20     	; 0x2034 <disp_image+0x100>
		 		 
	  }
	else  
      {		
          byte1 = Search(&BMPInfo,&image_count,&type) ;
    2020:	ce 01       	movw	r24, r28
    2022:	02 96       	adiw	r24, 0x02	; 2
    2024:	6e eb       	ldi	r22, 0xBE	; 190
    2026:	7d e0       	ldi	r23, 0x0D	; 13
    2028:	ae 01       	movw	r20, r28
    202a:	4f 5f       	subi	r20, 0xFF	; 255
    202c:	5f 4f       	sbci	r21, 0xFF	; 255
    202e:	0e 94 c7 0d 	call	0x1b8e	; 0x1b8e <Search>
    2032:	8a a7       	std	Y+42, r24	; 0x2a
      }	
	 
	 
	 
	p = BMPInfo.deStartCluster+(((ulong)BMPInfo.deHighClust)<<16);//读文件首簇
    2034:	2e 89       	ldd	r18, Y+22	; 0x16
    2036:	3f 89       	ldd	r19, Y+23	; 0x17
    2038:	40 e0       	ldi	r20, 0x00	; 0
    203a:	50 e0       	ldi	r21, 0x00	; 0
    203c:	a9 01       	movw	r20, r18
    203e:	33 27       	eor	r19, r19
    2040:	22 27       	eor	r18, r18
    2042:	8c 8d       	ldd	r24, Y+28	; 0x1c
    2044:	9d 8d       	ldd	r25, Y+29	; 0x1d
    2046:	a0 e0       	ldi	r26, 0x00	; 0
    2048:	b0 e0       	ldi	r27, 0x00	; 0
    204a:	79 01       	movw	r14, r18
    204c:	8a 01       	movw	r16, r20
    204e:	e8 0e       	add	r14, r24
    2050:	f9 1e       	adc	r15, r25
    2052:	0a 1f       	adc	r16, r26
    2054:	1b 1f       	adc	r17, r27
    2056:	ea a2       	std	Y+34, r14	; 0x22
    2058:	fb a2       	std	Y+35, r15	; 0x23
    205a:	0c a3       	std	Y+36, r16	; 0x24
    205c:	1d a3       	std	Y+37, r17	; 0x25
	x = 0 ;
	y = 319 ;
	rgb = 0 ;
	count = 0 ;
	first = 0 ;
	buffer=malloc(512);	
    205e:	80 e0       	ldi	r24, 0x00	; 0
    2060:	92 e0       	ldi	r25, 0x02	; 2
    2062:	0e 94 ba 1b 	call	0x3774	; 0x3774 <malloc>
    2066:	2c 01       	movw	r4, r24
    2068:	1c a6       	std	Y+44, r1	; 0x2c
    206a:	dd 24       	eor	r13, r13
    206c:	1b a6       	std	Y+43, r1	; 0x2b
    206e:	0f e3       	ldi	r16, 0x3F	; 63
    2070:	11 e0       	ldi	r17, 0x01	; 1
    2072:	1f a3       	std	Y+39, r17	; 0x27
    2074:	0e a3       	std	Y+38, r16	; 0x26
			    Put_pixel(x, y,color) ;
				color = 0x00 ;
			    x++ ;
			    if(x>=240)
				  {
				    y-- ;
    2076:	80 e0       	ldi	r24, 0x00	; 0
    2078:	90 e0       	ldi	r25, 0x00	; 0
    207a:	8f a7       	std	Y+47, r24	; 0x2f
    207c:	98 ab       	std	Y+48, r25	; 0x30
    207e:	89 ab       	std	Y+49, r24	; 0x31
    2080:	9a ab       	std	Y+50, r25	; 0x32
	buffer=malloc(512);	
	while(1)
	 {
		i = 0 ;
	
	    for( ; i < SectorsPerClust ; i++ )      //簇
    2082:	80 91 d2 0d 	lds	r24, 0x0DD2
    2086:	90 91 d3 0d 	lds	r25, 0x0DD3
    208a:	89 2b       	or	r24, r25
    208c:	09 f4       	brne	.+2      	; 0x2090 <disp_image+0x15c>
    208e:	db c0       	rjmp	.+438    	; 0x2246 <disp_image+0x312>
    2090:	88 24       	eor	r8, r8
    2092:	99 24       	eor	r9, r9
	     {
	 
	        FAT_LoadPartCluster(p,i,buffer);	//读一个扇区	
    2094:	6a a1       	ldd	r22, Y+34	; 0x22
    2096:	7b a1       	ldd	r23, Y+35	; 0x23
    2098:	8c a1       	ldd	r24, Y+36	; 0x24
    209a:	9d a1       	ldd	r25, Y+37	; 0x25
    209c:	a4 01       	movw	r20, r8
    209e:	92 01       	movw	r18, r4
    20a0:	0e 94 a1 02 	call	0x542	; 0x542 <FAT_LoadPartCluster>
	   
	        if(i==0 && first==0) { count= buffer[0x0a] ; color_byte = buffer[0x1c] / 8  ;  first = 1 ; } 
    20a4:	81 14       	cp	r8, r1
    20a6:	91 04       	cpc	r9, r1
    20a8:	39 f0       	breq	.+14     	; 0x20b8 <disp_image+0x184>
    20aa:	8f a5       	ldd	r24, Y+47	; 0x2f
    20ac:	98 a9       	ldd	r25, Y+48	; 0x30
    20ae:	7c 01       	movw	r14, r24
    20b0:	82 01       	movw	r16, r4
    20b2:	0e 0d       	add	r16, r14
    20b4:	1f 1d       	adc	r17, r15
    20b6:	12 c0       	rjmp	.+36     	; 0x20dc <disp_image+0x1a8>
    20b8:	1b a5       	ldd	r17, Y+43	; 0x2b
    20ba:	11 23       	and	r17, r17
    20bc:	b1 f7       	brne	.-20     	; 0x20aa <disp_image+0x176>
    20be:	d2 01       	movw	r26, r4
    20c0:	1a 96       	adiw	r26, 0x0a	; 10
    20c2:	8c 91       	ld	r24, X
    20c4:	1a 97       	sbiw	r26, 0x0a	; 10
    20c6:	e8 2e       	mov	r14, r24
    20c8:	ff 24       	eor	r15, r15
    20ca:	5c 96       	adiw	r26, 0x1c	; 28
    20cc:	8c 91       	ld	r24, X
    20ce:	c8 2e       	mov	r12, r24
    20d0:	c6 94       	lsr	r12
    20d2:	c6 94       	lsr	r12
    20d4:	c6 94       	lsr	r12
	        else { count=0 ; }
	   
	        
			
			while(count<512)  					//读取一簇512扇区 (SectorsPerClust 每簇扇区数)
    20d6:	b1 e0       	ldi	r27, 0x01	; 1
    20d8:	bb a7       	std	Y+43, r27	; 0x2b
    20da:	ea cf       	rjmp	.-44     	; 0x20b0 <disp_image+0x17c>
	          {
		   
		        if(color_byte == 3)   			//24位颜色图
    20dc:	e3 e0       	ldi	r30, 0x03	; 3
    20de:	ce 16       	cp	r12, r30
    20e0:	71 f5       	brne	.+92     	; 0x213e <disp_image+0x20a>
		          {
                      switch ( rgb ) 
    20e2:	f1 e0       	ldi	r31, 0x01	; 1
    20e4:	df 16       	cp	r13, r31
    20e6:	79 f0       	breq	.+30     	; 0x2106 <disp_image+0x1d2>
    20e8:	df 16       	cp	r13, r31
    20ea:	20 f0       	brcs	.+8      	; 0x20f4 <disp_image+0x1c0>
    20ec:	22 e0       	ldi	r18, 0x02	; 2
    20ee:	d2 16       	cp	r13, r18
    20f0:	21 f5       	brne	.+72     	; 0x213a <disp_image+0x206>
    20f2:	19 c0       	rjmp	.+50     	; 0x2126 <disp_image+0x1f2>
                        {
			               case 0 : tmp_color = buffer[count]>>3 ;
			                        color |= tmp_color;
    20f4:	d8 01       	movw	r26, r16
    20f6:	8c 91       	ld	r24, X
    20f8:	86 95       	lsr	r24
    20fa:	86 95       	lsr	r24
    20fc:	86 95       	lsr	r24
    20fe:	90 e0       	ldi	r25, 0x00	; 0
    2100:	a8 2a       	or	r10, r24
    2102:	b9 2a       	or	r11, r25
    2104:	1a c0       	rjmp	.+52     	; 0x213a <disp_image+0x206>
					                break ;
					  
			               case 1 : tmp_color = buffer[count]>>2 ;
    2106:	f8 01       	movw	r30, r16
    2108:	80 81       	ld	r24, Z
    210a:	86 95       	lsr	r24
    210c:	86 95       	lsr	r24
    210e:	90 e0       	ldi	r25, 0x00	; 0
			                        tmp_color <<= 5 ;
			                        color |= tmp_color ;
    2110:	88 0f       	add	r24, r24
    2112:	99 1f       	adc	r25, r25
    2114:	82 95       	swap	r24
    2116:	92 95       	swap	r25
    2118:	90 7f       	andi	r25, 0xF0	; 240
    211a:	98 27       	eor	r25, r24
    211c:	80 7f       	andi	r24, 0xF0	; 240
    211e:	98 27       	eor	r25, r24
    2120:	a8 2a       	or	r10, r24
    2122:	b9 2a       	or	r11, r25
    2124:	0a c0       	rjmp	.+20     	; 0x213a <disp_image+0x206>
					                break ;
					   
       			           case 2 : tmp_color = buffer[count]>>3 ;
    2126:	d8 01       	movw	r26, r16
    2128:	8c 91       	ld	r24, X
			                        tmp_color <<= 11 ;
			                        color |= tmp_color ;
    212a:	0f 2e       	mov	r0, r31
    212c:	f8 ef       	ldi	r31, 0xF8	; 248
    212e:	7f 2e       	mov	r7, r31
    2130:	f0 2d       	mov	r31, r0
    2132:	78 22       	and	r7, r24
    2134:	66 24       	eor	r6, r6
    2136:	a6 28       	or	r10, r6
    2138:	b7 28       	or	r11, r7
					                 break ;			
			            }
			
                      rgb ++ ;
    213a:	d3 94       	inc	r13
    213c:	51 c0       	rjmp	.+162    	; 0x21e0 <disp_image+0x2ac>
			      }
		        else
		          {
			          if(color_byte==2)  //16位颜色图
    213e:	b2 e0       	ldi	r27, 0x02	; 2
    2140:	cb 16       	cp	r12, r27
    2142:	a9 f4       	brne	.+42     	; 0x216e <disp_image+0x23a>
				        {
				          switch ( rgb )
    2144:	dd 20       	and	r13, r13
    2146:	21 f0       	breq	.+8      	; 0x2150 <disp_image+0x21c>
    2148:	e1 e0       	ldi	r30, 0x01	; 1
    214a:	de 16       	cp	r13, r30
    214c:	71 f4       	brne	.+28     	; 0x216a <disp_image+0x236>
    214e:	04 c0       	rjmp	.+8      	; 0x2158 <disp_image+0x224>
					        {
					          case 0 : byte1 = buffer[count] ;
    2150:	d8 01       	movw	r26, r16
    2152:	bc 91       	ld	r27, X
    2154:	ba a7       	std	Y+42, r27	; 0x2a
    2156:	09 c0       	rjmp	.+18     	; 0x216a <disp_image+0x236>
								       break ; 
								   
						      case 1 :    
								       color = buffer[count] ;
								       color<<=8 ;
    2158:	f8 01       	movw	r30, r16
    215a:	30 80       	ld	r3, Z
    215c:	22 24       	eor	r2, r2
								       color |= byte1 ;
    215e:	fa a5       	ldd	r31, Y+42	; 0x2a
    2160:	8f 2f       	mov	r24, r31
    2162:	90 e0       	ldi	r25, 0x00	; 0
    2164:	5c 01       	movw	r10, r24
    2166:	a2 28       	or	r10, r2
    2168:	b3 28       	or	r11, r3
								       break ;
					     
					        }
					      rgb ++ ;
    216a:	d3 94       	inc	r13
    216c:	39 c0       	rjmp	.+114    	; 0x21e0 <disp_image+0x2ac>
				    
				        }
				      else 
				        {
				          if(color_byte==4) //32位颜色图
    216e:	24 e0       	ldi	r18, 0x04	; 4
    2170:	c2 16       	cp	r12, r18
    2172:	b1 f5       	brne	.+108    	; 0x21e0 <disp_image+0x2ac>
				            {
				              switch ( rgb )
    2174:	81 e0       	ldi	r24, 0x01	; 1
    2176:	d8 16       	cp	r13, r24
    2178:	69 f0       	breq	.+26     	; 0x2194 <disp_image+0x260>
    217a:	d8 16       	cp	r13, r24
    217c:	38 f0       	brcs	.+14     	; 0x218c <disp_image+0x258>
    217e:	92 e0       	ldi	r25, 0x02	; 2
    2180:	d9 16       	cp	r13, r25
    2182:	61 f0       	breq	.+24     	; 0x219c <disp_image+0x268>
    2184:	a3 e0       	ldi	r26, 0x03	; 3
    2186:	da 16       	cp	r13, r26
    2188:	51 f5       	brne	.+84     	; 0x21de <disp_image+0x2aa>
    218a:	0c c0       	rjmp	.+24     	; 0x21a4 <disp_image+0x270>
					            {
					              case 0 :  byte1 = buffer[count] ;
    218c:	f8 01       	movw	r30, r16
    218e:	f0 81       	ld	r31, Z
    2190:	fa a7       	std	Y+42, r31	; 0x2a
    2192:	25 c0       	rjmp	.+74     	; 0x21de <disp_image+0x2aa>
								            break ; 
								   
						          case 1 :  byte2 = buffer[count] ;
    2194:	d8 01       	movw	r26, r16
    2196:	bc 91       	ld	r27, X
    2198:	b9 a7       	std	Y+41, r27	; 0x29
    219a:	21 c0       	rjmp	.+66     	; 0x21de <disp_image+0x2aa>
                                            break ;
									   
							      case 2 :  byte3 = buffer[count] ;
    219c:	f8 01       	movw	r30, r16
    219e:	f0 81       	ld	r31, Z
    21a0:	f8 a7       	std	Y+40, r31	; 0x28
    21a2:	1d c0       	rjmp	.+58     	; 0x21de <disp_image+0x2aa>
							                break ;
									   
							      case 3 :  tmp_color = byte1 >> 3 ;
			                                color |= tmp_color;
									        tmp_color = byte2 >>2 ;
    21a4:	29 a5       	ldd	r18, Y+41	; 0x29
    21a6:	26 95       	lsr	r18
    21a8:	26 95       	lsr	r18
    21aa:	30 e0       	ldi	r19, 0x00	; 0
									   
							      case 2 :  byte3 = buffer[count] ;
							                break ;
									   
							      case 3 :  tmp_color = byte1 >> 3 ;
			                                color |= tmp_color;
    21ac:	8a a5       	ldd	r24, Y+42	; 0x2a
    21ae:	86 95       	lsr	r24
    21b0:	86 95       	lsr	r24
    21b2:	86 95       	lsr	r24
    21b4:	90 e0       	ldi	r25, 0x00	; 0
    21b6:	8a 29       	or	r24, r10
    21b8:	9b 29       	or	r25, r11
									        tmp_color = byte2 >>2 ;
			                                tmp_color <<= 5 ;
			                                color |= tmp_color ;
    21ba:	22 0f       	add	r18, r18
    21bc:	33 1f       	adc	r19, r19
    21be:	22 95       	swap	r18
    21c0:	32 95       	swap	r19
    21c2:	30 7f       	andi	r19, 0xF0	; 240
    21c4:	32 27       	eor	r19, r18
    21c6:	20 7f       	andi	r18, 0xF0	; 240
    21c8:	32 27       	eor	r19, r18
    21ca:	82 2b       	or	r24, r18
    21cc:	93 2b       	or	r25, r19
									        tmp_color = byte3 >>3 ;
			                                tmp_color <<= 11 ;
			                                color |= tmp_color ;
    21ce:	28 a5       	ldd	r18, Y+40	; 0x28
    21d0:	28 7f       	andi	r18, 0xF8	; 248
    21d2:	2e a7       	std	Y+46, r18	; 0x2e
    21d4:	1d a6       	std	Y+45, r1	; 0x2d
    21d6:	ad a4       	ldd	r10, Y+45	; 0x2d
    21d8:	be a4       	ldd	r11, Y+46	; 0x2e
    21da:	a8 2a       	or	r10, r24
    21dc:	b9 2a       	or	r11, r25
									        break ;
					     
					            }
					           rgb ++ ;
    21de:	d3 94       	inc	r13
				     
				        }   
			 
			       }
           
		   count ++ ;
    21e0:	08 94       	sec
    21e2:	e1 1c       	adc	r14, r1
    21e4:	f1 1c       	adc	r15, r1
		   
		   if(rgb == color_byte)        //读取1像素数数据后显示
    21e6:	dc 14       	cp	r13, r12
    21e8:	d9 f4       	brne	.+54     	; 0x2220 <disp_image+0x2ec>
		     {
			    Put_pixel(x, y,color) ;
    21ea:	8c a5       	ldd	r24, Y+44	; 0x2c
    21ec:	90 e0       	ldi	r25, 0x00	; 0
    21ee:	6e a1       	ldd	r22, Y+38	; 0x26
    21f0:	7f a1       	ldd	r23, Y+39	; 0x27
    21f2:	a5 01       	movw	r20, r10
    21f4:	0e 94 57 0d 	call	0x1aae	; 0x1aae <Put_pixel>
				color = 0x00 ;
			    x++ ;
    21f8:	8c a5       	ldd	r24, Y+44	; 0x2c
    21fa:	8f 5f       	subi	r24, 0xFF	; 255
    21fc:	8c a7       	std	Y+44, r24	; 0x2c
			    if(x>=240)
    21fe:	80 3f       	cpi	r24, 0xF0	; 240
    2200:	28 f4       	brcc	.+10     	; 0x220c <disp_image+0x2d8>
    2202:	dd 24       	eor	r13, r13
    2204:	89 a9       	ldd	r24, Y+49	; 0x31
    2206:	9a a9       	ldd	r25, Y+50	; 0x32
    2208:	5c 01       	movw	r10, r24
    220a:	0a c0       	rjmp	.+20     	; 0x2220 <disp_image+0x2ec>
				  {
				    y-- ;
    220c:	ae a1       	ldd	r26, Y+38	; 0x26
    220e:	bf a1       	ldd	r27, Y+39	; 0x27
    2210:	11 97       	sbiw	r26, 0x01	; 1
    2212:	bf a3       	std	Y+39, r27	; 0x27
    2214:	ae a3       	std	Y+38, r26	; 0x26
    2216:	1c a6       	std	Y+44, r1	; 0x2c
    2218:	dd 24       	eor	r13, r13
    221a:	89 a9       	ldd	r24, Y+49	; 0x31
    221c:	9a a9       	ldd	r25, Y+50	; 0x32
    221e:	5c 01       	movw	r10, r24
    2220:	0f 5f       	subi	r16, 0xFF	; 255
    2222:	1f 4f       	sbci	r17, 0xFF	; 255
	        if(i==0 && first==0) { count= buffer[0x0a] ; color_byte = buffer[0x1c] / 8  ;  first = 1 ; } 
	        else { count=0 ; }
	   
	        
			
			while(count<512)  					//读取一簇512扇区 (SectorsPerClust 每簇扇区数)
    2224:	b0 e0       	ldi	r27, 0x00	; 0
    2226:	eb 16       	cp	r14, r27
    2228:	b2 e0       	ldi	r27, 0x02	; 2
    222a:	fb 06       	cpc	r15, r27
    222c:	08 f4       	brcc	.+2      	; 0x2230 <disp_image+0x2fc>
    222e:	56 cf       	rjmp	.-340    	; 0x20dc <disp_image+0x1a8>
	buffer=malloc(512);	
	while(1)
	 {
		i = 0 ;
	
	    for( ; i < SectorsPerClust ; i++ )      //簇
    2230:	08 94       	sec
    2232:	81 1c       	adc	r8, r1
    2234:	91 1c       	adc	r9, r1
    2236:	80 91 d2 0d 	lds	r24, 0x0DD2
    223a:	90 91 d3 0d 	lds	r25, 0x0DD3
    223e:	88 16       	cp	r8, r24
    2240:	99 06       	cpc	r9, r25
    2242:	08 f4       	brcc	.+2      	; 0x2246 <disp_image+0x312>
    2244:	27 cf       	rjmp	.-434    	; 0x2094 <disp_image+0x160>
			
		}
	   
	 }  // 读取完一簇数据
	 
	 free(buffer) ;
    2246:	c2 01       	movw	r24, r4
    2248:	0e 94 67 1c 	call	0x38ce	; 0x38ce <free>
	 p=FAT_NextCluster(p);//读下一簇数据			
    224c:	6a a1       	ldd	r22, Y+34	; 0x22
    224e:	7b a1       	ldd	r23, Y+35	; 0x23
    2250:	8c a1       	ldd	r24, Y+36	; 0x24
    2252:	9d a1       	ldd	r25, Y+37	; 0x25
    2254:	0e 94 d6 02 	call	0x5ac	; 0x5ac <FAT_NextCluster>
    2258:	6a a3       	std	Y+34, r22	; 0x22
    225a:	7b a3       	std	Y+35, r23	; 0x23
    225c:	8c a3       	std	Y+36, r24	; 0x24
    225e:	9d a3       	std	Y+37, r25	; 0x25
	 buffer=malloc(512);	
    2260:	80 e0       	ldi	r24, 0x00	; 0
    2262:	92 e0       	ldi	r25, 0x02	; 2
    2264:	0e 94 ba 1b 	call	0x3774	; 0x3774 <malloc>
    2268:	2c 01       	movw	r4, r24
	
	if(p == 0x0fffffff || p == 0x0ffffff8 || (FAT32_Enable == 0 && p == 0xffff))//如果无后续簇则结束
    226a:	8a a1       	ldd	r24, Y+34	; 0x22
    226c:	9b a1       	ldd	r25, Y+35	; 0x23
    226e:	ac a1       	ldd	r26, Y+36	; 0x24
    2270:	bd a1       	ldd	r27, Y+37	; 0x25
    2272:	8f 3f       	cpi	r24, 0xFF	; 255
    2274:	ef ef       	ldi	r30, 0xFF	; 255
    2276:	9e 07       	cpc	r25, r30
    2278:	ef ef       	ldi	r30, 0xFF	; 255
    227a:	ae 07       	cpc	r26, r30
    227c:	ef e0       	ldi	r30, 0x0F	; 15
    227e:	be 07       	cpc	r27, r30
    2280:	a1 f0       	breq	.+40     	; 0x22aa <disp_image+0x376>
    2282:	88 5f       	subi	r24, 0xF8	; 248
    2284:	9f 4f       	sbci	r25, 0xFF	; 255
    2286:	af 4f       	sbci	r26, 0xFF	; 255
    2288:	bf 40       	sbci	r27, 0x0F	; 15
    228a:	79 f0       	breq	.+30     	; 0x22aa <disp_image+0x376>
    228c:	80 91 f6 0d 	lds	r24, 0x0DF6
    2290:	88 23       	and	r24, r24
    2292:	09 f0       	breq	.+2      	; 0x2296 <disp_image+0x362>
    2294:	f6 ce       	rjmp	.-532    	; 0x2082 <disp_image+0x14e>
    2296:	8a a1       	ldd	r24, Y+34	; 0x22
    2298:	9b a1       	ldd	r25, Y+35	; 0x23
    229a:	ac a1       	ldd	r26, Y+36	; 0x24
    229c:	bd a1       	ldd	r27, Y+37	; 0x25
    229e:	8f 5f       	subi	r24, 0xFF	; 255
    22a0:	9f 4f       	sbci	r25, 0xFF	; 255
    22a2:	a0 40       	sbci	r26, 0x00	; 0
    22a4:	b0 40       	sbci	r27, 0x00	; 0
    22a6:	09 f0       	breq	.+2      	; 0x22aa <disp_image+0x376>
    22a8:	ec ce       	rjmp	.-552    	; 0x2082 <disp_image+0x14e>
		{
		        free(buffer) ;
    22aa:	c2 01       	movw	r24, r4
    22ac:	0e 94 67 1c 	call	0x38ce	; 0x38ce <free>
	 
  }
		
	free(buffer) ;
  
 }
    22b0:	e2 96       	adiw	r28, 0x32	; 50
    22b2:	0f b6       	in	r0, 0x3f	; 63
    22b4:	f8 94       	cli
    22b6:	de bf       	out	0x3e, r29	; 62
    22b8:	0f be       	out	0x3f, r0	; 63
    22ba:	cd bf       	out	0x3d, r28	; 61
    22bc:	cf 91       	pop	r28
    22be:	df 91       	pop	r29
    22c0:	1f 91       	pop	r17
    22c2:	0f 91       	pop	r16
    22c4:	ff 90       	pop	r15
    22c6:	ef 90       	pop	r14
    22c8:	df 90       	pop	r13
    22ca:	cf 90       	pop	r12
    22cc:	bf 90       	pop	r11
    22ce:	af 90       	pop	r10
    22d0:	9f 90       	pop	r9
    22d2:	8f 90       	pop	r8
    22d4:	7f 90       	pop	r7
    22d6:	6f 90       	pop	r6
    22d8:	5f 90       	pop	r5
    22da:	4f 90       	pop	r4
    22dc:	3f 90       	pop	r3
    22de:	2f 90       	pop	r2
    22e0:	08 95       	ret

000022e2 <WriteFolderCluster>:
}

#else

void WriteFolderCluster(WORD addr,DWORD cluster)
{
    22e2:	cf 92       	push	r12
    22e4:	df 92       	push	r13
    22e6:	ef 92       	push	r14
    22e8:	ff 92       	push	r15
    22ea:	0f 93       	push	r16
    22ec:	1f 93       	push	r17
    22ee:	6c 01       	movw	r12, r24
    22f0:	7a 01       	movw	r14, r20
    22f2:	8b 01       	movw	r16, r22
#if FAT_DEBUG
	printf_P(PSTR("\r\nWrite EEPROM address:%d with value:%ld"),addr,cluster);
#endif
	eeprom_write_byte(addr,cluster>>24);
    22f4:	27 2f       	mov	r18, r23
    22f6:	33 27       	eor	r19, r19
    22f8:	44 27       	eor	r20, r20
    22fa:	55 27       	eor	r21, r21
    22fc:	62 2f       	mov	r22, r18
    22fe:	0e 94 c7 1c 	call	0x398e	; 0x398e <__eewr_byte_m128>
	eeprom_write_byte(addr+1,cluster>>16);
    2302:	98 01       	movw	r18, r16
    2304:	44 27       	eor	r20, r20
    2306:	55 27       	eor	r21, r21
    2308:	c6 01       	movw	r24, r12
    230a:	01 96       	adiw	r24, 0x01	; 1
    230c:	62 2f       	mov	r22, r18
    230e:	0e 94 c7 1c 	call	0x398e	; 0x398e <__eewr_byte_m128>
	eeprom_write_byte(addr+2,cluster>>8);
    2312:	55 27       	eor	r21, r21
    2314:	41 2f       	mov	r20, r17
    2316:	30 2f       	mov	r19, r16
    2318:	2f 2d       	mov	r18, r15
    231a:	c6 01       	movw	r24, r12
    231c:	02 96       	adiw	r24, 0x02	; 2
    231e:	62 2f       	mov	r22, r18
    2320:	0e 94 c7 1c 	call	0x398e	; 0x398e <__eewr_byte_m128>
	eeprom_write_byte(addr+3,cluster>>0);
    2324:	c6 01       	movw	r24, r12
    2326:	03 96       	adiw	r24, 0x03	; 3
    2328:	6e 2d       	mov	r22, r14
    232a:	0e 94 c7 1c 	call	0x398e	; 0x398e <__eewr_byte_m128>
}
    232e:	1f 91       	pop	r17
    2330:	0f 91       	pop	r16
    2332:	ff 90       	pop	r15
    2334:	ef 90       	pop	r14
    2336:	df 90       	pop	r13
    2338:	cf 90       	pop	r12
    233a:	08 95       	ret

0000233c <SearchFolder>:
#endif
	return temp;
}

BYTE SearchFolder(DWORD cluster,WORD *addr)
{
    233c:	2f 92       	push	r2
    233e:	3f 92       	push	r3
    2340:	4f 92       	push	r4
    2342:	5f 92       	push	r5
    2344:	6f 92       	push	r6
    2346:	7f 92       	push	r7
    2348:	8f 92       	push	r8
    234a:	9f 92       	push	r9
    234c:	af 92       	push	r10
    234e:	bf 92       	push	r11
    2350:	cf 92       	push	r12
    2352:	df 92       	push	r13
    2354:	ef 92       	push	r14
    2356:	ff 92       	push	r15
    2358:	0f 93       	push	r16
    235a:	1f 93       	push	r17
    235c:	df 93       	push	r29
    235e:	cf 93       	push	r28
    2360:	00 d0       	rcall	.+0      	; 0x2362 <SearchFolder+0x26>
    2362:	0f 92       	push	r0
    2364:	cd b7       	in	r28, 0x3d	; 61
    2366:	de b7       	in	r29, 0x3e	; 62
    2368:	6a 01       	movw	r12, r20
	//unsigned char j;//long name buffer offset;
//	unsigned char *p;//long name buffer pointer
	struct direntry *item = 0;
	//struct winentry *we =0;
	
	if(cluster==0 && FAT32_Enable==0)// root directory
    236a:	61 15       	cp	r22, r1
    236c:	71 05       	cpc	r23, r1
    236e:	81 05       	cpc	r24, r1
    2370:	91 05       	cpc	r25, r1
    2372:	19 f0       	breq	.+6      	; 0x237a <SearchFolder+0x3e>
    2374:	2b 01       	movw	r4, r22
    2376:	3c 01       	movw	r6, r24
    2378:	98 c0       	rjmp	.+304    	; 0x24aa <SearchFolder+0x16e>
    237a:	80 91 f6 0d 	lds	r24, 0x0DF6
    237e:	88 23       	and	r24, r24
    2380:	21 f0       	breq	.+8      	; 0x238a <SearchFolder+0x4e>
    2382:	44 24       	eor	r4, r4
    2384:	55 24       	eor	r5, r5
    2386:	32 01       	movw	r6, r4
    2388:	90 c0       	rjmp	.+288    	; 0x24aa <SearchFolder+0x16e>
	{
		buffer=malloc(512);//apply memory
    238a:	80 e0       	ldi	r24, 0x00	; 0
    238c:	92 e0       	ldi	r25, 0x02	; 2
    238e:	0e 94 ba 1b 	call	0x3774	; 0x3774 <malloc>
    2392:	bc 01       	movw	r22, r24
    2394:	cb 01       	movw	r24, r22
    2396:	e6 2e       	mov	r14, r22
    2398:	b9 2e       	mov	r11, r25
		if(buffer==0)return 1;//if failed
    239a:	61 15       	cp	r22, r1
    239c:	71 05       	cpc	r23, r1
    239e:	09 f4       	brne	.+2      	; 0x23a2 <SearchFolder+0x66>
    23a0:	40 c1       	rjmp	.+640    	; 0x2622 <SearchFolder+0x2e6>
		for(cnt=0;cnt<RootDirSectors;cnt++)
    23a2:	80 91 f9 0d 	lds	r24, 0x0DF9
    23a6:	90 91 fa 0d 	lds	r25, 0x0DFA
    23aa:	a0 91 fb 0d 	lds	r26, 0x0DFB
    23ae:	b0 91 fc 0d 	lds	r27, 0x0DFC
    23b2:	00 97       	sbiw	r24, 0x00	; 0
    23b4:	a1 05       	cpc	r26, r1
    23b6:	b1 05       	cpc	r27, r1
    23b8:	09 f4       	brne	.+2      	; 0x23bc <SearchFolder+0x80>
    23ba:	71 c0       	rjmp	.+226    	; 0x249e <SearchFolder+0x162>
    23bc:	ff 24       	eor	r15, r15
    23be:	20 e0       	ldi	r18, 0x00	; 0
    23c0:	30 e0       	ldi	r19, 0x00	; 0
    23c2:	40 e0       	ldi	r20, 0x00	; 0
    23c4:	50 e0       	ldi	r21, 0x00	; 0
		{
			if(FAT_ReadSector(FirstDirSector+cnt,buffer)){free(buffer);return 1;}
    23c6:	cb 01       	movw	r24, r22
    23c8:	a6 2e       	mov	r10, r22
    23ca:	99 2e       	mov	r9, r25
			for(offset=0;offset<512;offset+=32)
    23cc:	8b 01       	movw	r16, r22
    23ce:	00 50       	subi	r16, 0x00	; 0
    23d0:	1e 4f       	sbci	r17, 0xFE	; 254
	{
		buffer=malloc(512);//apply memory
		if(buffer==0)return 1;//if failed
		for(cnt=0;cnt<RootDirSectors;cnt++)
		{
			if(FAT_ReadSector(FirstDirSector+cnt,buffer)){free(buffer);return 1;}
    23d2:	80 91 ca 0d 	lds	r24, 0x0DCA
    23d6:	90 91 cb 0d 	lds	r25, 0x0DCB
    23da:	a0 91 cc 0d 	lds	r26, 0x0DCC
    23de:	b0 91 cd 0d 	lds	r27, 0x0DCD
    23e2:	bc 01       	movw	r22, r24
    23e4:	cd 01       	movw	r24, r26
    23e6:	62 0f       	add	r22, r18
    23e8:	73 1f       	adc	r23, r19
    23ea:	84 1f       	adc	r24, r20
    23ec:	95 1f       	adc	r25, r21
    23ee:	e0 91 a7 01 	lds	r30, 0x01A7
    23f2:	f0 91 a8 01 	lds	r31, 0x01A8
    23f6:	4e 2d       	mov	r20, r14
    23f8:	5b 2d       	mov	r21, r11
    23fa:	09 95       	icall
    23fc:	88 23       	and	r24, r24
    23fe:	31 f0       	breq	.+12     	; 0x240c <SearchFolder+0xd0>
    2400:	8e 2d       	mov	r24, r14
    2402:	9b 2d       	mov	r25, r11
    2404:	0e 94 67 1c 	call	0x38ce	; 0x38ce <free>
    2408:	81 e0       	ldi	r24, 0x01	; 1
    240a:	0e c1       	rjmp	.+540    	; 0x2628 <SearchFolder+0x2ec>
    240c:	8a 2d       	mov	r24, r10
    240e:	99 2d       	mov	r25, r9
    2410:	3c 01       	movw	r6, r24
			for(offset=0;offset<512;offset+=32)
			{
				item=(struct direntry *)(&buffer[offset]);//pointer convert
				//find a valid item and display it
				if((item->deName[0] != '.') && (item->deName[0] != 0x00) && (item->deName[0] != 0xe5))
    2412:	f3 01       	movw	r30, r6
    2414:	80 81       	ld	r24, Z
    2416:	8e 32       	cpi	r24, 0x2E	; 46
    2418:	41 f1       	breq	.+80     	; 0x246a <SearchFolder+0x12e>
    241a:	88 23       	and	r24, r24
    241c:	31 f1       	breq	.+76     	; 0x246a <SearchFolder+0x12e>
    241e:	85 3e       	cpi	r24, 0xE5	; 229
    2420:	21 f1       	breq	.+72     	; 0x246a <SearchFolder+0x12e>
				{
					if(item->deAttributes & ATTR_DIRECTORY )
    2422:	83 85       	ldd	r24, Z+11	; 0x0b
    2424:	84 ff       	sbrs	r24, 4
    2426:	21 c0       	rjmp	.+66     	; 0x246a <SearchFolder+0x12e>
					{
						#if FAT_DEBUG
							printf_P(PSTR("\r\nFound a folder!"));
						#endif
						if(*addr==RECORD_ADDR_END)return 0;
    2428:	f6 01       	movw	r30, r12
    242a:	20 81       	ld	r18, Z
    242c:	31 81       	ldd	r19, Z+1	; 0x01
    242e:	f2 e0       	ldi	r31, 0x02	; 2
    2430:	20 30       	cpi	r18, 0x00	; 0
    2432:	3f 07       	cpc	r19, r31
    2434:	09 f4       	brne	.+2      	; 0x2438 <SearchFolder+0xfc>
    2436:	f7 c0       	rjmp	.+494    	; 0x2626 <SearchFolder+0x2ea>
						else
						{
							WriteFolderCluster(*addr,item->deStartCluster+(((unsigned long)item->deHighClust)<<16));
    2438:	f3 01       	movw	r30, r6
    243a:	44 89       	ldd	r20, Z+20	; 0x14
    243c:	55 89       	ldd	r21, Z+21	; 0x15
    243e:	60 e0       	ldi	r22, 0x00	; 0
    2440:	70 e0       	ldi	r23, 0x00	; 0
    2442:	ba 01       	movw	r22, r20
    2444:	55 27       	eor	r21, r21
    2446:	44 27       	eor	r20, r20
    2448:	82 8d       	ldd	r24, Z+26	; 0x1a
    244a:	93 8d       	ldd	r25, Z+27	; 0x1b
    244c:	a0 e0       	ldi	r26, 0x00	; 0
    244e:	b0 e0       	ldi	r27, 0x00	; 0
    2450:	48 0f       	add	r20, r24
    2452:	59 1f       	adc	r21, r25
    2454:	6a 1f       	adc	r22, r26
    2456:	7b 1f       	adc	r23, r27
    2458:	c9 01       	movw	r24, r18
    245a:	0e 94 71 11 	call	0x22e2	; 0x22e2 <WriteFolderCluster>
							*addr+=4;
    245e:	f6 01       	movw	r30, r12
    2460:	80 81       	ld	r24, Z
    2462:	91 81       	ldd	r25, Z+1	; 0x01
    2464:	04 96       	adiw	r24, 0x04	; 4
    2466:	91 83       	std	Z+1, r25	; 0x01
    2468:	80 83       	st	Z, r24
    246a:	80 e2       	ldi	r24, 0x20	; 32
    246c:	90 e0       	ldi	r25, 0x00	; 0
    246e:	68 0e       	add	r6, r24
    2470:	79 1e       	adc	r7, r25
		buffer=malloc(512);//apply memory
		if(buffer==0)return 1;//if failed
		for(cnt=0;cnt<RootDirSectors;cnt++)
		{
			if(FAT_ReadSector(FirstDirSector+cnt,buffer)){free(buffer);return 1;}
			for(offset=0;offset<512;offset+=32)
    2472:	60 16       	cp	r6, r16
    2474:	71 06       	cpc	r7, r17
    2476:	69 f6       	brne	.-102    	; 0x2412 <SearchFolder+0xd6>
	
	if(cluster==0 && FAT32_Enable==0)// root directory
	{
		buffer=malloc(512);//apply memory
		if(buffer==0)return 1;//if failed
		for(cnt=0;cnt<RootDirSectors;cnt++)
    2478:	f3 94       	inc	r15
    247a:	2f 2d       	mov	r18, r15
    247c:	30 e0       	ldi	r19, 0x00	; 0
    247e:	40 e0       	ldi	r20, 0x00	; 0
    2480:	50 e0       	ldi	r21, 0x00	; 0
    2482:	80 91 f9 0d 	lds	r24, 0x0DF9
    2486:	90 91 fa 0d 	lds	r25, 0x0DFA
    248a:	a0 91 fb 0d 	lds	r26, 0x0DFB
    248e:	b0 91 fc 0d 	lds	r27, 0x0DFC
    2492:	28 17       	cp	r18, r24
    2494:	39 07       	cpc	r19, r25
    2496:	4a 07       	cpc	r20, r26
    2498:	5b 07       	cpc	r21, r27
    249a:	08 f4       	brcc	.+2      	; 0x249e <SearchFolder+0x162>
    249c:	9a cf       	rjmp	.-204    	; 0x23d2 <SearchFolder+0x96>
						}
					}
				}
			}
		}
		free(buffer);//release
    249e:	8e 2d       	mov	r24, r14
    24a0:	9b 2d       	mov	r25, r11
    24a2:	0e 94 67 1c 	call	0x38ce	; 0x38ce <free>
    24a6:	80 e0       	ldi	r24, 0x00	; 0
    24a8:	bf c0       	rjmp	.+382    	; 0x2628 <SearchFolder+0x2ec>
	else//other folders
	{
		tempclust=cluster;
		while(1)
		{
			sector=FirstDataSector+(DWORD)(tempclust-2)*(DWORD)SectorsPerClust;//calculate the actual sector number
    24aa:	c3 01       	movw	r24, r6
    24ac:	b2 01       	movw	r22, r4
    24ae:	62 50       	subi	r22, 0x02	; 2
    24b0:	70 40       	sbci	r23, 0x00	; 0
    24b2:	80 40       	sbci	r24, 0x00	; 0
    24b4:	90 40       	sbci	r25, 0x00	; 0
    24b6:	20 91 d2 0d 	lds	r18, 0x0DD2
    24ba:	30 91 d3 0d 	lds	r19, 0x0DD3
    24be:	40 e0       	ldi	r20, 0x00	; 0
    24c0:	50 e0       	ldi	r21, 0x00	; 0
    24c2:	0e 94 2e 1b 	call	0x365c	; 0x365c <__mulsi3>
    24c6:	20 91 dc 0d 	lds	r18, 0x0DDC
    24ca:	30 91 dd 0d 	lds	r19, 0x0DDD
    24ce:	40 91 de 0d 	lds	r20, 0x0DDE
    24d2:	50 91 df 0d 	lds	r21, 0x0DDF
    24d6:	4b 01       	movw	r8, r22
    24d8:	5c 01       	movw	r10, r24
    24da:	82 0e       	add	r8, r18
    24dc:	93 1e       	adc	r9, r19
    24de:	a4 1e       	adc	r10, r20
    24e0:	b5 1e       	adc	r11, r21
			buffer=malloc(512);//apply memory
    24e2:	80 e0       	ldi	r24, 0x00	; 0
    24e4:	92 e0       	ldi	r25, 0x02	; 2
    24e6:	0e 94 ba 1b 	call	0x3774	; 0x3774 <malloc>
    24ea:	9c 01       	movw	r18, r24
    24ec:	c9 01       	movw	r24, r18
    24ee:	e2 2e       	mov	r14, r18
    24f0:	39 2e       	mov	r3, r25
			if(buffer==0)return 1;//if failed
    24f2:	21 15       	cp	r18, r1
    24f4:	31 05       	cpc	r19, r1
    24f6:	09 f4       	brne	.+2      	; 0x24fa <SearchFolder+0x1be>
    24f8:	94 c0       	rjmp	.+296    	; 0x2622 <SearchFolder+0x2e6>
			for(cnt=0;cnt<SectorsPerClust;cnt++)
    24fa:	80 91 d2 0d 	lds	r24, 0x0DD2
    24fe:	90 91 d3 0d 	lds	r25, 0x0DD3
    2502:	89 2b       	or	r24, r25
    2504:	09 f4       	brne	.+2      	; 0x2508 <SearchFolder+0x1cc>
    2506:	61 c0       	rjmp	.+194    	; 0x25ca <SearchFolder+0x28e>
    2508:	ff 24       	eor	r15, r15
			{
				if(FAT_ReadSector(sector+cnt,buffer)){free(buffer);return 1;}
    250a:	c9 01       	movw	r24, r18
    250c:	22 2e       	mov	r2, r18
    250e:	99 83       	std	Y+1, r25	; 0x01
				for(offset=0;offset<512;offset+=32)
    2510:	89 01       	movw	r16, r18
    2512:	00 50       	subi	r16, 0x00	; 0
    2514:	1e 4f       	sbci	r17, 0xFE	; 254
			sector=FirstDataSector+(DWORD)(tempclust-2)*(DWORD)SectorsPerClust;//calculate the actual sector number
			buffer=malloc(512);//apply memory
			if(buffer==0)return 1;//if failed
			for(cnt=0;cnt<SectorsPerClust;cnt++)
			{
				if(FAT_ReadSector(sector+cnt,buffer)){free(buffer);return 1;}
    2516:	c5 01       	movw	r24, r10
    2518:	b4 01       	movw	r22, r8
    251a:	6f 0d       	add	r22, r15
    251c:	71 1d       	adc	r23, r1
    251e:	81 1d       	adc	r24, r1
    2520:	91 1d       	adc	r25, r1
    2522:	e0 91 a7 01 	lds	r30, 0x01A7
    2526:	f0 91 a8 01 	lds	r31, 0x01A8
    252a:	4e 2d       	mov	r20, r14
    252c:	53 2d       	mov	r21, r3
    252e:	09 95       	icall
    2530:	88 23       	and	r24, r24
    2532:	31 f0       	breq	.+12     	; 0x2540 <SearchFolder+0x204>
    2534:	8e 2d       	mov	r24, r14
    2536:	93 2d       	mov	r25, r3
    2538:	0e 94 67 1c 	call	0x38ce	; 0x38ce <free>
    253c:	81 e0       	ldi	r24, 0x01	; 1
    253e:	74 c0       	rjmp	.+232    	; 0x2628 <SearchFolder+0x2ec>
    2540:	82 2d       	mov	r24, r2
    2542:	99 81       	ldd	r25, Y+1	; 0x01
    2544:	9b 83       	std	Y+3, r25	; 0x03
    2546:	8a 83       	std	Y+2, r24	; 0x02
				for(offset=0;offset<512;offset+=32)
				{
					item=(struct direntry *)(&buffer[offset]);
					if((item->deName[0] != '.') && (item->deName[0] != 0x00) && (item->deName[0] != 0xe5))
    2548:	ea 81       	ldd	r30, Y+2	; 0x02
    254a:	fb 81       	ldd	r31, Y+3	; 0x03
    254c:	80 81       	ld	r24, Z
    254e:	8e 32       	cpi	r24, 0x2E	; 46
    2550:	49 f1       	breq	.+82     	; 0x25a4 <SearchFolder+0x268>
    2552:	88 23       	and	r24, r24
    2554:	39 f1       	breq	.+78     	; 0x25a4 <SearchFolder+0x268>
    2556:	85 3e       	cpi	r24, 0xE5	; 229
    2558:	29 f1       	breq	.+74     	; 0x25a4 <SearchFolder+0x268>
					{				
						if(item->deAttributes & ATTR_DIRECTORY )
    255a:	83 85       	ldd	r24, Z+11	; 0x0b
    255c:	84 ff       	sbrs	r24, 4
    255e:	22 c0       	rjmp	.+68     	; 0x25a4 <SearchFolder+0x268>
						{
							#if FAT_DEBUG
								printf_P(PSTR("\r\nFound a folder!"));
							#endif
							if(*addr==RECORD_ADDR_END)return 0;
    2560:	f6 01       	movw	r30, r12
    2562:	20 81       	ld	r18, Z
    2564:	31 81       	ldd	r19, Z+1	; 0x01
    2566:	f2 e0       	ldi	r31, 0x02	; 2
    2568:	20 30       	cpi	r18, 0x00	; 0
    256a:	3f 07       	cpc	r19, r31
    256c:	09 f4       	brne	.+2      	; 0x2570 <SearchFolder+0x234>
    256e:	5b c0       	rjmp	.+182    	; 0x2626 <SearchFolder+0x2ea>
							else
							{
								WriteFolderCluster(*addr,item->deStartCluster+(((unsigned long)item->deHighClust)<<16));
    2570:	ea 81       	ldd	r30, Y+2	; 0x02
    2572:	fb 81       	ldd	r31, Y+3	; 0x03
    2574:	44 89       	ldd	r20, Z+20	; 0x14
    2576:	55 89       	ldd	r21, Z+21	; 0x15
    2578:	60 e0       	ldi	r22, 0x00	; 0
    257a:	70 e0       	ldi	r23, 0x00	; 0
    257c:	ba 01       	movw	r22, r20
    257e:	55 27       	eor	r21, r21
    2580:	44 27       	eor	r20, r20
    2582:	82 8d       	ldd	r24, Z+26	; 0x1a
    2584:	93 8d       	ldd	r25, Z+27	; 0x1b
    2586:	a0 e0       	ldi	r26, 0x00	; 0
    2588:	b0 e0       	ldi	r27, 0x00	; 0
    258a:	48 0f       	add	r20, r24
    258c:	59 1f       	adc	r21, r25
    258e:	6a 1f       	adc	r22, r26
    2590:	7b 1f       	adc	r23, r27
    2592:	c9 01       	movw	r24, r18
    2594:	0e 94 71 11 	call	0x22e2	; 0x22e2 <WriteFolderCluster>
								*addr+=4;
    2598:	f6 01       	movw	r30, r12
    259a:	80 81       	ld	r24, Z
    259c:	91 81       	ldd	r25, Z+1	; 0x01
    259e:	04 96       	adiw	r24, 0x04	; 4
    25a0:	91 83       	std	Z+1, r25	; 0x01
    25a2:	80 83       	st	Z, r24
    25a4:	8a 81       	ldd	r24, Y+2	; 0x02
    25a6:	9b 81       	ldd	r25, Y+3	; 0x03
    25a8:	80 96       	adiw	r24, 0x20	; 32
    25aa:	9b 83       	std	Y+3, r25	; 0x03
    25ac:	8a 83       	std	Y+2, r24	; 0x02
			buffer=malloc(512);//apply memory
			if(buffer==0)return 1;//if failed
			for(cnt=0;cnt<SectorsPerClust;cnt++)
			{
				if(FAT_ReadSector(sector+cnt,buffer)){free(buffer);return 1;}
				for(offset=0;offset<512;offset+=32)
    25ae:	80 17       	cp	r24, r16
    25b0:	91 07       	cpc	r25, r17
    25b2:	51 f6       	brne	.-108    	; 0x2548 <SearchFolder+0x20c>
		while(1)
		{
			sector=FirstDataSector+(DWORD)(tempclust-2)*(DWORD)SectorsPerClust;//calculate the actual sector number
			buffer=malloc(512);//apply memory
			if(buffer==0)return 1;//if failed
			for(cnt=0;cnt<SectorsPerClust;cnt++)
    25b4:	f3 94       	inc	r15
    25b6:	2f 2d       	mov	r18, r15
    25b8:	30 e0       	ldi	r19, 0x00	; 0
    25ba:	80 91 d2 0d 	lds	r24, 0x0DD2
    25be:	90 91 d3 0d 	lds	r25, 0x0DD3
    25c2:	28 17       	cp	r18, r24
    25c4:	39 07       	cpc	r19, r25
    25c6:	08 f4       	brcc	.+2      	; 0x25ca <SearchFolder+0x28e>
    25c8:	a6 cf       	rjmp	.-180    	; 0x2516 <SearchFolder+0x1da>
							}
						}
					}
				}
			}
			free(buffer);//release
    25ca:	8e 2d       	mov	r24, r14
    25cc:	93 2d       	mov	r25, r3
    25ce:	0e 94 67 1c 	call	0x38ce	; 0x38ce <free>
			tempclust=FAT_NextCluster(tempclust);//next cluster
    25d2:	c3 01       	movw	r24, r6
    25d4:	b2 01       	movw	r22, r4
    25d6:	0e 94 d6 02 	call	0x5ac	; 0x5ac <FAT_NextCluster>
    25da:	2b 01       	movw	r4, r22
    25dc:	3c 01       	movw	r6, r24
			if(tempclust == 0x0fffffff || tempclust == 0x0ffffff8 || (FAT32_Enable == 0 && tempclust == 0xffff))break;
    25de:	9f ef       	ldi	r25, 0xFF	; 255
    25e0:	49 16       	cp	r4, r25
    25e2:	9f ef       	ldi	r25, 0xFF	; 255
    25e4:	59 06       	cpc	r5, r25
    25e6:	9f ef       	ldi	r25, 0xFF	; 255
    25e8:	69 06       	cpc	r6, r25
    25ea:	9f e0       	ldi	r25, 0x0F	; 15
    25ec:	79 06       	cpc	r7, r25
    25ee:	d9 f0       	breq	.+54     	; 0x2626 <SearchFolder+0x2ea>
    25f0:	e8 ef       	ldi	r30, 0xF8	; 248
    25f2:	4e 16       	cp	r4, r30
    25f4:	ef ef       	ldi	r30, 0xFF	; 255
    25f6:	5e 06       	cpc	r5, r30
    25f8:	ef ef       	ldi	r30, 0xFF	; 255
    25fa:	6e 06       	cpc	r6, r30
    25fc:	ef e0       	ldi	r30, 0x0F	; 15
    25fe:	7e 06       	cpc	r7, r30
    2600:	91 f0       	breq	.+36     	; 0x2626 <SearchFolder+0x2ea>
    2602:	80 91 f6 0d 	lds	r24, 0x0DF6
    2606:	88 23       	and	r24, r24
    2608:	09 f0       	breq	.+2      	; 0x260c <SearchFolder+0x2d0>
    260a:	4f cf       	rjmp	.-354    	; 0x24aa <SearchFolder+0x16e>
    260c:	ff ef       	ldi	r31, 0xFF	; 255
    260e:	4f 16       	cp	r4, r31
    2610:	ff ef       	ldi	r31, 0xFF	; 255
    2612:	5f 06       	cpc	r5, r31
    2614:	f0 e0       	ldi	r31, 0x00	; 0
    2616:	6f 06       	cpc	r6, r31
    2618:	f0 e0       	ldi	r31, 0x00	; 0
    261a:	7f 06       	cpc	r7, r31
    261c:	09 f0       	breq	.+2      	; 0x2620 <SearchFolder+0x2e4>
    261e:	45 cf       	rjmp	.-374    	; 0x24aa <SearchFolder+0x16e>
    2620:	02 c0       	rjmp	.+4      	; 0x2626 <SearchFolder+0x2ea>
    2622:	81 e0       	ldi	r24, 0x01	; 1
    2624:	01 c0       	rjmp	.+2      	; 0x2628 <SearchFolder+0x2ec>
    2626:	80 e0       	ldi	r24, 0x00	; 0
		}
	}
	return 0;		
}
    2628:	0f 90       	pop	r0
    262a:	0f 90       	pop	r0
    262c:	0f 90       	pop	r0
    262e:	cf 91       	pop	r28
    2630:	df 91       	pop	r29
    2632:	1f 91       	pop	r17
    2634:	0f 91       	pop	r16
    2636:	ff 90       	pop	r15
    2638:	ef 90       	pop	r14
    263a:	df 90       	pop	r13
    263c:	cf 90       	pop	r12
    263e:	bf 90       	pop	r11
    2640:	af 90       	pop	r10
    2642:	9f 90       	pop	r9
    2644:	8f 90       	pop	r8
    2646:	7f 90       	pop	r7
    2648:	6f 90       	pop	r6
    264a:	5f 90       	pop	r5
    264c:	4f 90       	pop	r4
    264e:	3f 90       	pop	r3
    2650:	2f 90       	pop	r2
    2652:	08 95       	ret

00002654 <SearchInit>:



BYTE SearchInit()
{	
    2654:	cf 92       	push	r12
    2656:	df 92       	push	r13
    2658:	ef 92       	push	r14
    265a:	ff 92       	push	r15
    265c:	0f 93       	push	r16
    265e:	1f 93       	push	r17
    2660:	df 93       	push	r29
    2662:	cf 93       	push	r28
    2664:	00 d0       	rcall	.+0      	; 0x2666 <SearchInit+0x12>
    2666:	cd b7       	in	r28, 0x3d	; 61
    2668:	de b7       	in	r29, 0x3e	; 62
	
#if FAT_DEBUG
	printf_P(PSTR("\r\nSearchInit"));
#endif

	if(FAT32_Enable)
    266a:	80 91 f6 0d 	lds	r24, 0x0DF6
    266e:	88 23       	and	r24, r24
    2670:	69 f0       	breq	.+26     	; 0x268c <SearchInit+0x38>
		WriteFolderCluster(addr,FirstDirClust);
    2672:	40 91 01 0e 	lds	r20, 0x0E01
    2676:	50 91 02 0e 	lds	r21, 0x0E02
    267a:	60 91 03 0e 	lds	r22, 0x0E03
    267e:	70 91 04 0e 	lds	r23, 0x0E04
    2682:	80 e0       	ldi	r24, 0x00	; 0
    2684:	90 e0       	ldi	r25, 0x00	; 0
    2686:	0e 94 71 11 	call	0x22e2	; 0x22e2 <WriteFolderCluster>
    268a:	08 c0       	rjmp	.+16     	; 0x269c <SearchInit+0x48>
	else 
		WriteFolderCluster(RECORD_ADDR_START,0);
    268c:	80 e0       	ldi	r24, 0x00	; 0
    268e:	90 e0       	ldi	r25, 0x00	; 0
    2690:	40 e0       	ldi	r20, 0x00	; 0
    2692:	50 e0       	ldi	r21, 0x00	; 0
    2694:	60 e0       	ldi	r22, 0x00	; 0
    2696:	70 e0       	ldi	r23, 0x00	; 0
    2698:	0e 94 71 11 	call	0x22e2	; 0x22e2 <WriteFolderCluster>
	
	addr += 4;
	
	WriteFolderCluster(addr, 0xffffffff);
    269c:	84 e0       	ldi	r24, 0x04	; 4
    269e:	90 e0       	ldi	r25, 0x00	; 0
    26a0:	4f ef       	ldi	r20, 0xFF	; 255
    26a2:	5f ef       	ldi	r21, 0xFF	; 255
    26a4:	6f ef       	ldi	r22, 0xFF	; 255
    26a6:	7f ef       	ldi	r23, 0xFF	; 255
    26a8:	0e 94 71 11 	call	0x22e2	; 0x22e2 <WriteFolderCluster>
	temp_addr = addr;
    26ac:	84 e0       	ldi	r24, 0x04	; 4
    26ae:	90 e0       	ldi	r25, 0x00	; 0
    26b0:	9a 83       	std	Y+2, r25	; 0x02
    26b2:	89 83       	std	Y+1, r24	; 0x01
    26b4:	ee 24       	eor	r14, r14
    26b6:	ff 24       	eor	r15, r15
	{
		cluster = GetFolderCluster(addr);
		if(cluster == 0xffffffff)return 0;
		else
		{
			if(SearchFolder(cluster,&temp_addr))
    26b8:	6e 01       	movw	r12, r28
    26ba:	08 94       	sec
    26bc:	c1 1c       	adc	r12, r1
    26be:	d1 1c       	adc	r13, r1
	WriteFolderCluster(addr, 0xffffffff);
	temp_addr = addr;
	addr = RECORD_ADDR_START;
	while(1)
	{
		cluster = GetFolderCluster(addr);
    26c0:	c7 01       	movw	r24, r14
    26c2:	0e 94 8b 0d 	call	0x1b16	; 0x1b16 <GetFolderCluster>
		if(cluster == 0xffffffff)return 0;
    26c6:	6f 3f       	cpi	r22, 0xFF	; 255
    26c8:	2f ef       	ldi	r18, 0xFF	; 255
    26ca:	72 07       	cpc	r23, r18
    26cc:	2f ef       	ldi	r18, 0xFF	; 255
    26ce:	82 07       	cpc	r24, r18
    26d0:	2f ef       	ldi	r18, 0xFF	; 255
    26d2:	92 07       	cpc	r25, r18
    26d4:	11 f4       	brne	.+4      	; 0x26da <SearchInit+0x86>
    26d6:	80 e0       	ldi	r24, 0x00	; 0
    26d8:	27 c0       	rjmp	.+78     	; 0x2728 <SearchInit+0xd4>
		else
		{
			if(SearchFolder(cluster,&temp_addr))
    26da:	a6 01       	movw	r20, r12
    26dc:	0e 94 9e 11 	call	0x233c	; 0x233c <SearchFolder>
				#endif
			}
			#if FAT_DEBUG
				printf_P(PSTR("\r\nSearch one folder, write the end flag if the the value is not the right value"));
			#endif
			if(GetFolderCluster(temp_addr) != 0xffffffff)
    26e0:	09 81       	ldd	r16, Y+1	; 0x01
    26e2:	1a 81       	ldd	r17, Y+2	; 0x02
    26e4:	c8 01       	movw	r24, r16
    26e6:	0e 94 8b 0d 	call	0x1b16	; 0x1b16 <GetFolderCluster>
    26ea:	6f 5f       	subi	r22, 0xFF	; 255
    26ec:	7f 4f       	sbci	r23, 0xFF	; 255
    26ee:	8f 4f       	sbci	r24, 0xFF	; 255
    26f0:	9f 4f       	sbci	r25, 0xFF	; 255
    26f2:	39 f0       	breq	.+14     	; 0x2702 <SearchInit+0xae>
				WriteFolderCluster(temp_addr,0XFFFFFFFF);
    26f4:	c8 01       	movw	r24, r16
    26f6:	4f ef       	ldi	r20, 0xFF	; 255
    26f8:	5f ef       	ldi	r21, 0xFF	; 255
    26fa:	6f ef       	ldi	r22, 0xFF	; 255
    26fc:	7f ef       	ldi	r23, 0xFF	; 255
    26fe:	0e 94 71 11 	call	0x22e2	; 0x22e2 <WriteFolderCluster>
			if(temp_addr == RECORD_ADDR_END)
    2702:	89 81       	ldd	r24, Y+1	; 0x01
    2704:	9a 81       	ldd	r25, Y+2	; 0x02
    2706:	80 50       	subi	r24, 0x00	; 0
    2708:	92 40       	sbci	r25, 0x02	; 2
    270a:	49 f4       	brne	.+18     	; 0x271e <SearchInit+0xca>
			{
				#if FAT_DEBUG
					printf_P(PSTR("\r\nWARNING: EEPROM is full, no more space!"));
				#endif
				WriteFolderCluster(temp_addr - 4,0XFFFFFFFF);
    270c:	8c ef       	ldi	r24, 0xFC	; 252
    270e:	91 e0       	ldi	r25, 0x01	; 1
    2710:	4f ef       	ldi	r20, 0xFF	; 255
    2712:	5f ef       	ldi	r21, 0xFF	; 255
    2714:	6f ef       	ldi	r22, 0xFF	; 255
    2716:	7f ef       	ldi	r23, 0xFF	; 255
    2718:	0e 94 71 11 	call	0x22e2	; 0x22e2 <WriteFolderCluster>
    271c:	05 c0       	rjmp	.+10     	; 0x2728 <SearchInit+0xd4>
				break;
			}
		}
		addr+=4;
    271e:	84 e0       	ldi	r24, 0x04	; 4
    2720:	90 e0       	ldi	r25, 0x00	; 0
    2722:	e8 0e       	add	r14, r24
    2724:	f9 1e       	adc	r15, r25
    2726:	cc cf       	rjmp	.-104    	; 0x26c0 <SearchInit+0x6c>
	}
	#if FAT_DEBUG
		printf_P(PSTR("\r\nSearch Completed!"));
	#endif
}
    2728:	0f 90       	pop	r0
    272a:	0f 90       	pop	r0
    272c:	cf 91       	pop	r28
    272e:	df 91       	pop	r29
    2730:	1f 91       	pop	r17
    2732:	0f 91       	pop	r16
    2734:	ff 90       	pop	r15
    2736:	ef 90       	pop	r14
    2738:	df 90       	pop	r13
    273a:	cf 90       	pop	r12
    273c:	08 95       	ret

0000273e <main>:

/********************************************************************
                      主函数
********************************************************************/
int main(void)
{
    273e:	ef 92       	push	r14
    2740:	ff 92       	push	r15
    2742:	0f 93       	push	r16
    2744:	1f 93       	push	r17
    2746:	cf 93       	push	r28
    2748:	df 93       	push	r29
  uchar retry=0;
  uchar ok,er ;

  Port_Init();                       //系统初始化，设置IO口属性
    274a:	0e 94 66 0d 	call	0x1acc	; 0x1acc <Port_Init>
  LED_Light();                       //LED点亮一次，如有现象，说明单片机初始化成功   
    274e:	0e 94 73 0d 	call	0x1ae6	; 0x1ae6 <LED_Light>
  Device_code=0x9328;                //TFT控制IC型号
    2752:	88 e2       	ldi	r24, 0x28	; 40
    2754:	93 e9       	ldi	r25, 0x93	; 147
    2756:	90 93 d7 0d 	sts	0x0DD7, r25
    275a:	80 93 d6 0d 	sts	0x0DD6, r24
  TFT_Initial();                     //初始化LCD	
    275e:	0e 94 3b 05 	call	0xa76	; 0xa76 <TFT_Initial>
      
  CLR_Screen(Magenta);               //用背景色清屏
    2762:	8f e1       	ldi	r24, 0x1F	; 31
    2764:	98 ef       	ldi	r25, 0xF8	; 248
    2766:	0e 94 25 0d 	call	0x1a4a	; 0x1a4a <CLR_Screen>
  LCD_PutString24(60,140,"欣世纪电子",Yellow,Magenta); //欢迎界面，24x24大小汉字，字模软件隶书小二号
    276a:	8c e3       	ldi	r24, 0x3C	; 60
    276c:	90 e0       	ldi	r25, 0x00	; 0
    276e:	6c e8       	ldi	r22, 0x8C	; 140
    2770:	70 e0       	ldi	r23, 0x00	; 0
    2772:	49 e2       	ldi	r20, 0x29	; 41
    2774:	51 e0       	ldi	r21, 0x01	; 1
    2776:	20 ee       	ldi	r18, 0xE0	; 224
    2778:	3f ef       	ldi	r19, 0xFF	; 255
    277a:	0f e1       	ldi	r16, 0x1F	; 31
    277c:	18 ef       	ldi	r17, 0xF8	; 248
    277e:	0e 94 9c 0a 	call	0x1538	; 0x1538 <LCD_PutString24>
    2782:	88 e8       	ldi	r24, 0x88	; 136
    2784:	93 e1       	ldi	r25, 0x13	; 19
    2786:	28 eb       	ldi	r18, 0xB8	; 184
    2788:	30 e0       	ldi	r19, 0x00	; 0
    278a:	f9 01       	movw	r30, r18
    278c:	31 97       	sbiw	r30, 0x01	; 1
    278e:	f1 f7       	brne	.-4      	; 0x278c <main+0x4e>
		{
			// wait 1/10 ms
			_delay_loop_2(((F_CPU) / 4e3) / 10);
			__ticks --;
    2790:	01 97       	sbiw	r24, 0x01	; 1
		__ticks = 1;
	else if (__tmp > 65535)
	{
		//	__ticks = requested delay in 1/10 ms
		__ticks = (uint16_t) (__ms * 10.0);
		while(__ticks)
    2792:	d9 f7       	brne	.-10     	; 0x278a <main+0x4c>
  delay_ms(500);    
  LCD_PutString24(83,170,"欢",Yellow,Magenta);
    2794:	83 e5       	ldi	r24, 0x53	; 83
    2796:	90 e0       	ldi	r25, 0x00	; 0
    2798:	6a ea       	ldi	r22, 0xAA	; 170
    279a:	70 e0       	ldi	r23, 0x00	; 0
    279c:	44 e3       	ldi	r20, 0x34	; 52
    279e:	51 e0       	ldi	r21, 0x01	; 1
    27a0:	20 ee       	ldi	r18, 0xE0	; 224
    27a2:	3f ef       	ldi	r19, 0xFF	; 255
    27a4:	0f e1       	ldi	r16, 0x1F	; 31
    27a6:	18 ef       	ldi	r17, 0xF8	; 248
    27a8:	0e 94 9c 0a 	call	0x1538	; 0x1538 <LCD_PutString24>
    27ac:	88 eb       	ldi	r24, 0xB8	; 184
    27ae:	9b e0       	ldi	r25, 0x0B	; 11
    27b0:	28 eb       	ldi	r18, 0xB8	; 184
    27b2:	30 e0       	ldi	r19, 0x00	; 0
    27b4:	f9 01       	movw	r30, r18
    27b6:	31 97       	sbiw	r30, 0x01	; 1
    27b8:	f1 f7       	brne	.-4      	; 0x27b6 <main+0x78>
		{
			// wait 1/10 ms
			_delay_loop_2(((F_CPU) / 4e3) / 10);
			__ticks --;
    27ba:	01 97       	sbiw	r24, 0x01	; 1
		__ticks = 1;
	else if (__tmp > 65535)
	{
		//	__ticks = requested delay in 1/10 ms
		__ticks = (uint16_t) (__ms * 10.0);
		while(__ticks)
    27bc:	d9 f7       	brne	.-10     	; 0x27b4 <main+0x76>
  delay_ms(300);
  LCD_PutString24(107,170,"迎",Yellow,Magenta);
    27be:	8b e6       	ldi	r24, 0x6B	; 107
    27c0:	90 e0       	ldi	r25, 0x00	; 0
    27c2:	6a ea       	ldi	r22, 0xAA	; 170
    27c4:	70 e0       	ldi	r23, 0x00	; 0
    27c6:	47 e3       	ldi	r20, 0x37	; 55
    27c8:	51 e0       	ldi	r21, 0x01	; 1
    27ca:	20 ee       	ldi	r18, 0xE0	; 224
    27cc:	3f ef       	ldi	r19, 0xFF	; 255
    27ce:	0f e1       	ldi	r16, 0x1F	; 31
    27d0:	18 ef       	ldi	r17, 0xF8	; 248
    27d2:	0e 94 9c 0a 	call	0x1538	; 0x1538 <LCD_PutString24>
    27d6:	88 eb       	ldi	r24, 0xB8	; 184
    27d8:	9b e0       	ldi	r25, 0x0B	; 11
    27da:	28 eb       	ldi	r18, 0xB8	; 184
    27dc:	30 e0       	ldi	r19, 0x00	; 0
    27de:	f9 01       	movw	r30, r18
    27e0:	31 97       	sbiw	r30, 0x01	; 1
    27e2:	f1 f7       	brne	.-4      	; 0x27e0 <main+0xa2>
		{
			// wait 1/10 ms
			_delay_loop_2(((F_CPU) / 4e3) / 10);
			__ticks --;
    27e4:	01 97       	sbiw	r24, 0x01	; 1
		__ticks = 1;
	else if (__tmp > 65535)
	{
		//	__ticks = requested delay in 1/10 ms
		__ticks = (uint16_t) (__ms * 10.0);
		while(__ticks)
    27e6:	d9 f7       	brne	.-10     	; 0x27de <main+0xa0>
  delay_ms(300);
  LCD_PutString24(131,170,"您",Yellow,Magenta);
    27e8:	83 e8       	ldi	r24, 0x83	; 131
    27ea:	90 e0       	ldi	r25, 0x00	; 0
    27ec:	6a ea       	ldi	r22, 0xAA	; 170
    27ee:	70 e0       	ldi	r23, 0x00	; 0
    27f0:	4a e3       	ldi	r20, 0x3A	; 58
    27f2:	51 e0       	ldi	r21, 0x01	; 1
    27f4:	20 ee       	ldi	r18, 0xE0	; 224
    27f6:	3f ef       	ldi	r19, 0xFF	; 255
    27f8:	0f e1       	ldi	r16, 0x1F	; 31
    27fa:	18 ef       	ldi	r17, 0xF8	; 248
    27fc:	0e 94 9c 0a 	call	0x1538	; 0x1538 <LCD_PutString24>
    2800:	88 eb       	ldi	r24, 0xB8	; 184
    2802:	9b e0       	ldi	r25, 0x0B	; 11
    2804:	28 eb       	ldi	r18, 0xB8	; 184
    2806:	30 e0       	ldi	r19, 0x00	; 0
    2808:	f9 01       	movw	r30, r18
    280a:	31 97       	sbiw	r30, 0x01	; 1
    280c:	f1 f7       	brne	.-4      	; 0x280a <main+0xcc>
		{
			// wait 1/10 ms
			_delay_loop_2(((F_CPU) / 4e3) / 10);
			__ticks --;
    280e:	01 97       	sbiw	r24, 0x01	; 1
		__ticks = 1;
	else if (__tmp > 65535)
	{
		//	__ticks = requested delay in 1/10 ms
		__ticks = (uint16_t) (__ms * 10.0);
		while(__ticks)
    2810:	d9 f7       	brne	.-10     	; 0x2808 <main+0xca>
  delay_ms(300);
  LCD_PutString(69,300,"www.avrgcc.com",White,Magenta);   	//字符显示官方网站
    2812:	85 e4       	ldi	r24, 0x45	; 69
    2814:	90 e0       	ldi	r25, 0x00	; 0
    2816:	6c e2       	ldi	r22, 0x2C	; 44
    2818:	71 e0       	ldi	r23, 0x01	; 1
    281a:	4d e3       	ldi	r20, 0x3D	; 61
    281c:	51 e0       	ldi	r21, 0x01	; 1
    281e:	2f ef       	ldi	r18, 0xFF	; 255
    2820:	3f ef       	ldi	r19, 0xFF	; 255
    2822:	0f e1       	ldi	r16, 0x1F	; 31
    2824:	18 ef       	ldi	r17, 0xF8	; 248
    2826:	0e 94 e9 0a 	call	0x15d2	; 0x15d2 <LCD_PutString>
    282a:	88 eb       	ldi	r24, 0xB8	; 184
    282c:	9b e0       	ldi	r25, 0x0B	; 11
    282e:	28 eb       	ldi	r18, 0xB8	; 184
    2830:	30 e0       	ldi	r19, 0x00	; 0
    2832:	f9 01       	movw	r30, r18
    2834:	31 97       	sbiw	r30, 0x01	; 1
    2836:	f1 f7       	brne	.-4      	; 0x2834 <main+0xf6>
		{
			// wait 1/10 ms
			_delay_loop_2(((F_CPU) / 4e3) / 10);
			__ticks --;
    2838:	01 97       	sbiw	r24, 0x01	; 1
		__ticks = 1;
	else if (__tmp > 65535)
	{
		//	__ticks = requested delay in 1/10 ms
		__ticks = (uint16_t) (__ms * 10.0);
		while(__ticks)
    283a:	d9 f7       	brne	.-10     	; 0x2832 <main+0xf4>
  delay_ms(300);
  
  CLR_Screen(Black);                                       	//清屏				
    283c:	80 e0       	ldi	r24, 0x00	; 0
    283e:	90 e0       	ldi	r25, 0x00	; 0
    2840:	0e 94 25 0d 	call	0x1a4a	; 0x1a4a <CLR_Screen>

  ok = 0 ;
  er = 0 ;
  LCD_PutString(0,0,"Starting Init SD",White,Black);  		//字符串显示调用
    2844:	80 e0       	ldi	r24, 0x00	; 0
    2846:	90 e0       	ldi	r25, 0x00	; 0
    2848:	60 e0       	ldi	r22, 0x00	; 0
    284a:	70 e0       	ldi	r23, 0x00	; 0
    284c:	4c e4       	ldi	r20, 0x4C	; 76
    284e:	51 e0       	ldi	r21, 0x01	; 1
    2850:	2f ef       	ldi	r18, 0xFF	; 255
    2852:	3f ef       	ldi	r19, 0xFF	; 255
    2854:	00 e0       	ldi	r16, 0x00	; 0
    2856:	10 e0       	ldi	r17, 0x00	; 0
    2858:	0e 94 e9 0a 	call	0x15d2	; 0x15d2 <LCD_PutString>
  LCD_PutString(0,16,"Waiting...",White,Black);  			//字符串显示调用
    285c:	80 e0       	ldi	r24, 0x00	; 0
    285e:	90 e0       	ldi	r25, 0x00	; 0
    2860:	60 e1       	ldi	r22, 0x10	; 16
    2862:	70 e0       	ldi	r23, 0x00	; 0
    2864:	4d e5       	ldi	r20, 0x5D	; 93
    2866:	51 e0       	ldi	r21, 0x01	; 1
    2868:	2f ef       	ldi	r18, 0xFF	; 255
    286a:	3f ef       	ldi	r19, 0xFF	; 255
    286c:	0e 94 e9 0a 	call	0x15d2	; 0x15d2 <LCD_PutString>
  mmcInit();
    2870:	0e 94 bb 00 	call	0x176	; 0x176 <mmcInit>
    2874:	83 e3       	ldi	r24, 0x33	; 51
    2876:	97 e0       	ldi	r25, 0x07	; 7
    2878:	01 97       	sbiw	r24, 0x01	; 1
    287a:	f1 f7       	brne	.-4      	; 0x2878 <main+0x13a>
    287c:	10 e0       	ldi	r17, 0x00	; 0
    287e:	20 c0       	rjmp	.+64     	; 0x28c0 <main+0x182>
  delay_ms(1);

 while(mmcReset())											//初始化SD卡					
	{
		retry++;
    2880:	1f 5f       	subi	r17, 0xFF	; 255
		if(retry>20)
    2882:	15 31       	cpi	r17, 0x15	; 21
    2884:	e9 f4       	brne	.+58     	; 0x28c0 <main+0x182>
		{
			while(1)   													//初始化失败显示
			{
				LCD_PutString(0,32,"Init Failure",White,Black);  		//字符串显示调用
    2886:	0f 2e       	mov	r0, r31
    2888:	f8 e6       	ldi	r31, 0x68	; 104
    288a:	ef 2e       	mov	r14, r31
    288c:	f1 e0       	ldi	r31, 0x01	; 1
    288e:	ff 2e       	mov	r15, r31
    2890:	f0 2d       	mov	r31, r0
	            LCD_PutString(0,48,"Please Check SD",White,Black);  	//字符串显示调用
    2892:	c5 e7       	ldi	r28, 0x75	; 117
    2894:	d1 e0       	ldi	r29, 0x01	; 1
		retry++;
		if(retry>20)
		{
			while(1)   													//初始化失败显示
			{
				LCD_PutString(0,32,"Init Failure",White,Black);  		//字符串显示调用
    2896:	80 e0       	ldi	r24, 0x00	; 0
    2898:	90 e0       	ldi	r25, 0x00	; 0
    289a:	60 e2       	ldi	r22, 0x20	; 32
    289c:	70 e0       	ldi	r23, 0x00	; 0
    289e:	a7 01       	movw	r20, r14
    28a0:	2f ef       	ldi	r18, 0xFF	; 255
    28a2:	3f ef       	ldi	r19, 0xFF	; 255
    28a4:	00 e0       	ldi	r16, 0x00	; 0
    28a6:	10 e0       	ldi	r17, 0x00	; 0
    28a8:	0e 94 e9 0a 	call	0x15d2	; 0x15d2 <LCD_PutString>
	            LCD_PutString(0,48,"Please Check SD",White,Black);  	//字符串显示调用
    28ac:	80 e0       	ldi	r24, 0x00	; 0
    28ae:	90 e0       	ldi	r25, 0x00	; 0
    28b0:	60 e3       	ldi	r22, 0x30	; 48
    28b2:	70 e0       	ldi	r23, 0x00	; 0
    28b4:	ae 01       	movw	r20, r28
    28b6:	2f ef       	ldi	r18, 0xFF	; 255
    28b8:	3f ef       	ldi	r19, 0xFF	; 255
    28ba:	0e 94 e9 0a 	call	0x15d2	; 0x15d2 <LCD_PutString>
    28be:	eb cf       	rjmp	.-42     	; 0x2896 <main+0x158>
  LCD_PutString(0,0,"Starting Init SD",White,Black);  		//字符串显示调用
  LCD_PutString(0,16,"Waiting...",White,Black);  			//字符串显示调用
  mmcInit();
  delay_ms(1);

 while(mmcReset())											//初始化SD卡					
    28c0:	0e 94 ab 01 	call	0x356	; 0x356 <mmcReset>
    28c4:	88 23       	and	r24, r24
    28c6:	e1 f6       	brne	.-72     	; 0x2880 <main+0x142>
	            LCD_PutString(0,48,"Please Check SD",White,Black);  	//字符串显示调用
			}
		}
	} 
	  	  
	LCD_PutString(0,32,"Init SD Success!",White,Black);  				//字符串显示调用
    28c8:	80 e0       	ldi	r24, 0x00	; 0
    28ca:	90 e0       	ldi	r25, 0x00	; 0
    28cc:	60 e2       	ldi	r22, 0x20	; 32
    28ce:	70 e0       	ldi	r23, 0x00	; 0
    28d0:	45 e8       	ldi	r20, 0x85	; 133
    28d2:	51 e0       	ldi	r21, 0x01	; 1
    28d4:	2f ef       	ldi	r18, 0xFF	; 255
    28d6:	3f ef       	ldi	r19, 0xFF	; 255
    28d8:	00 e0       	ldi	r16, 0x00	; 0
    28da:	10 e0       	ldi	r17, 0x00	; 0
    28dc:	0e 94 e9 0a 	call	0x15d2	; 0x15d2 <LCD_PutString>
	 
	
	if(FAT_Init())														//初始化文件系统 支持FAT16和FAT32	
    28e0:	0e 94 ff 0b 	call	0x17fe	; 0x17fe <FAT_Init>
    28e4:	88 23       	and	r24, r24
    28e6:	71 f0       	breq	.+28     	; 0x2904 <main+0x1c6>
	{
		while(1)
		{
			while(1)
			{
				LCD_PutString(0,48,"Init FAT Failure",White,Black);  	//字符串显示调用
    28e8:	c6 e9       	ldi	r28, 0x96	; 150
    28ea:	d1 e0       	ldi	r29, 0x01	; 1
    28ec:	80 e0       	ldi	r24, 0x00	; 0
    28ee:	90 e0       	ldi	r25, 0x00	; 0
    28f0:	60 e3       	ldi	r22, 0x30	; 48
    28f2:	70 e0       	ldi	r23, 0x00	; 0
    28f4:	ae 01       	movw	r20, r28
    28f6:	2f ef       	ldi	r18, 0xFF	; 255
    28f8:	3f ef       	ldi	r19, 0xFF	; 255
    28fa:	00 e0       	ldi	r16, 0x00	; 0
    28fc:	10 e0       	ldi	r17, 0x00	; 0
    28fe:	0e 94 e9 0a 	call	0x15d2	; 0x15d2 <LCD_PutString>
    2902:	f4 cf       	rjmp	.-24     	; 0x28ec <main+0x1ae>
			}
		}

	}
	SearchInit();  														//搜索文件初始化
    2904:	0e 94 2a 13 	call	0x2654	; 0x2654 <SearchInit>

	
  while(1)                               								//轮流显示SD卡中的图片
	 {
	    disp_image() ;
    2908:	c0 e1       	ldi	r28, 0x10	; 16
    290a:	d7 e2       	ldi	r29, 0x27	; 39
    290c:	08 eb       	ldi	r16, 0xB8	; 184
    290e:	10 e0       	ldi	r17, 0x00	; 0
		    {
		      image_count ++ ;
		    }
		 else 
		    {
			  image_count = 1 ;
    2910:	ee 24       	eor	r14, r14
    2912:	ff 24       	eor	r15, r15
    2914:	e3 94       	inc	r14
	SearchInit();  														//搜索文件初始化

	
  while(1)                               								//轮流显示SD卡中的图片
	 {
	    disp_image() ;
    2916:	0e 94 9a 0f 	call	0x1f34	; 0x1f34 <disp_image>
    291a:	9e 01       	movw	r18, r28
    291c:	c8 01       	movw	r24, r16
    291e:	01 97       	sbiw	r24, 0x01	; 1
    2920:	f1 f7       	brne	.-4      	; 0x291e <main+0x1e0>
		{
			// wait 1/10 ms
			_delay_loop_2(((F_CPU) / 4e3) / 10);
			__ticks --;
    2922:	21 50       	subi	r18, 0x01	; 1
    2924:	30 40       	sbci	r19, 0x00	; 0
		__ticks = 1;
	else if (__tmp > 65535)
	{
		//	__ticks = requested delay in 1/10 ms
		__ticks = (uint16_t) (__ms * 10.0);
		while(__ticks)
    2926:	d1 f7       	brne	.-12     	; 0x291c <main+0x1de>
    2928:	9e 01       	movw	r18, r28
    292a:	c8 01       	movw	r24, r16
    292c:	01 97       	sbiw	r24, 0x01	; 1
    292e:	f1 f7       	brne	.-4      	; 0x292c <main+0x1ee>
		{
			// wait 1/10 ms
			_delay_loop_2(((F_CPU) / 4e3) / 10);
			__ticks --;
    2930:	21 50       	subi	r18, 0x01	; 1
    2932:	30 40       	sbci	r19, 0x00	; 0
		__ticks = 1;
	else if (__tmp > 65535)
	{
		//	__ticks = requested delay in 1/10 ms
		__ticks = (uint16_t) (__ms * 10.0);
		while(__ticks)
    2934:	d1 f7       	brne	.-12     	; 0x292a <main+0x1ec>
    2936:	9e 01       	movw	r18, r28
    2938:	c8 01       	movw	r24, r16
    293a:	01 97       	sbiw	r24, 0x01	; 1
    293c:	f1 f7       	brne	.-4      	; 0x293a <main+0x1fc>
		{
			// wait 1/10 ms
			_delay_loop_2(((F_CPU) / 4e3) / 10);
			__ticks --;
    293e:	21 50       	subi	r18, 0x01	; 1
    2940:	30 40       	sbci	r19, 0x00	; 0
		__ticks = 1;
	else if (__tmp > 65535)
	{
		//	__ticks = requested delay in 1/10 ms
		__ticks = (uint16_t) (__ms * 10.0);
		while(__ticks)
    2942:	d1 f7       	brne	.-12     	; 0x2938 <main+0x1fa>
    2944:	9e 01       	movw	r18, r28
    2946:	c8 01       	movw	r24, r16
    2948:	01 97       	sbiw	r24, 0x01	; 1
    294a:	f1 f7       	brne	.-4      	; 0x2948 <main+0x20a>
		{
			// wait 1/10 ms
			_delay_loop_2(((F_CPU) / 4e3) / 10);
			__ticks --;
    294c:	21 50       	subi	r18, 0x01	; 1
    294e:	30 40       	sbci	r19, 0x00	; 0
		__ticks = 1;
	else if (__tmp > 65535)
	{
		//	__ticks = requested delay in 1/10 ms
		__ticks = (uint16_t) (__ms * 10.0);
		while(__ticks)
    2950:	d1 f7       	brne	.-12     	; 0x2946 <main+0x208>
		delay_ms(1000) ;
		delay_ms(1000) ;
		delay_ms(1000) ;
		delay_ms(1000) ;
		                              			
		if(image_count<image_all)										//轮流显示SD卡中的BMP图片
    2952:	20 91 be 0d 	lds	r18, 0x0DBE
    2956:	30 91 bf 0d 	lds	r19, 0x0DBF
    295a:	80 91 c0 0d 	lds	r24, 0x0DC0
    295e:	90 91 c1 0d 	lds	r25, 0x0DC1
    2962:	28 17       	cp	r18, r24
    2964:	39 07       	cpc	r19, r25
    2966:	38 f4       	brcc	.+14     	; 0x2976 <main+0x238>
		    {
		      image_count ++ ;
    2968:	c9 01       	movw	r24, r18
    296a:	01 96       	adiw	r24, 0x01	; 1
    296c:	90 93 bf 0d 	sts	0x0DBF, r25
    2970:	80 93 be 0d 	sts	0x0DBE, r24
    2974:	d0 cf       	rjmp	.-96     	; 0x2916 <main+0x1d8>
		    }
		 else 
		    {
			  image_count = 1 ;
    2976:	f0 92 bf 0d 	sts	0x0DBF, r15
    297a:	e0 92 be 0d 	sts	0x0DBE, r14
    297e:	cb cf       	rjmp	.-106    	; 0x2916 <main+0x1d8>

00002980 <__fixunssfsi>:
    2980:	ef 92       	push	r14
    2982:	ff 92       	push	r15
    2984:	0f 93       	push	r16
    2986:	1f 93       	push	r17
    2988:	7b 01       	movw	r14, r22
    298a:	8c 01       	movw	r16, r24
    298c:	20 e0       	ldi	r18, 0x00	; 0
    298e:	30 e0       	ldi	r19, 0x00	; 0
    2990:	40 e0       	ldi	r20, 0x00	; 0
    2992:	5f e4       	ldi	r21, 0x4F	; 79
    2994:	0e 94 3c 18 	call	0x3078	; 0x3078 <__gesf2>
    2998:	88 23       	and	r24, r24
    299a:	8c f0       	brlt	.+34     	; 0x29be <__fixunssfsi+0x3e>
    299c:	c8 01       	movw	r24, r16
    299e:	b7 01       	movw	r22, r14
    29a0:	20 e0       	ldi	r18, 0x00	; 0
    29a2:	30 e0       	ldi	r19, 0x00	; 0
    29a4:	40 e0       	ldi	r20, 0x00	; 0
    29a6:	5f e4       	ldi	r21, 0x4F	; 79
    29a8:	0e 94 38 16 	call	0x2c70	; 0x2c70 <__subsf3>
    29ac:	0e 94 6c 18 	call	0x30d8	; 0x30d8 <__fixsfsi>
    29b0:	9b 01       	movw	r18, r22
    29b2:	ac 01       	movw	r20, r24
    29b4:	20 50       	subi	r18, 0x00	; 0
    29b6:	30 40       	sbci	r19, 0x00	; 0
    29b8:	40 40       	sbci	r20, 0x00	; 0
    29ba:	50 48       	sbci	r21, 0x80	; 128
    29bc:	06 c0       	rjmp	.+12     	; 0x29ca <__fixunssfsi+0x4a>
    29be:	c8 01       	movw	r24, r16
    29c0:	b7 01       	movw	r22, r14
    29c2:	0e 94 6c 18 	call	0x30d8	; 0x30d8 <__fixsfsi>
    29c6:	9b 01       	movw	r18, r22
    29c8:	ac 01       	movw	r20, r24
    29ca:	b9 01       	movw	r22, r18
    29cc:	ca 01       	movw	r24, r20
    29ce:	1f 91       	pop	r17
    29d0:	0f 91       	pop	r16
    29d2:	ff 90       	pop	r15
    29d4:	ef 90       	pop	r14
    29d6:	08 95       	ret

000029d8 <_fpadd_parts>:
    29d8:	a0 e0       	ldi	r26, 0x00	; 0
    29da:	b0 e0       	ldi	r27, 0x00	; 0
    29dc:	e2 ef       	ldi	r30, 0xF2	; 242
    29de:	f4 e1       	ldi	r31, 0x14	; 20
    29e0:	0c 94 83 1b 	jmp	0x3706	; 0x3706 <__prologue_saves__>
    29e4:	dc 01       	movw	r26, r24
    29e6:	2b 01       	movw	r4, r22
    29e8:	fa 01       	movw	r30, r20
    29ea:	9c 91       	ld	r25, X
    29ec:	92 30       	cpi	r25, 0x02	; 2
    29ee:	08 f4       	brcc	.+2      	; 0x29f2 <_fpadd_parts+0x1a>
    29f0:	39 c1       	rjmp	.+626    	; 0x2c64 <_fpadd_parts+0x28c>
    29f2:	eb 01       	movw	r28, r22
    29f4:	88 81       	ld	r24, Y
    29f6:	82 30       	cpi	r24, 0x02	; 2
    29f8:	08 f4       	brcc	.+2      	; 0x29fc <_fpadd_parts+0x24>
    29fa:	33 c1       	rjmp	.+614    	; 0x2c62 <_fpadd_parts+0x28a>
    29fc:	94 30       	cpi	r25, 0x04	; 4
    29fe:	69 f4       	brne	.+26     	; 0x2a1a <_fpadd_parts+0x42>
    2a00:	84 30       	cpi	r24, 0x04	; 4
    2a02:	09 f0       	breq	.+2      	; 0x2a06 <_fpadd_parts+0x2e>
    2a04:	2f c1       	rjmp	.+606    	; 0x2c64 <_fpadd_parts+0x28c>
    2a06:	11 96       	adiw	r26, 0x01	; 1
    2a08:	9c 91       	ld	r25, X
    2a0a:	11 97       	sbiw	r26, 0x01	; 1
    2a0c:	89 81       	ldd	r24, Y+1	; 0x01
    2a0e:	98 17       	cp	r25, r24
    2a10:	09 f4       	brne	.+2      	; 0x2a14 <_fpadd_parts+0x3c>
    2a12:	28 c1       	rjmp	.+592    	; 0x2c64 <_fpadd_parts+0x28c>
    2a14:	af ea       	ldi	r26, 0xAF	; 175
    2a16:	bc e0       	ldi	r27, 0x0C	; 12
    2a18:	25 c1       	rjmp	.+586    	; 0x2c64 <_fpadd_parts+0x28c>
    2a1a:	84 30       	cpi	r24, 0x04	; 4
    2a1c:	09 f4       	brne	.+2      	; 0x2a20 <_fpadd_parts+0x48>
    2a1e:	21 c1       	rjmp	.+578    	; 0x2c62 <_fpadd_parts+0x28a>
    2a20:	82 30       	cpi	r24, 0x02	; 2
    2a22:	a9 f4       	brne	.+42     	; 0x2a4e <_fpadd_parts+0x76>
    2a24:	92 30       	cpi	r25, 0x02	; 2
    2a26:	09 f0       	breq	.+2      	; 0x2a2a <_fpadd_parts+0x52>
    2a28:	1d c1       	rjmp	.+570    	; 0x2c64 <_fpadd_parts+0x28c>
    2a2a:	9a 01       	movw	r18, r20
    2a2c:	ad 01       	movw	r20, r26
    2a2e:	88 e0       	ldi	r24, 0x08	; 8
    2a30:	ea 01       	movw	r28, r20
    2a32:	09 90       	ld	r0, Y+
    2a34:	ae 01       	movw	r20, r28
    2a36:	e9 01       	movw	r28, r18
    2a38:	09 92       	st	Y+, r0
    2a3a:	9e 01       	movw	r18, r28
    2a3c:	81 50       	subi	r24, 0x01	; 1
    2a3e:	c1 f7       	brne	.-16     	; 0x2a30 <_fpadd_parts+0x58>
    2a40:	e2 01       	movw	r28, r4
    2a42:	89 81       	ldd	r24, Y+1	; 0x01
    2a44:	11 96       	adiw	r26, 0x01	; 1
    2a46:	9c 91       	ld	r25, X
    2a48:	89 23       	and	r24, r25
    2a4a:	81 83       	std	Z+1, r24	; 0x01
    2a4c:	08 c1       	rjmp	.+528    	; 0x2c5e <_fpadd_parts+0x286>
    2a4e:	92 30       	cpi	r25, 0x02	; 2
    2a50:	09 f4       	brne	.+2      	; 0x2a54 <_fpadd_parts+0x7c>
    2a52:	07 c1       	rjmp	.+526    	; 0x2c62 <_fpadd_parts+0x28a>
    2a54:	12 96       	adiw	r26, 0x02	; 2
    2a56:	2d 90       	ld	r2, X+
    2a58:	3c 90       	ld	r3, X
    2a5a:	13 97       	sbiw	r26, 0x03	; 3
    2a5c:	eb 01       	movw	r28, r22
    2a5e:	8a 81       	ldd	r24, Y+2	; 0x02
    2a60:	9b 81       	ldd	r25, Y+3	; 0x03
    2a62:	14 96       	adiw	r26, 0x04	; 4
    2a64:	ad 90       	ld	r10, X+
    2a66:	bd 90       	ld	r11, X+
    2a68:	cd 90       	ld	r12, X+
    2a6a:	dc 90       	ld	r13, X
    2a6c:	17 97       	sbiw	r26, 0x07	; 7
    2a6e:	ec 80       	ldd	r14, Y+4	; 0x04
    2a70:	fd 80       	ldd	r15, Y+5	; 0x05
    2a72:	0e 81       	ldd	r16, Y+6	; 0x06
    2a74:	1f 81       	ldd	r17, Y+7	; 0x07
    2a76:	91 01       	movw	r18, r2
    2a78:	28 1b       	sub	r18, r24
    2a7a:	39 0b       	sbc	r19, r25
    2a7c:	b9 01       	movw	r22, r18
    2a7e:	37 ff       	sbrs	r19, 7
    2a80:	04 c0       	rjmp	.+8      	; 0x2a8a <_fpadd_parts+0xb2>
    2a82:	66 27       	eor	r22, r22
    2a84:	77 27       	eor	r23, r23
    2a86:	62 1b       	sub	r22, r18
    2a88:	73 0b       	sbc	r23, r19
    2a8a:	60 32       	cpi	r22, 0x20	; 32
    2a8c:	71 05       	cpc	r23, r1
    2a8e:	0c f0       	brlt	.+2      	; 0x2a92 <_fpadd_parts+0xba>
    2a90:	61 c0       	rjmp	.+194    	; 0x2b54 <_fpadd_parts+0x17c>
    2a92:	12 16       	cp	r1, r18
    2a94:	13 06       	cpc	r1, r19
    2a96:	6c f5       	brge	.+90     	; 0x2af2 <_fpadd_parts+0x11a>
    2a98:	37 01       	movw	r6, r14
    2a9a:	48 01       	movw	r8, r16
    2a9c:	06 2e       	mov	r0, r22
    2a9e:	04 c0       	rjmp	.+8      	; 0x2aa8 <_fpadd_parts+0xd0>
    2aa0:	96 94       	lsr	r9
    2aa2:	87 94       	ror	r8
    2aa4:	77 94       	ror	r7
    2aa6:	67 94       	ror	r6
    2aa8:	0a 94       	dec	r0
    2aaa:	d2 f7       	brpl	.-12     	; 0x2aa0 <_fpadd_parts+0xc8>
    2aac:	21 e0       	ldi	r18, 0x01	; 1
    2aae:	30 e0       	ldi	r19, 0x00	; 0
    2ab0:	40 e0       	ldi	r20, 0x00	; 0
    2ab2:	50 e0       	ldi	r21, 0x00	; 0
    2ab4:	04 c0       	rjmp	.+8      	; 0x2abe <_fpadd_parts+0xe6>
    2ab6:	22 0f       	add	r18, r18
    2ab8:	33 1f       	adc	r19, r19
    2aba:	44 1f       	adc	r20, r20
    2abc:	55 1f       	adc	r21, r21
    2abe:	6a 95       	dec	r22
    2ac0:	d2 f7       	brpl	.-12     	; 0x2ab6 <_fpadd_parts+0xde>
    2ac2:	21 50       	subi	r18, 0x01	; 1
    2ac4:	30 40       	sbci	r19, 0x00	; 0
    2ac6:	40 40       	sbci	r20, 0x00	; 0
    2ac8:	50 40       	sbci	r21, 0x00	; 0
    2aca:	2e 21       	and	r18, r14
    2acc:	3f 21       	and	r19, r15
    2ace:	40 23       	and	r20, r16
    2ad0:	51 23       	and	r21, r17
    2ad2:	21 15       	cp	r18, r1
    2ad4:	31 05       	cpc	r19, r1
    2ad6:	41 05       	cpc	r20, r1
    2ad8:	51 05       	cpc	r21, r1
    2ada:	21 f0       	breq	.+8      	; 0x2ae4 <_fpadd_parts+0x10c>
    2adc:	21 e0       	ldi	r18, 0x01	; 1
    2ade:	30 e0       	ldi	r19, 0x00	; 0
    2ae0:	40 e0       	ldi	r20, 0x00	; 0
    2ae2:	50 e0       	ldi	r21, 0x00	; 0
    2ae4:	79 01       	movw	r14, r18
    2ae6:	8a 01       	movw	r16, r20
    2ae8:	e6 28       	or	r14, r6
    2aea:	f7 28       	or	r15, r7
    2aec:	08 29       	or	r16, r8
    2aee:	19 29       	or	r17, r9
    2af0:	3c c0       	rjmp	.+120    	; 0x2b6a <_fpadd_parts+0x192>
    2af2:	23 2b       	or	r18, r19
    2af4:	d1 f1       	breq	.+116    	; 0x2b6a <_fpadd_parts+0x192>
    2af6:	26 0e       	add	r2, r22
    2af8:	37 1e       	adc	r3, r23
    2afa:	35 01       	movw	r6, r10
    2afc:	46 01       	movw	r8, r12
    2afe:	06 2e       	mov	r0, r22
    2b00:	04 c0       	rjmp	.+8      	; 0x2b0a <_fpadd_parts+0x132>
    2b02:	96 94       	lsr	r9
    2b04:	87 94       	ror	r8
    2b06:	77 94       	ror	r7
    2b08:	67 94       	ror	r6
    2b0a:	0a 94       	dec	r0
    2b0c:	d2 f7       	brpl	.-12     	; 0x2b02 <_fpadd_parts+0x12a>
    2b0e:	21 e0       	ldi	r18, 0x01	; 1
    2b10:	30 e0       	ldi	r19, 0x00	; 0
    2b12:	40 e0       	ldi	r20, 0x00	; 0
    2b14:	50 e0       	ldi	r21, 0x00	; 0
    2b16:	04 c0       	rjmp	.+8      	; 0x2b20 <_fpadd_parts+0x148>
    2b18:	22 0f       	add	r18, r18
    2b1a:	33 1f       	adc	r19, r19
    2b1c:	44 1f       	adc	r20, r20
    2b1e:	55 1f       	adc	r21, r21
    2b20:	6a 95       	dec	r22
    2b22:	d2 f7       	brpl	.-12     	; 0x2b18 <_fpadd_parts+0x140>
    2b24:	21 50       	subi	r18, 0x01	; 1
    2b26:	30 40       	sbci	r19, 0x00	; 0
    2b28:	40 40       	sbci	r20, 0x00	; 0
    2b2a:	50 40       	sbci	r21, 0x00	; 0
    2b2c:	2a 21       	and	r18, r10
    2b2e:	3b 21       	and	r19, r11
    2b30:	4c 21       	and	r20, r12
    2b32:	5d 21       	and	r21, r13
    2b34:	21 15       	cp	r18, r1
    2b36:	31 05       	cpc	r19, r1
    2b38:	41 05       	cpc	r20, r1
    2b3a:	51 05       	cpc	r21, r1
    2b3c:	21 f0       	breq	.+8      	; 0x2b46 <_fpadd_parts+0x16e>
    2b3e:	21 e0       	ldi	r18, 0x01	; 1
    2b40:	30 e0       	ldi	r19, 0x00	; 0
    2b42:	40 e0       	ldi	r20, 0x00	; 0
    2b44:	50 e0       	ldi	r21, 0x00	; 0
    2b46:	59 01       	movw	r10, r18
    2b48:	6a 01       	movw	r12, r20
    2b4a:	a6 28       	or	r10, r6
    2b4c:	b7 28       	or	r11, r7
    2b4e:	c8 28       	or	r12, r8
    2b50:	d9 28       	or	r13, r9
    2b52:	0b c0       	rjmp	.+22     	; 0x2b6a <_fpadd_parts+0x192>
    2b54:	82 15       	cp	r24, r2
    2b56:	93 05       	cpc	r25, r3
    2b58:	2c f0       	brlt	.+10     	; 0x2b64 <_fpadd_parts+0x18c>
    2b5a:	1c 01       	movw	r2, r24
    2b5c:	aa 24       	eor	r10, r10
    2b5e:	bb 24       	eor	r11, r11
    2b60:	65 01       	movw	r12, r10
    2b62:	03 c0       	rjmp	.+6      	; 0x2b6a <_fpadd_parts+0x192>
    2b64:	ee 24       	eor	r14, r14
    2b66:	ff 24       	eor	r15, r15
    2b68:	87 01       	movw	r16, r14
    2b6a:	11 96       	adiw	r26, 0x01	; 1
    2b6c:	9c 91       	ld	r25, X
    2b6e:	d2 01       	movw	r26, r4
    2b70:	11 96       	adiw	r26, 0x01	; 1
    2b72:	8c 91       	ld	r24, X
    2b74:	98 17       	cp	r25, r24
    2b76:	09 f4       	brne	.+2      	; 0x2b7a <_fpadd_parts+0x1a2>
    2b78:	45 c0       	rjmp	.+138    	; 0x2c04 <_fpadd_parts+0x22c>
    2b7a:	99 23       	and	r25, r25
    2b7c:	39 f0       	breq	.+14     	; 0x2b8c <_fpadd_parts+0x1b4>
    2b7e:	a8 01       	movw	r20, r16
    2b80:	97 01       	movw	r18, r14
    2b82:	2a 19       	sub	r18, r10
    2b84:	3b 09       	sbc	r19, r11
    2b86:	4c 09       	sbc	r20, r12
    2b88:	5d 09       	sbc	r21, r13
    2b8a:	06 c0       	rjmp	.+12     	; 0x2b98 <_fpadd_parts+0x1c0>
    2b8c:	a6 01       	movw	r20, r12
    2b8e:	95 01       	movw	r18, r10
    2b90:	2e 19       	sub	r18, r14
    2b92:	3f 09       	sbc	r19, r15
    2b94:	40 0b       	sbc	r20, r16
    2b96:	51 0b       	sbc	r21, r17
    2b98:	57 fd       	sbrc	r21, 7
    2b9a:	08 c0       	rjmp	.+16     	; 0x2bac <_fpadd_parts+0x1d4>
    2b9c:	11 82       	std	Z+1, r1	; 0x01
    2b9e:	33 82       	std	Z+3, r3	; 0x03
    2ba0:	22 82       	std	Z+2, r2	; 0x02
    2ba2:	24 83       	std	Z+4, r18	; 0x04
    2ba4:	35 83       	std	Z+5, r19	; 0x05
    2ba6:	46 83       	std	Z+6, r20	; 0x06
    2ba8:	57 83       	std	Z+7, r21	; 0x07
    2baa:	1d c0       	rjmp	.+58     	; 0x2be6 <_fpadd_parts+0x20e>
    2bac:	81 e0       	ldi	r24, 0x01	; 1
    2bae:	81 83       	std	Z+1, r24	; 0x01
    2bb0:	33 82       	std	Z+3, r3	; 0x03
    2bb2:	22 82       	std	Z+2, r2	; 0x02
    2bb4:	88 27       	eor	r24, r24
    2bb6:	99 27       	eor	r25, r25
    2bb8:	dc 01       	movw	r26, r24
    2bba:	82 1b       	sub	r24, r18
    2bbc:	93 0b       	sbc	r25, r19
    2bbe:	a4 0b       	sbc	r26, r20
    2bc0:	b5 0b       	sbc	r27, r21
    2bc2:	84 83       	std	Z+4, r24	; 0x04
    2bc4:	95 83       	std	Z+5, r25	; 0x05
    2bc6:	a6 83       	std	Z+6, r26	; 0x06
    2bc8:	b7 83       	std	Z+7, r27	; 0x07
    2bca:	0d c0       	rjmp	.+26     	; 0x2be6 <_fpadd_parts+0x20e>
    2bcc:	22 0f       	add	r18, r18
    2bce:	33 1f       	adc	r19, r19
    2bd0:	44 1f       	adc	r20, r20
    2bd2:	55 1f       	adc	r21, r21
    2bd4:	24 83       	std	Z+4, r18	; 0x04
    2bd6:	35 83       	std	Z+5, r19	; 0x05
    2bd8:	46 83       	std	Z+6, r20	; 0x06
    2bda:	57 83       	std	Z+7, r21	; 0x07
    2bdc:	82 81       	ldd	r24, Z+2	; 0x02
    2bde:	93 81       	ldd	r25, Z+3	; 0x03
    2be0:	01 97       	sbiw	r24, 0x01	; 1
    2be2:	93 83       	std	Z+3, r25	; 0x03
    2be4:	82 83       	std	Z+2, r24	; 0x02
    2be6:	24 81       	ldd	r18, Z+4	; 0x04
    2be8:	35 81       	ldd	r19, Z+5	; 0x05
    2bea:	46 81       	ldd	r20, Z+6	; 0x06
    2bec:	57 81       	ldd	r21, Z+7	; 0x07
    2bee:	da 01       	movw	r26, r20
    2bf0:	c9 01       	movw	r24, r18
    2bf2:	01 97       	sbiw	r24, 0x01	; 1
    2bf4:	a1 09       	sbc	r26, r1
    2bf6:	b1 09       	sbc	r27, r1
    2bf8:	8f 5f       	subi	r24, 0xFF	; 255
    2bfa:	9f 4f       	sbci	r25, 0xFF	; 255
    2bfc:	af 4f       	sbci	r26, 0xFF	; 255
    2bfe:	bf 43       	sbci	r27, 0x3F	; 63
    2c00:	28 f3       	brcs	.-54     	; 0x2bcc <_fpadd_parts+0x1f4>
    2c02:	0b c0       	rjmp	.+22     	; 0x2c1a <_fpadd_parts+0x242>
    2c04:	91 83       	std	Z+1, r25	; 0x01
    2c06:	33 82       	std	Z+3, r3	; 0x03
    2c08:	22 82       	std	Z+2, r2	; 0x02
    2c0a:	ea 0c       	add	r14, r10
    2c0c:	fb 1c       	adc	r15, r11
    2c0e:	0c 1d       	adc	r16, r12
    2c10:	1d 1d       	adc	r17, r13
    2c12:	e4 82       	std	Z+4, r14	; 0x04
    2c14:	f5 82       	std	Z+5, r15	; 0x05
    2c16:	06 83       	std	Z+6, r16	; 0x06
    2c18:	17 83       	std	Z+7, r17	; 0x07
    2c1a:	83 e0       	ldi	r24, 0x03	; 3
    2c1c:	80 83       	st	Z, r24
    2c1e:	24 81       	ldd	r18, Z+4	; 0x04
    2c20:	35 81       	ldd	r19, Z+5	; 0x05
    2c22:	46 81       	ldd	r20, Z+6	; 0x06
    2c24:	57 81       	ldd	r21, Z+7	; 0x07
    2c26:	57 ff       	sbrs	r21, 7
    2c28:	1a c0       	rjmp	.+52     	; 0x2c5e <_fpadd_parts+0x286>
    2c2a:	c9 01       	movw	r24, r18
    2c2c:	aa 27       	eor	r26, r26
    2c2e:	97 fd       	sbrc	r25, 7
    2c30:	a0 95       	com	r26
    2c32:	ba 2f       	mov	r27, r26
    2c34:	81 70       	andi	r24, 0x01	; 1
    2c36:	90 70       	andi	r25, 0x00	; 0
    2c38:	a0 70       	andi	r26, 0x00	; 0
    2c3a:	b0 70       	andi	r27, 0x00	; 0
    2c3c:	56 95       	lsr	r21
    2c3e:	47 95       	ror	r20
    2c40:	37 95       	ror	r19
    2c42:	27 95       	ror	r18
    2c44:	82 2b       	or	r24, r18
    2c46:	93 2b       	or	r25, r19
    2c48:	a4 2b       	or	r26, r20
    2c4a:	b5 2b       	or	r27, r21
    2c4c:	84 83       	std	Z+4, r24	; 0x04
    2c4e:	95 83       	std	Z+5, r25	; 0x05
    2c50:	a6 83       	std	Z+6, r26	; 0x06
    2c52:	b7 83       	std	Z+7, r27	; 0x07
    2c54:	82 81       	ldd	r24, Z+2	; 0x02
    2c56:	93 81       	ldd	r25, Z+3	; 0x03
    2c58:	01 96       	adiw	r24, 0x01	; 1
    2c5a:	93 83       	std	Z+3, r25	; 0x03
    2c5c:	82 83       	std	Z+2, r24	; 0x02
    2c5e:	df 01       	movw	r26, r30
    2c60:	01 c0       	rjmp	.+2      	; 0x2c64 <_fpadd_parts+0x28c>
    2c62:	d2 01       	movw	r26, r4
    2c64:	cd 01       	movw	r24, r26
    2c66:	cd b7       	in	r28, 0x3d	; 61
    2c68:	de b7       	in	r29, 0x3e	; 62
    2c6a:	e2 e1       	ldi	r30, 0x12	; 18
    2c6c:	0c 94 9f 1b 	jmp	0x373e	; 0x373e <__epilogue_restores__>

00002c70 <__subsf3>:
    2c70:	a0 e2       	ldi	r26, 0x20	; 32
    2c72:	b0 e0       	ldi	r27, 0x00	; 0
    2c74:	ee e3       	ldi	r30, 0x3E	; 62
    2c76:	f6 e1       	ldi	r31, 0x16	; 22
    2c78:	0c 94 8f 1b 	jmp	0x371e	; 0x371e <__prologue_saves__+0x18>
    2c7c:	69 83       	std	Y+1, r22	; 0x01
    2c7e:	7a 83       	std	Y+2, r23	; 0x02
    2c80:	8b 83       	std	Y+3, r24	; 0x03
    2c82:	9c 83       	std	Y+4, r25	; 0x04
    2c84:	2d 83       	std	Y+5, r18	; 0x05
    2c86:	3e 83       	std	Y+6, r19	; 0x06
    2c88:	4f 83       	std	Y+7, r20	; 0x07
    2c8a:	58 87       	std	Y+8, r21	; 0x08
    2c8c:	e9 e0       	ldi	r30, 0x09	; 9
    2c8e:	ee 2e       	mov	r14, r30
    2c90:	f1 2c       	mov	r15, r1
    2c92:	ec 0e       	add	r14, r28
    2c94:	fd 1e       	adc	r15, r29
    2c96:	ce 01       	movw	r24, r28
    2c98:	01 96       	adiw	r24, 0x01	; 1
    2c9a:	b7 01       	movw	r22, r14
    2c9c:	0e 94 5d 1a 	call	0x34ba	; 0x34ba <__unpack_f>
    2ca0:	8e 01       	movw	r16, r28
    2ca2:	0f 5e       	subi	r16, 0xEF	; 239
    2ca4:	1f 4f       	sbci	r17, 0xFF	; 255
    2ca6:	ce 01       	movw	r24, r28
    2ca8:	05 96       	adiw	r24, 0x05	; 5
    2caa:	b8 01       	movw	r22, r16
    2cac:	0e 94 5d 1a 	call	0x34ba	; 0x34ba <__unpack_f>
    2cb0:	8a 89       	ldd	r24, Y+18	; 0x12
    2cb2:	91 e0       	ldi	r25, 0x01	; 1
    2cb4:	89 27       	eor	r24, r25
    2cb6:	8a 8b       	std	Y+18, r24	; 0x12
    2cb8:	c7 01       	movw	r24, r14
    2cba:	b8 01       	movw	r22, r16
    2cbc:	ae 01       	movw	r20, r28
    2cbe:	47 5e       	subi	r20, 0xE7	; 231
    2cc0:	5f 4f       	sbci	r21, 0xFF	; 255
    2cc2:	0e 94 ec 14 	call	0x29d8	; 0x29d8 <_fpadd_parts>
    2cc6:	0e 94 88 19 	call	0x3310	; 0x3310 <__pack_f>
    2cca:	a0 96       	adiw	r28, 0x20	; 32
    2ccc:	e6 e0       	ldi	r30, 0x06	; 6
    2cce:	0c 94 ab 1b 	jmp	0x3756	; 0x3756 <__epilogue_restores__+0x18>

00002cd2 <__addsf3>:
    2cd2:	a0 e2       	ldi	r26, 0x20	; 32
    2cd4:	b0 e0       	ldi	r27, 0x00	; 0
    2cd6:	ef e6       	ldi	r30, 0x6F	; 111
    2cd8:	f6 e1       	ldi	r31, 0x16	; 22
    2cda:	0c 94 8f 1b 	jmp	0x371e	; 0x371e <__prologue_saves__+0x18>
    2cde:	69 83       	std	Y+1, r22	; 0x01
    2ce0:	7a 83       	std	Y+2, r23	; 0x02
    2ce2:	8b 83       	std	Y+3, r24	; 0x03
    2ce4:	9c 83       	std	Y+4, r25	; 0x04
    2ce6:	2d 83       	std	Y+5, r18	; 0x05
    2ce8:	3e 83       	std	Y+6, r19	; 0x06
    2cea:	4f 83       	std	Y+7, r20	; 0x07
    2cec:	58 87       	std	Y+8, r21	; 0x08
    2cee:	f9 e0       	ldi	r31, 0x09	; 9
    2cf0:	ef 2e       	mov	r14, r31
    2cf2:	f1 2c       	mov	r15, r1
    2cf4:	ec 0e       	add	r14, r28
    2cf6:	fd 1e       	adc	r15, r29
    2cf8:	ce 01       	movw	r24, r28
    2cfa:	01 96       	adiw	r24, 0x01	; 1
    2cfc:	b7 01       	movw	r22, r14
    2cfe:	0e 94 5d 1a 	call	0x34ba	; 0x34ba <__unpack_f>
    2d02:	8e 01       	movw	r16, r28
    2d04:	0f 5e       	subi	r16, 0xEF	; 239
    2d06:	1f 4f       	sbci	r17, 0xFF	; 255
    2d08:	ce 01       	movw	r24, r28
    2d0a:	05 96       	adiw	r24, 0x05	; 5
    2d0c:	b8 01       	movw	r22, r16
    2d0e:	0e 94 5d 1a 	call	0x34ba	; 0x34ba <__unpack_f>
    2d12:	c7 01       	movw	r24, r14
    2d14:	b8 01       	movw	r22, r16
    2d16:	ae 01       	movw	r20, r28
    2d18:	47 5e       	subi	r20, 0xE7	; 231
    2d1a:	5f 4f       	sbci	r21, 0xFF	; 255
    2d1c:	0e 94 ec 14 	call	0x29d8	; 0x29d8 <_fpadd_parts>
    2d20:	0e 94 88 19 	call	0x3310	; 0x3310 <__pack_f>
    2d24:	a0 96       	adiw	r28, 0x20	; 32
    2d26:	e6 e0       	ldi	r30, 0x06	; 6
    2d28:	0c 94 ab 1b 	jmp	0x3756	; 0x3756 <__epilogue_restores__+0x18>

00002d2c <__mulsf3>:
    2d2c:	a0 e2       	ldi	r26, 0x20	; 32
    2d2e:	b0 e0       	ldi	r27, 0x00	; 0
    2d30:	ec e9       	ldi	r30, 0x9C	; 156
    2d32:	f6 e1       	ldi	r31, 0x16	; 22
    2d34:	0c 94 83 1b 	jmp	0x3706	; 0x3706 <__prologue_saves__>
    2d38:	69 83       	std	Y+1, r22	; 0x01
    2d3a:	7a 83       	std	Y+2, r23	; 0x02
    2d3c:	8b 83       	std	Y+3, r24	; 0x03
    2d3e:	9c 83       	std	Y+4, r25	; 0x04
    2d40:	2d 83       	std	Y+5, r18	; 0x05
    2d42:	3e 83       	std	Y+6, r19	; 0x06
    2d44:	4f 83       	std	Y+7, r20	; 0x07
    2d46:	58 87       	std	Y+8, r21	; 0x08
    2d48:	ce 01       	movw	r24, r28
    2d4a:	01 96       	adiw	r24, 0x01	; 1
    2d4c:	be 01       	movw	r22, r28
    2d4e:	67 5f       	subi	r22, 0xF7	; 247
    2d50:	7f 4f       	sbci	r23, 0xFF	; 255
    2d52:	0e 94 5d 1a 	call	0x34ba	; 0x34ba <__unpack_f>
    2d56:	ce 01       	movw	r24, r28
    2d58:	05 96       	adiw	r24, 0x05	; 5
    2d5a:	be 01       	movw	r22, r28
    2d5c:	6f 5e       	subi	r22, 0xEF	; 239
    2d5e:	7f 4f       	sbci	r23, 0xFF	; 255
    2d60:	0e 94 5d 1a 	call	0x34ba	; 0x34ba <__unpack_f>
    2d64:	99 85       	ldd	r25, Y+9	; 0x09
    2d66:	92 30       	cpi	r25, 0x02	; 2
    2d68:	88 f0       	brcs	.+34     	; 0x2d8c <__mulsf3+0x60>
    2d6a:	89 89       	ldd	r24, Y+17	; 0x11
    2d6c:	82 30       	cpi	r24, 0x02	; 2
    2d6e:	c8 f0       	brcs	.+50     	; 0x2da2 <__mulsf3+0x76>
    2d70:	94 30       	cpi	r25, 0x04	; 4
    2d72:	19 f4       	brne	.+6      	; 0x2d7a <__mulsf3+0x4e>
    2d74:	82 30       	cpi	r24, 0x02	; 2
    2d76:	51 f4       	brne	.+20     	; 0x2d8c <__mulsf3+0x60>
    2d78:	04 c0       	rjmp	.+8      	; 0x2d82 <__mulsf3+0x56>
    2d7a:	84 30       	cpi	r24, 0x04	; 4
    2d7c:	29 f4       	brne	.+10     	; 0x2d88 <__mulsf3+0x5c>
    2d7e:	92 30       	cpi	r25, 0x02	; 2
    2d80:	81 f4       	brne	.+32     	; 0x2da2 <__mulsf3+0x76>
    2d82:	8f ea       	ldi	r24, 0xAF	; 175
    2d84:	9c e0       	ldi	r25, 0x0C	; 12
    2d86:	c6 c0       	rjmp	.+396    	; 0x2f14 <__mulsf3+0x1e8>
    2d88:	92 30       	cpi	r25, 0x02	; 2
    2d8a:	49 f4       	brne	.+18     	; 0x2d9e <__mulsf3+0x72>
    2d8c:	20 e0       	ldi	r18, 0x00	; 0
    2d8e:	9a 85       	ldd	r25, Y+10	; 0x0a
    2d90:	8a 89       	ldd	r24, Y+18	; 0x12
    2d92:	98 13       	cpse	r25, r24
    2d94:	21 e0       	ldi	r18, 0x01	; 1
    2d96:	2a 87       	std	Y+10, r18	; 0x0a
    2d98:	ce 01       	movw	r24, r28
    2d9a:	09 96       	adiw	r24, 0x09	; 9
    2d9c:	bb c0       	rjmp	.+374    	; 0x2f14 <__mulsf3+0x1e8>
    2d9e:	82 30       	cpi	r24, 0x02	; 2
    2da0:	49 f4       	brne	.+18     	; 0x2db4 <__mulsf3+0x88>
    2da2:	20 e0       	ldi	r18, 0x00	; 0
    2da4:	9a 85       	ldd	r25, Y+10	; 0x0a
    2da6:	8a 89       	ldd	r24, Y+18	; 0x12
    2da8:	98 13       	cpse	r25, r24
    2daa:	21 e0       	ldi	r18, 0x01	; 1
    2dac:	2a 8b       	std	Y+18, r18	; 0x12
    2dae:	ce 01       	movw	r24, r28
    2db0:	41 96       	adiw	r24, 0x11	; 17
    2db2:	b0 c0       	rjmp	.+352    	; 0x2f14 <__mulsf3+0x1e8>
    2db4:	2d 84       	ldd	r2, Y+13	; 0x0d
    2db6:	3e 84       	ldd	r3, Y+14	; 0x0e
    2db8:	4f 84       	ldd	r4, Y+15	; 0x0f
    2dba:	58 88       	ldd	r5, Y+16	; 0x10
    2dbc:	6d 88       	ldd	r6, Y+21	; 0x15
    2dbe:	7e 88       	ldd	r7, Y+22	; 0x16
    2dc0:	8f 88       	ldd	r8, Y+23	; 0x17
    2dc2:	98 8c       	ldd	r9, Y+24	; 0x18
    2dc4:	ee 24       	eor	r14, r14
    2dc6:	ff 24       	eor	r15, r15
    2dc8:	87 01       	movw	r16, r14
    2dca:	aa 24       	eor	r10, r10
    2dcc:	bb 24       	eor	r11, r11
    2dce:	65 01       	movw	r12, r10
    2dd0:	40 e0       	ldi	r20, 0x00	; 0
    2dd2:	50 e0       	ldi	r21, 0x00	; 0
    2dd4:	60 e0       	ldi	r22, 0x00	; 0
    2dd6:	70 e0       	ldi	r23, 0x00	; 0
    2dd8:	e0 e0       	ldi	r30, 0x00	; 0
    2dda:	f0 e0       	ldi	r31, 0x00	; 0
    2ddc:	c1 01       	movw	r24, r2
    2dde:	81 70       	andi	r24, 0x01	; 1
    2de0:	90 70       	andi	r25, 0x00	; 0
    2de2:	89 2b       	or	r24, r25
    2de4:	e9 f0       	breq	.+58     	; 0x2e20 <__mulsf3+0xf4>
    2de6:	e6 0c       	add	r14, r6
    2de8:	f7 1c       	adc	r15, r7
    2dea:	08 1d       	adc	r16, r8
    2dec:	19 1d       	adc	r17, r9
    2dee:	9a 01       	movw	r18, r20
    2df0:	ab 01       	movw	r20, r22
    2df2:	2a 0d       	add	r18, r10
    2df4:	3b 1d       	adc	r19, r11
    2df6:	4c 1d       	adc	r20, r12
    2df8:	5d 1d       	adc	r21, r13
    2dfa:	80 e0       	ldi	r24, 0x00	; 0
    2dfc:	90 e0       	ldi	r25, 0x00	; 0
    2dfe:	a0 e0       	ldi	r26, 0x00	; 0
    2e00:	b0 e0       	ldi	r27, 0x00	; 0
    2e02:	e6 14       	cp	r14, r6
    2e04:	f7 04       	cpc	r15, r7
    2e06:	08 05       	cpc	r16, r8
    2e08:	19 05       	cpc	r17, r9
    2e0a:	20 f4       	brcc	.+8      	; 0x2e14 <__mulsf3+0xe8>
    2e0c:	81 e0       	ldi	r24, 0x01	; 1
    2e0e:	90 e0       	ldi	r25, 0x00	; 0
    2e10:	a0 e0       	ldi	r26, 0x00	; 0
    2e12:	b0 e0       	ldi	r27, 0x00	; 0
    2e14:	ba 01       	movw	r22, r20
    2e16:	a9 01       	movw	r20, r18
    2e18:	48 0f       	add	r20, r24
    2e1a:	59 1f       	adc	r21, r25
    2e1c:	6a 1f       	adc	r22, r26
    2e1e:	7b 1f       	adc	r23, r27
    2e20:	aa 0c       	add	r10, r10
    2e22:	bb 1c       	adc	r11, r11
    2e24:	cc 1c       	adc	r12, r12
    2e26:	dd 1c       	adc	r13, r13
    2e28:	97 fe       	sbrs	r9, 7
    2e2a:	08 c0       	rjmp	.+16     	; 0x2e3c <__mulsf3+0x110>
    2e2c:	81 e0       	ldi	r24, 0x01	; 1
    2e2e:	90 e0       	ldi	r25, 0x00	; 0
    2e30:	a0 e0       	ldi	r26, 0x00	; 0
    2e32:	b0 e0       	ldi	r27, 0x00	; 0
    2e34:	a8 2a       	or	r10, r24
    2e36:	b9 2a       	or	r11, r25
    2e38:	ca 2a       	or	r12, r26
    2e3a:	db 2a       	or	r13, r27
    2e3c:	31 96       	adiw	r30, 0x01	; 1
    2e3e:	e0 32       	cpi	r30, 0x20	; 32
    2e40:	f1 05       	cpc	r31, r1
    2e42:	49 f0       	breq	.+18     	; 0x2e56 <__mulsf3+0x12a>
    2e44:	66 0c       	add	r6, r6
    2e46:	77 1c       	adc	r7, r7
    2e48:	88 1c       	adc	r8, r8
    2e4a:	99 1c       	adc	r9, r9
    2e4c:	56 94       	lsr	r5
    2e4e:	47 94       	ror	r4
    2e50:	37 94       	ror	r3
    2e52:	27 94       	ror	r2
    2e54:	c3 cf       	rjmp	.-122    	; 0x2ddc <__mulsf3+0xb0>
    2e56:	fa 85       	ldd	r31, Y+10	; 0x0a
    2e58:	ea 89       	ldd	r30, Y+18	; 0x12
    2e5a:	2b 89       	ldd	r18, Y+19	; 0x13
    2e5c:	3c 89       	ldd	r19, Y+20	; 0x14
    2e5e:	8b 85       	ldd	r24, Y+11	; 0x0b
    2e60:	9c 85       	ldd	r25, Y+12	; 0x0c
    2e62:	28 0f       	add	r18, r24
    2e64:	39 1f       	adc	r19, r25
    2e66:	2e 5f       	subi	r18, 0xFE	; 254
    2e68:	3f 4f       	sbci	r19, 0xFF	; 255
    2e6a:	17 c0       	rjmp	.+46     	; 0x2e9a <__mulsf3+0x16e>
    2e6c:	ca 01       	movw	r24, r20
    2e6e:	81 70       	andi	r24, 0x01	; 1
    2e70:	90 70       	andi	r25, 0x00	; 0
    2e72:	89 2b       	or	r24, r25
    2e74:	61 f0       	breq	.+24     	; 0x2e8e <__mulsf3+0x162>
    2e76:	16 95       	lsr	r17
    2e78:	07 95       	ror	r16
    2e7a:	f7 94       	ror	r15
    2e7c:	e7 94       	ror	r14
    2e7e:	80 e0       	ldi	r24, 0x00	; 0
    2e80:	90 e0       	ldi	r25, 0x00	; 0
    2e82:	a0 e0       	ldi	r26, 0x00	; 0
    2e84:	b0 e8       	ldi	r27, 0x80	; 128
    2e86:	e8 2a       	or	r14, r24
    2e88:	f9 2a       	or	r15, r25
    2e8a:	0a 2b       	or	r16, r26
    2e8c:	1b 2b       	or	r17, r27
    2e8e:	76 95       	lsr	r23
    2e90:	67 95       	ror	r22
    2e92:	57 95       	ror	r21
    2e94:	47 95       	ror	r20
    2e96:	2f 5f       	subi	r18, 0xFF	; 255
    2e98:	3f 4f       	sbci	r19, 0xFF	; 255
    2e9a:	77 fd       	sbrc	r23, 7
    2e9c:	e7 cf       	rjmp	.-50     	; 0x2e6c <__mulsf3+0x140>
    2e9e:	0c c0       	rjmp	.+24     	; 0x2eb8 <__mulsf3+0x18c>
    2ea0:	44 0f       	add	r20, r20
    2ea2:	55 1f       	adc	r21, r21
    2ea4:	66 1f       	adc	r22, r22
    2ea6:	77 1f       	adc	r23, r23
    2ea8:	17 fd       	sbrc	r17, 7
    2eaa:	41 60       	ori	r20, 0x01	; 1
    2eac:	ee 0c       	add	r14, r14
    2eae:	ff 1c       	adc	r15, r15
    2eb0:	00 1f       	adc	r16, r16
    2eb2:	11 1f       	adc	r17, r17
    2eb4:	21 50       	subi	r18, 0x01	; 1
    2eb6:	30 40       	sbci	r19, 0x00	; 0
    2eb8:	40 30       	cpi	r20, 0x00	; 0
    2eba:	90 e0       	ldi	r25, 0x00	; 0
    2ebc:	59 07       	cpc	r21, r25
    2ebe:	90 e0       	ldi	r25, 0x00	; 0
    2ec0:	69 07       	cpc	r22, r25
    2ec2:	90 e4       	ldi	r25, 0x40	; 64
    2ec4:	79 07       	cpc	r23, r25
    2ec6:	60 f3       	brcs	.-40     	; 0x2ea0 <__mulsf3+0x174>
    2ec8:	2b 8f       	std	Y+27, r18	; 0x1b
    2eca:	3c 8f       	std	Y+28, r19	; 0x1c
    2ecc:	db 01       	movw	r26, r22
    2ece:	ca 01       	movw	r24, r20
    2ed0:	8f 77       	andi	r24, 0x7F	; 127
    2ed2:	90 70       	andi	r25, 0x00	; 0
    2ed4:	a0 70       	andi	r26, 0x00	; 0
    2ed6:	b0 70       	andi	r27, 0x00	; 0
    2ed8:	80 34       	cpi	r24, 0x40	; 64
    2eda:	91 05       	cpc	r25, r1
    2edc:	a1 05       	cpc	r26, r1
    2ede:	b1 05       	cpc	r27, r1
    2ee0:	61 f4       	brne	.+24     	; 0x2efa <__mulsf3+0x1ce>
    2ee2:	47 fd       	sbrc	r20, 7
    2ee4:	0a c0       	rjmp	.+20     	; 0x2efa <__mulsf3+0x1ce>
    2ee6:	e1 14       	cp	r14, r1
    2ee8:	f1 04       	cpc	r15, r1
    2eea:	01 05       	cpc	r16, r1
    2eec:	11 05       	cpc	r17, r1
    2eee:	29 f0       	breq	.+10     	; 0x2efa <__mulsf3+0x1ce>
    2ef0:	40 5c       	subi	r20, 0xC0	; 192
    2ef2:	5f 4f       	sbci	r21, 0xFF	; 255
    2ef4:	6f 4f       	sbci	r22, 0xFF	; 255
    2ef6:	7f 4f       	sbci	r23, 0xFF	; 255
    2ef8:	40 78       	andi	r20, 0x80	; 128
    2efa:	1a 8e       	std	Y+26, r1	; 0x1a
    2efc:	fe 17       	cp	r31, r30
    2efe:	11 f0       	breq	.+4      	; 0x2f04 <__mulsf3+0x1d8>
    2f00:	81 e0       	ldi	r24, 0x01	; 1
    2f02:	8a 8f       	std	Y+26, r24	; 0x1a
    2f04:	4d 8f       	std	Y+29, r20	; 0x1d
    2f06:	5e 8f       	std	Y+30, r21	; 0x1e
    2f08:	6f 8f       	std	Y+31, r22	; 0x1f
    2f0a:	78 a3       	std	Y+32, r23	; 0x20
    2f0c:	83 e0       	ldi	r24, 0x03	; 3
    2f0e:	89 8f       	std	Y+25, r24	; 0x19
    2f10:	ce 01       	movw	r24, r28
    2f12:	49 96       	adiw	r24, 0x19	; 25
    2f14:	0e 94 88 19 	call	0x3310	; 0x3310 <__pack_f>
    2f18:	a0 96       	adiw	r28, 0x20	; 32
    2f1a:	e2 e1       	ldi	r30, 0x12	; 18
    2f1c:	0c 94 9f 1b 	jmp	0x373e	; 0x373e <__epilogue_restores__>

00002f20 <__divsf3>:
    2f20:	a8 e1       	ldi	r26, 0x18	; 24
    2f22:	b0 e0       	ldi	r27, 0x00	; 0
    2f24:	e6 e9       	ldi	r30, 0x96	; 150
    2f26:	f7 e1       	ldi	r31, 0x17	; 23
    2f28:	0c 94 8b 1b 	jmp	0x3716	; 0x3716 <__prologue_saves__+0x10>
    2f2c:	69 83       	std	Y+1, r22	; 0x01
    2f2e:	7a 83       	std	Y+2, r23	; 0x02
    2f30:	8b 83       	std	Y+3, r24	; 0x03
    2f32:	9c 83       	std	Y+4, r25	; 0x04
    2f34:	2d 83       	std	Y+5, r18	; 0x05
    2f36:	3e 83       	std	Y+6, r19	; 0x06
    2f38:	4f 83       	std	Y+7, r20	; 0x07
    2f3a:	58 87       	std	Y+8, r21	; 0x08
    2f3c:	b9 e0       	ldi	r27, 0x09	; 9
    2f3e:	eb 2e       	mov	r14, r27
    2f40:	f1 2c       	mov	r15, r1
    2f42:	ec 0e       	add	r14, r28
    2f44:	fd 1e       	adc	r15, r29
    2f46:	ce 01       	movw	r24, r28
    2f48:	01 96       	adiw	r24, 0x01	; 1
    2f4a:	b7 01       	movw	r22, r14
    2f4c:	0e 94 5d 1a 	call	0x34ba	; 0x34ba <__unpack_f>
    2f50:	8e 01       	movw	r16, r28
    2f52:	0f 5e       	subi	r16, 0xEF	; 239
    2f54:	1f 4f       	sbci	r17, 0xFF	; 255
    2f56:	ce 01       	movw	r24, r28
    2f58:	05 96       	adiw	r24, 0x05	; 5
    2f5a:	b8 01       	movw	r22, r16
    2f5c:	0e 94 5d 1a 	call	0x34ba	; 0x34ba <__unpack_f>
    2f60:	29 85       	ldd	r18, Y+9	; 0x09
    2f62:	22 30       	cpi	r18, 0x02	; 2
    2f64:	08 f4       	brcc	.+2      	; 0x2f68 <__divsf3+0x48>
    2f66:	7e c0       	rjmp	.+252    	; 0x3064 <__divsf3+0x144>
    2f68:	39 89       	ldd	r19, Y+17	; 0x11
    2f6a:	32 30       	cpi	r19, 0x02	; 2
    2f6c:	10 f4       	brcc	.+4      	; 0x2f72 <__divsf3+0x52>
    2f6e:	b8 01       	movw	r22, r16
    2f70:	7c c0       	rjmp	.+248    	; 0x306a <__divsf3+0x14a>
    2f72:	8a 85       	ldd	r24, Y+10	; 0x0a
    2f74:	9a 89       	ldd	r25, Y+18	; 0x12
    2f76:	89 27       	eor	r24, r25
    2f78:	8a 87       	std	Y+10, r24	; 0x0a
    2f7a:	24 30       	cpi	r18, 0x04	; 4
    2f7c:	11 f0       	breq	.+4      	; 0x2f82 <__divsf3+0x62>
    2f7e:	22 30       	cpi	r18, 0x02	; 2
    2f80:	31 f4       	brne	.+12     	; 0x2f8e <__divsf3+0x6e>
    2f82:	23 17       	cp	r18, r19
    2f84:	09 f0       	breq	.+2      	; 0x2f88 <__divsf3+0x68>
    2f86:	6e c0       	rjmp	.+220    	; 0x3064 <__divsf3+0x144>
    2f88:	6f ea       	ldi	r22, 0xAF	; 175
    2f8a:	7c e0       	ldi	r23, 0x0C	; 12
    2f8c:	6e c0       	rjmp	.+220    	; 0x306a <__divsf3+0x14a>
    2f8e:	34 30       	cpi	r19, 0x04	; 4
    2f90:	39 f4       	brne	.+14     	; 0x2fa0 <__divsf3+0x80>
    2f92:	1d 86       	std	Y+13, r1	; 0x0d
    2f94:	1e 86       	std	Y+14, r1	; 0x0e
    2f96:	1f 86       	std	Y+15, r1	; 0x0f
    2f98:	18 8a       	std	Y+16, r1	; 0x10
    2f9a:	1c 86       	std	Y+12, r1	; 0x0c
    2f9c:	1b 86       	std	Y+11, r1	; 0x0b
    2f9e:	04 c0       	rjmp	.+8      	; 0x2fa8 <__divsf3+0x88>
    2fa0:	32 30       	cpi	r19, 0x02	; 2
    2fa2:	21 f4       	brne	.+8      	; 0x2fac <__divsf3+0x8c>
    2fa4:	84 e0       	ldi	r24, 0x04	; 4
    2fa6:	89 87       	std	Y+9, r24	; 0x09
    2fa8:	b7 01       	movw	r22, r14
    2faa:	5f c0       	rjmp	.+190    	; 0x306a <__divsf3+0x14a>
    2fac:	2b 85       	ldd	r18, Y+11	; 0x0b
    2fae:	3c 85       	ldd	r19, Y+12	; 0x0c
    2fb0:	8b 89       	ldd	r24, Y+19	; 0x13
    2fb2:	9c 89       	ldd	r25, Y+20	; 0x14
    2fb4:	28 1b       	sub	r18, r24
    2fb6:	39 0b       	sbc	r19, r25
    2fb8:	3c 87       	std	Y+12, r19	; 0x0c
    2fba:	2b 87       	std	Y+11, r18	; 0x0b
    2fbc:	ed 84       	ldd	r14, Y+13	; 0x0d
    2fbe:	fe 84       	ldd	r15, Y+14	; 0x0e
    2fc0:	0f 85       	ldd	r16, Y+15	; 0x0f
    2fc2:	18 89       	ldd	r17, Y+16	; 0x10
    2fc4:	ad 88       	ldd	r10, Y+21	; 0x15
    2fc6:	be 88       	ldd	r11, Y+22	; 0x16
    2fc8:	cf 88       	ldd	r12, Y+23	; 0x17
    2fca:	d8 8c       	ldd	r13, Y+24	; 0x18
    2fcc:	ea 14       	cp	r14, r10
    2fce:	fb 04       	cpc	r15, r11
    2fd0:	0c 05       	cpc	r16, r12
    2fd2:	1d 05       	cpc	r17, r13
    2fd4:	40 f4       	brcc	.+16     	; 0x2fe6 <__divsf3+0xc6>
    2fd6:	ee 0c       	add	r14, r14
    2fd8:	ff 1c       	adc	r15, r15
    2fda:	00 1f       	adc	r16, r16
    2fdc:	11 1f       	adc	r17, r17
    2fde:	21 50       	subi	r18, 0x01	; 1
    2fe0:	30 40       	sbci	r19, 0x00	; 0
    2fe2:	3c 87       	std	Y+12, r19	; 0x0c
    2fe4:	2b 87       	std	Y+11, r18	; 0x0b
    2fe6:	20 e0       	ldi	r18, 0x00	; 0
    2fe8:	30 e0       	ldi	r19, 0x00	; 0
    2fea:	40 e0       	ldi	r20, 0x00	; 0
    2fec:	50 e0       	ldi	r21, 0x00	; 0
    2fee:	80 e0       	ldi	r24, 0x00	; 0
    2ff0:	90 e0       	ldi	r25, 0x00	; 0
    2ff2:	a0 e0       	ldi	r26, 0x00	; 0
    2ff4:	b0 e4       	ldi	r27, 0x40	; 64
    2ff6:	60 e0       	ldi	r22, 0x00	; 0
    2ff8:	70 e0       	ldi	r23, 0x00	; 0
    2ffa:	ea 14       	cp	r14, r10
    2ffc:	fb 04       	cpc	r15, r11
    2ffe:	0c 05       	cpc	r16, r12
    3000:	1d 05       	cpc	r17, r13
    3002:	40 f0       	brcs	.+16     	; 0x3014 <__divsf3+0xf4>
    3004:	28 2b       	or	r18, r24
    3006:	39 2b       	or	r19, r25
    3008:	4a 2b       	or	r20, r26
    300a:	5b 2b       	or	r21, r27
    300c:	ea 18       	sub	r14, r10
    300e:	fb 08       	sbc	r15, r11
    3010:	0c 09       	sbc	r16, r12
    3012:	1d 09       	sbc	r17, r13
    3014:	b6 95       	lsr	r27
    3016:	a7 95       	ror	r26
    3018:	97 95       	ror	r25
    301a:	87 95       	ror	r24
    301c:	ee 0c       	add	r14, r14
    301e:	ff 1c       	adc	r15, r15
    3020:	00 1f       	adc	r16, r16
    3022:	11 1f       	adc	r17, r17
    3024:	6f 5f       	subi	r22, 0xFF	; 255
    3026:	7f 4f       	sbci	r23, 0xFF	; 255
    3028:	6f 31       	cpi	r22, 0x1F	; 31
    302a:	71 05       	cpc	r23, r1
    302c:	31 f7       	brne	.-52     	; 0x2ffa <__divsf3+0xda>
    302e:	da 01       	movw	r26, r20
    3030:	c9 01       	movw	r24, r18
    3032:	8f 77       	andi	r24, 0x7F	; 127
    3034:	90 70       	andi	r25, 0x00	; 0
    3036:	a0 70       	andi	r26, 0x00	; 0
    3038:	b0 70       	andi	r27, 0x00	; 0
    303a:	80 34       	cpi	r24, 0x40	; 64
    303c:	91 05       	cpc	r25, r1
    303e:	a1 05       	cpc	r26, r1
    3040:	b1 05       	cpc	r27, r1
    3042:	61 f4       	brne	.+24     	; 0x305c <__divsf3+0x13c>
    3044:	27 fd       	sbrc	r18, 7
    3046:	0a c0       	rjmp	.+20     	; 0x305c <__divsf3+0x13c>
    3048:	e1 14       	cp	r14, r1
    304a:	f1 04       	cpc	r15, r1
    304c:	01 05       	cpc	r16, r1
    304e:	11 05       	cpc	r17, r1
    3050:	29 f0       	breq	.+10     	; 0x305c <__divsf3+0x13c>
    3052:	20 5c       	subi	r18, 0xC0	; 192
    3054:	3f 4f       	sbci	r19, 0xFF	; 255
    3056:	4f 4f       	sbci	r20, 0xFF	; 255
    3058:	5f 4f       	sbci	r21, 0xFF	; 255
    305a:	20 78       	andi	r18, 0x80	; 128
    305c:	2d 87       	std	Y+13, r18	; 0x0d
    305e:	3e 87       	std	Y+14, r19	; 0x0e
    3060:	4f 87       	std	Y+15, r20	; 0x0f
    3062:	58 8b       	std	Y+16, r21	; 0x10
    3064:	be 01       	movw	r22, r28
    3066:	67 5f       	subi	r22, 0xF7	; 247
    3068:	7f 4f       	sbci	r23, 0xFF	; 255
    306a:	cb 01       	movw	r24, r22
    306c:	0e 94 88 19 	call	0x3310	; 0x3310 <__pack_f>
    3070:	68 96       	adiw	r28, 0x18	; 24
    3072:	ea e0       	ldi	r30, 0x0A	; 10
    3074:	0c 94 a7 1b 	jmp	0x374e	; 0x374e <__epilogue_restores__+0x10>

00003078 <__gesf2>:
    3078:	a8 e1       	ldi	r26, 0x18	; 24
    307a:	b0 e0       	ldi	r27, 0x00	; 0
    307c:	e2 e4       	ldi	r30, 0x42	; 66
    307e:	f8 e1       	ldi	r31, 0x18	; 24
    3080:	0c 94 8f 1b 	jmp	0x371e	; 0x371e <__prologue_saves__+0x18>
    3084:	69 83       	std	Y+1, r22	; 0x01
    3086:	7a 83       	std	Y+2, r23	; 0x02
    3088:	8b 83       	std	Y+3, r24	; 0x03
    308a:	9c 83       	std	Y+4, r25	; 0x04
    308c:	2d 83       	std	Y+5, r18	; 0x05
    308e:	3e 83       	std	Y+6, r19	; 0x06
    3090:	4f 83       	std	Y+7, r20	; 0x07
    3092:	58 87       	std	Y+8, r21	; 0x08
    3094:	89 e0       	ldi	r24, 0x09	; 9
    3096:	e8 2e       	mov	r14, r24
    3098:	f1 2c       	mov	r15, r1
    309a:	ec 0e       	add	r14, r28
    309c:	fd 1e       	adc	r15, r29
    309e:	ce 01       	movw	r24, r28
    30a0:	01 96       	adiw	r24, 0x01	; 1
    30a2:	b7 01       	movw	r22, r14
    30a4:	0e 94 5d 1a 	call	0x34ba	; 0x34ba <__unpack_f>
    30a8:	8e 01       	movw	r16, r28
    30aa:	0f 5e       	subi	r16, 0xEF	; 239
    30ac:	1f 4f       	sbci	r17, 0xFF	; 255
    30ae:	ce 01       	movw	r24, r28
    30b0:	05 96       	adiw	r24, 0x05	; 5
    30b2:	b8 01       	movw	r22, r16
    30b4:	0e 94 5d 1a 	call	0x34ba	; 0x34ba <__unpack_f>
    30b8:	89 85       	ldd	r24, Y+9	; 0x09
    30ba:	82 30       	cpi	r24, 0x02	; 2
    30bc:	40 f0       	brcs	.+16     	; 0x30ce <__gesf2+0x56>
    30be:	89 89       	ldd	r24, Y+17	; 0x11
    30c0:	82 30       	cpi	r24, 0x02	; 2
    30c2:	28 f0       	brcs	.+10     	; 0x30ce <__gesf2+0x56>
    30c4:	c7 01       	movw	r24, r14
    30c6:	b8 01       	movw	r22, r16
    30c8:	0e 94 d5 1a 	call	0x35aa	; 0x35aa <__fpcmp_parts_f>
    30cc:	01 c0       	rjmp	.+2      	; 0x30d0 <__gesf2+0x58>
    30ce:	8f ef       	ldi	r24, 0xFF	; 255
    30d0:	68 96       	adiw	r28, 0x18	; 24
    30d2:	e6 e0       	ldi	r30, 0x06	; 6
    30d4:	0c 94 ab 1b 	jmp	0x3756	; 0x3756 <__epilogue_restores__+0x18>

000030d8 <__fixsfsi>:
    30d8:	ac e0       	ldi	r26, 0x0C	; 12
    30da:	b0 e0       	ldi	r27, 0x00	; 0
    30dc:	e2 e7       	ldi	r30, 0x72	; 114
    30de:	f8 e1       	ldi	r31, 0x18	; 24
    30e0:	0c 94 93 1b 	jmp	0x3726	; 0x3726 <__prologue_saves__+0x20>
    30e4:	69 83       	std	Y+1, r22	; 0x01
    30e6:	7a 83       	std	Y+2, r23	; 0x02
    30e8:	8b 83       	std	Y+3, r24	; 0x03
    30ea:	9c 83       	std	Y+4, r25	; 0x04
    30ec:	ce 01       	movw	r24, r28
    30ee:	01 96       	adiw	r24, 0x01	; 1
    30f0:	be 01       	movw	r22, r28
    30f2:	6b 5f       	subi	r22, 0xFB	; 251
    30f4:	7f 4f       	sbci	r23, 0xFF	; 255
    30f6:	0e 94 5d 1a 	call	0x34ba	; 0x34ba <__unpack_f>
    30fa:	8d 81       	ldd	r24, Y+5	; 0x05
    30fc:	82 30       	cpi	r24, 0x02	; 2
    30fe:	61 f1       	breq	.+88     	; 0x3158 <__fixsfsi+0x80>
    3100:	82 30       	cpi	r24, 0x02	; 2
    3102:	50 f1       	brcs	.+84     	; 0x3158 <__fixsfsi+0x80>
    3104:	84 30       	cpi	r24, 0x04	; 4
    3106:	21 f4       	brne	.+8      	; 0x3110 <__fixsfsi+0x38>
    3108:	8e 81       	ldd	r24, Y+6	; 0x06
    310a:	88 23       	and	r24, r24
    310c:	51 f1       	breq	.+84     	; 0x3162 <__fixsfsi+0x8a>
    310e:	2e c0       	rjmp	.+92     	; 0x316c <__fixsfsi+0x94>
    3110:	2f 81       	ldd	r18, Y+7	; 0x07
    3112:	38 85       	ldd	r19, Y+8	; 0x08
    3114:	37 fd       	sbrc	r19, 7
    3116:	20 c0       	rjmp	.+64     	; 0x3158 <__fixsfsi+0x80>
    3118:	6e 81       	ldd	r22, Y+6	; 0x06
    311a:	2f 31       	cpi	r18, 0x1F	; 31
    311c:	31 05       	cpc	r19, r1
    311e:	1c f0       	brlt	.+6      	; 0x3126 <__fixsfsi+0x4e>
    3120:	66 23       	and	r22, r22
    3122:	f9 f0       	breq	.+62     	; 0x3162 <__fixsfsi+0x8a>
    3124:	23 c0       	rjmp	.+70     	; 0x316c <__fixsfsi+0x94>
    3126:	8e e1       	ldi	r24, 0x1E	; 30
    3128:	90 e0       	ldi	r25, 0x00	; 0
    312a:	82 1b       	sub	r24, r18
    312c:	93 0b       	sbc	r25, r19
    312e:	29 85       	ldd	r18, Y+9	; 0x09
    3130:	3a 85       	ldd	r19, Y+10	; 0x0a
    3132:	4b 85       	ldd	r20, Y+11	; 0x0b
    3134:	5c 85       	ldd	r21, Y+12	; 0x0c
    3136:	04 c0       	rjmp	.+8      	; 0x3140 <__fixsfsi+0x68>
    3138:	56 95       	lsr	r21
    313a:	47 95       	ror	r20
    313c:	37 95       	ror	r19
    313e:	27 95       	ror	r18
    3140:	8a 95       	dec	r24
    3142:	d2 f7       	brpl	.-12     	; 0x3138 <__fixsfsi+0x60>
    3144:	66 23       	and	r22, r22
    3146:	b1 f0       	breq	.+44     	; 0x3174 <__fixsfsi+0x9c>
    3148:	50 95       	com	r21
    314a:	40 95       	com	r20
    314c:	30 95       	com	r19
    314e:	21 95       	neg	r18
    3150:	3f 4f       	sbci	r19, 0xFF	; 255
    3152:	4f 4f       	sbci	r20, 0xFF	; 255
    3154:	5f 4f       	sbci	r21, 0xFF	; 255
    3156:	0e c0       	rjmp	.+28     	; 0x3174 <__fixsfsi+0x9c>
    3158:	20 e0       	ldi	r18, 0x00	; 0
    315a:	30 e0       	ldi	r19, 0x00	; 0
    315c:	40 e0       	ldi	r20, 0x00	; 0
    315e:	50 e0       	ldi	r21, 0x00	; 0
    3160:	09 c0       	rjmp	.+18     	; 0x3174 <__fixsfsi+0x9c>
    3162:	2f ef       	ldi	r18, 0xFF	; 255
    3164:	3f ef       	ldi	r19, 0xFF	; 255
    3166:	4f ef       	ldi	r20, 0xFF	; 255
    3168:	5f e7       	ldi	r21, 0x7F	; 127
    316a:	04 c0       	rjmp	.+8      	; 0x3174 <__fixsfsi+0x9c>
    316c:	20 e0       	ldi	r18, 0x00	; 0
    316e:	30 e0       	ldi	r19, 0x00	; 0
    3170:	40 e0       	ldi	r20, 0x00	; 0
    3172:	50 e8       	ldi	r21, 0x80	; 128
    3174:	b9 01       	movw	r22, r18
    3176:	ca 01       	movw	r24, r20
    3178:	2c 96       	adiw	r28, 0x0c	; 12
    317a:	e2 e0       	ldi	r30, 0x02	; 2
    317c:	0c 94 af 1b 	jmp	0x375e	; 0x375e <__epilogue_restores__+0x20>

00003180 <__floatunsisf>:
    3180:	a8 e0       	ldi	r26, 0x08	; 8
    3182:	b0 e0       	ldi	r27, 0x00	; 0
    3184:	e6 ec       	ldi	r30, 0xC6	; 198
    3186:	f8 e1       	ldi	r31, 0x18	; 24
    3188:	0c 94 8b 1b 	jmp	0x3716	; 0x3716 <__prologue_saves__+0x10>
    318c:	7b 01       	movw	r14, r22
    318e:	8c 01       	movw	r16, r24
    3190:	61 15       	cp	r22, r1
    3192:	71 05       	cpc	r23, r1
    3194:	81 05       	cpc	r24, r1
    3196:	91 05       	cpc	r25, r1
    3198:	19 f4       	brne	.+6      	; 0x31a0 <__floatunsisf+0x20>
    319a:	82 e0       	ldi	r24, 0x02	; 2
    319c:	89 83       	std	Y+1, r24	; 0x01
    319e:	60 c0       	rjmp	.+192    	; 0x3260 <__floatunsisf+0xe0>
    31a0:	83 e0       	ldi	r24, 0x03	; 3
    31a2:	89 83       	std	Y+1, r24	; 0x01
    31a4:	8e e1       	ldi	r24, 0x1E	; 30
    31a6:	c8 2e       	mov	r12, r24
    31a8:	d1 2c       	mov	r13, r1
    31aa:	dc 82       	std	Y+4, r13	; 0x04
    31ac:	cb 82       	std	Y+3, r12	; 0x03
    31ae:	ed 82       	std	Y+5, r14	; 0x05
    31b0:	fe 82       	std	Y+6, r15	; 0x06
    31b2:	0f 83       	std	Y+7, r16	; 0x07
    31b4:	18 87       	std	Y+8, r17	; 0x08
    31b6:	c8 01       	movw	r24, r16
    31b8:	b7 01       	movw	r22, r14
    31ba:	0e 94 39 19 	call	0x3272	; 0x3272 <__clzsi2>
    31be:	fc 01       	movw	r30, r24
    31c0:	31 97       	sbiw	r30, 0x01	; 1
    31c2:	f7 ff       	sbrs	r31, 7
    31c4:	3b c0       	rjmp	.+118    	; 0x323c <__floatunsisf+0xbc>
    31c6:	22 27       	eor	r18, r18
    31c8:	33 27       	eor	r19, r19
    31ca:	2e 1b       	sub	r18, r30
    31cc:	3f 0b       	sbc	r19, r31
    31ce:	57 01       	movw	r10, r14
    31d0:	68 01       	movw	r12, r16
    31d2:	02 2e       	mov	r0, r18
    31d4:	04 c0       	rjmp	.+8      	; 0x31de <__floatunsisf+0x5e>
    31d6:	d6 94       	lsr	r13
    31d8:	c7 94       	ror	r12
    31da:	b7 94       	ror	r11
    31dc:	a7 94       	ror	r10
    31de:	0a 94       	dec	r0
    31e0:	d2 f7       	brpl	.-12     	; 0x31d6 <__floatunsisf+0x56>
    31e2:	40 e0       	ldi	r20, 0x00	; 0
    31e4:	50 e0       	ldi	r21, 0x00	; 0
    31e6:	60 e0       	ldi	r22, 0x00	; 0
    31e8:	70 e0       	ldi	r23, 0x00	; 0
    31ea:	81 e0       	ldi	r24, 0x01	; 1
    31ec:	90 e0       	ldi	r25, 0x00	; 0
    31ee:	a0 e0       	ldi	r26, 0x00	; 0
    31f0:	b0 e0       	ldi	r27, 0x00	; 0
    31f2:	04 c0       	rjmp	.+8      	; 0x31fc <__floatunsisf+0x7c>
    31f4:	88 0f       	add	r24, r24
    31f6:	99 1f       	adc	r25, r25
    31f8:	aa 1f       	adc	r26, r26
    31fa:	bb 1f       	adc	r27, r27
    31fc:	2a 95       	dec	r18
    31fe:	d2 f7       	brpl	.-12     	; 0x31f4 <__floatunsisf+0x74>
    3200:	01 97       	sbiw	r24, 0x01	; 1
    3202:	a1 09       	sbc	r26, r1
    3204:	b1 09       	sbc	r27, r1
    3206:	8e 21       	and	r24, r14
    3208:	9f 21       	and	r25, r15
    320a:	a0 23       	and	r26, r16
    320c:	b1 23       	and	r27, r17
    320e:	00 97       	sbiw	r24, 0x00	; 0
    3210:	a1 05       	cpc	r26, r1
    3212:	b1 05       	cpc	r27, r1
    3214:	21 f0       	breq	.+8      	; 0x321e <__floatunsisf+0x9e>
    3216:	41 e0       	ldi	r20, 0x01	; 1
    3218:	50 e0       	ldi	r21, 0x00	; 0
    321a:	60 e0       	ldi	r22, 0x00	; 0
    321c:	70 e0       	ldi	r23, 0x00	; 0
    321e:	4a 29       	or	r20, r10
    3220:	5b 29       	or	r21, r11
    3222:	6c 29       	or	r22, r12
    3224:	7d 29       	or	r23, r13
    3226:	4d 83       	std	Y+5, r20	; 0x05
    3228:	5e 83       	std	Y+6, r21	; 0x06
    322a:	6f 83       	std	Y+7, r22	; 0x07
    322c:	78 87       	std	Y+8, r23	; 0x08
    322e:	8e e1       	ldi	r24, 0x1E	; 30
    3230:	90 e0       	ldi	r25, 0x00	; 0
    3232:	8e 1b       	sub	r24, r30
    3234:	9f 0b       	sbc	r25, r31
    3236:	9c 83       	std	Y+4, r25	; 0x04
    3238:	8b 83       	std	Y+3, r24	; 0x03
    323a:	12 c0       	rjmp	.+36     	; 0x3260 <__floatunsisf+0xe0>
    323c:	30 97       	sbiw	r30, 0x00	; 0
    323e:	81 f0       	breq	.+32     	; 0x3260 <__floatunsisf+0xe0>
    3240:	0e 2e       	mov	r0, r30
    3242:	04 c0       	rjmp	.+8      	; 0x324c <__floatunsisf+0xcc>
    3244:	ee 0c       	add	r14, r14
    3246:	ff 1c       	adc	r15, r15
    3248:	00 1f       	adc	r16, r16
    324a:	11 1f       	adc	r17, r17
    324c:	0a 94       	dec	r0
    324e:	d2 f7       	brpl	.-12     	; 0x3244 <__floatunsisf+0xc4>
    3250:	ed 82       	std	Y+5, r14	; 0x05
    3252:	fe 82       	std	Y+6, r15	; 0x06
    3254:	0f 83       	std	Y+7, r16	; 0x07
    3256:	18 87       	std	Y+8, r17	; 0x08
    3258:	ce 1a       	sub	r12, r30
    325a:	df 0a       	sbc	r13, r31
    325c:	dc 82       	std	Y+4, r13	; 0x04
    325e:	cb 82       	std	Y+3, r12	; 0x03
    3260:	1a 82       	std	Y+2, r1	; 0x02
    3262:	ce 01       	movw	r24, r28
    3264:	01 96       	adiw	r24, 0x01	; 1
    3266:	0e 94 88 19 	call	0x3310	; 0x3310 <__pack_f>
    326a:	28 96       	adiw	r28, 0x08	; 8
    326c:	ea e0       	ldi	r30, 0x0A	; 10
    326e:	0c 94 a7 1b 	jmp	0x374e	; 0x374e <__epilogue_restores__+0x10>

00003272 <__clzsi2>:
    3272:	ef 92       	push	r14
    3274:	ff 92       	push	r15
    3276:	0f 93       	push	r16
    3278:	1f 93       	push	r17
    327a:	7b 01       	movw	r14, r22
    327c:	8c 01       	movw	r16, r24
    327e:	80 e0       	ldi	r24, 0x00	; 0
    3280:	e8 16       	cp	r14, r24
    3282:	80 e0       	ldi	r24, 0x00	; 0
    3284:	f8 06       	cpc	r15, r24
    3286:	81 e0       	ldi	r24, 0x01	; 1
    3288:	08 07       	cpc	r16, r24
    328a:	80 e0       	ldi	r24, 0x00	; 0
    328c:	18 07       	cpc	r17, r24
    328e:	88 f4       	brcc	.+34     	; 0x32b2 <__clzsi2+0x40>
    3290:	8f ef       	ldi	r24, 0xFF	; 255
    3292:	e8 16       	cp	r14, r24
    3294:	f1 04       	cpc	r15, r1
    3296:	01 05       	cpc	r16, r1
    3298:	11 05       	cpc	r17, r1
    329a:	31 f0       	breq	.+12     	; 0x32a8 <__clzsi2+0x36>
    329c:	28 f0       	brcs	.+10     	; 0x32a8 <__clzsi2+0x36>
    329e:	88 e0       	ldi	r24, 0x08	; 8
    32a0:	90 e0       	ldi	r25, 0x00	; 0
    32a2:	a0 e0       	ldi	r26, 0x00	; 0
    32a4:	b0 e0       	ldi	r27, 0x00	; 0
    32a6:	17 c0       	rjmp	.+46     	; 0x32d6 <__clzsi2+0x64>
    32a8:	80 e0       	ldi	r24, 0x00	; 0
    32aa:	90 e0       	ldi	r25, 0x00	; 0
    32ac:	a0 e0       	ldi	r26, 0x00	; 0
    32ae:	b0 e0       	ldi	r27, 0x00	; 0
    32b0:	12 c0       	rjmp	.+36     	; 0x32d6 <__clzsi2+0x64>
    32b2:	80 e0       	ldi	r24, 0x00	; 0
    32b4:	e8 16       	cp	r14, r24
    32b6:	80 e0       	ldi	r24, 0x00	; 0
    32b8:	f8 06       	cpc	r15, r24
    32ba:	80 e0       	ldi	r24, 0x00	; 0
    32bc:	08 07       	cpc	r16, r24
    32be:	81 e0       	ldi	r24, 0x01	; 1
    32c0:	18 07       	cpc	r17, r24
    32c2:	28 f0       	brcs	.+10     	; 0x32ce <__clzsi2+0x5c>
    32c4:	88 e1       	ldi	r24, 0x18	; 24
    32c6:	90 e0       	ldi	r25, 0x00	; 0
    32c8:	a0 e0       	ldi	r26, 0x00	; 0
    32ca:	b0 e0       	ldi	r27, 0x00	; 0
    32cc:	04 c0       	rjmp	.+8      	; 0x32d6 <__clzsi2+0x64>
    32ce:	80 e1       	ldi	r24, 0x10	; 16
    32d0:	90 e0       	ldi	r25, 0x00	; 0
    32d2:	a0 e0       	ldi	r26, 0x00	; 0
    32d4:	b0 e0       	ldi	r27, 0x00	; 0
    32d6:	20 e2       	ldi	r18, 0x20	; 32
    32d8:	30 e0       	ldi	r19, 0x00	; 0
    32da:	40 e0       	ldi	r20, 0x00	; 0
    32dc:	50 e0       	ldi	r21, 0x00	; 0
    32de:	28 1b       	sub	r18, r24
    32e0:	39 0b       	sbc	r19, r25
    32e2:	4a 0b       	sbc	r20, r26
    32e4:	5b 0b       	sbc	r21, r27
    32e6:	04 c0       	rjmp	.+8      	; 0x32f0 <__clzsi2+0x7e>
    32e8:	16 95       	lsr	r17
    32ea:	07 95       	ror	r16
    32ec:	f7 94       	ror	r15
    32ee:	e7 94       	ror	r14
    32f0:	8a 95       	dec	r24
    32f2:	d2 f7       	brpl	.-12     	; 0x32e8 <__clzsi2+0x76>
    32f4:	f7 01       	movw	r30, r14
    32f6:	e9 54       	subi	r30, 0x49	; 73
    32f8:	f3 4f       	sbci	r31, 0xF3	; 243
    32fa:	80 81       	ld	r24, Z
    32fc:	28 1b       	sub	r18, r24
    32fe:	31 09       	sbc	r19, r1
    3300:	41 09       	sbc	r20, r1
    3302:	51 09       	sbc	r21, r1
    3304:	c9 01       	movw	r24, r18
    3306:	1f 91       	pop	r17
    3308:	0f 91       	pop	r16
    330a:	ff 90       	pop	r15
    330c:	ef 90       	pop	r14
    330e:	08 95       	ret

00003310 <__pack_f>:
    3310:	df 92       	push	r13
    3312:	ef 92       	push	r14
    3314:	ff 92       	push	r15
    3316:	0f 93       	push	r16
    3318:	1f 93       	push	r17
    331a:	fc 01       	movw	r30, r24
    331c:	e4 80       	ldd	r14, Z+4	; 0x04
    331e:	f5 80       	ldd	r15, Z+5	; 0x05
    3320:	06 81       	ldd	r16, Z+6	; 0x06
    3322:	17 81       	ldd	r17, Z+7	; 0x07
    3324:	d1 80       	ldd	r13, Z+1	; 0x01
    3326:	80 81       	ld	r24, Z
    3328:	82 30       	cpi	r24, 0x02	; 2
    332a:	48 f4       	brcc	.+18     	; 0x333e <__pack_f+0x2e>
    332c:	80 e0       	ldi	r24, 0x00	; 0
    332e:	90 e0       	ldi	r25, 0x00	; 0
    3330:	a0 e1       	ldi	r26, 0x10	; 16
    3332:	b0 e0       	ldi	r27, 0x00	; 0
    3334:	e8 2a       	or	r14, r24
    3336:	f9 2a       	or	r15, r25
    3338:	0a 2b       	or	r16, r26
    333a:	1b 2b       	or	r17, r27
    333c:	a5 c0       	rjmp	.+330    	; 0x3488 <__pack_f+0x178>
    333e:	84 30       	cpi	r24, 0x04	; 4
    3340:	09 f4       	brne	.+2      	; 0x3344 <__pack_f+0x34>
    3342:	9f c0       	rjmp	.+318    	; 0x3482 <__pack_f+0x172>
    3344:	82 30       	cpi	r24, 0x02	; 2
    3346:	21 f4       	brne	.+8      	; 0x3350 <__pack_f+0x40>
    3348:	ee 24       	eor	r14, r14
    334a:	ff 24       	eor	r15, r15
    334c:	87 01       	movw	r16, r14
    334e:	05 c0       	rjmp	.+10     	; 0x335a <__pack_f+0x4a>
    3350:	e1 14       	cp	r14, r1
    3352:	f1 04       	cpc	r15, r1
    3354:	01 05       	cpc	r16, r1
    3356:	11 05       	cpc	r17, r1
    3358:	19 f4       	brne	.+6      	; 0x3360 <__pack_f+0x50>
    335a:	e0 e0       	ldi	r30, 0x00	; 0
    335c:	f0 e0       	ldi	r31, 0x00	; 0
    335e:	96 c0       	rjmp	.+300    	; 0x348c <__pack_f+0x17c>
    3360:	62 81       	ldd	r22, Z+2	; 0x02
    3362:	73 81       	ldd	r23, Z+3	; 0x03
    3364:	9f ef       	ldi	r25, 0xFF	; 255
    3366:	62 38       	cpi	r22, 0x82	; 130
    3368:	79 07       	cpc	r23, r25
    336a:	0c f0       	brlt	.+2      	; 0x336e <__pack_f+0x5e>
    336c:	5b c0       	rjmp	.+182    	; 0x3424 <__pack_f+0x114>
    336e:	22 e8       	ldi	r18, 0x82	; 130
    3370:	3f ef       	ldi	r19, 0xFF	; 255
    3372:	26 1b       	sub	r18, r22
    3374:	37 0b       	sbc	r19, r23
    3376:	2a 31       	cpi	r18, 0x1A	; 26
    3378:	31 05       	cpc	r19, r1
    337a:	2c f0       	brlt	.+10     	; 0x3386 <__pack_f+0x76>
    337c:	20 e0       	ldi	r18, 0x00	; 0
    337e:	30 e0       	ldi	r19, 0x00	; 0
    3380:	40 e0       	ldi	r20, 0x00	; 0
    3382:	50 e0       	ldi	r21, 0x00	; 0
    3384:	2a c0       	rjmp	.+84     	; 0x33da <__pack_f+0xca>
    3386:	b8 01       	movw	r22, r16
    3388:	a7 01       	movw	r20, r14
    338a:	02 2e       	mov	r0, r18
    338c:	04 c0       	rjmp	.+8      	; 0x3396 <__pack_f+0x86>
    338e:	76 95       	lsr	r23
    3390:	67 95       	ror	r22
    3392:	57 95       	ror	r21
    3394:	47 95       	ror	r20
    3396:	0a 94       	dec	r0
    3398:	d2 f7       	brpl	.-12     	; 0x338e <__pack_f+0x7e>
    339a:	81 e0       	ldi	r24, 0x01	; 1
    339c:	90 e0       	ldi	r25, 0x00	; 0
    339e:	a0 e0       	ldi	r26, 0x00	; 0
    33a0:	b0 e0       	ldi	r27, 0x00	; 0
    33a2:	04 c0       	rjmp	.+8      	; 0x33ac <__pack_f+0x9c>
    33a4:	88 0f       	add	r24, r24
    33a6:	99 1f       	adc	r25, r25
    33a8:	aa 1f       	adc	r26, r26
    33aa:	bb 1f       	adc	r27, r27
    33ac:	2a 95       	dec	r18
    33ae:	d2 f7       	brpl	.-12     	; 0x33a4 <__pack_f+0x94>
    33b0:	01 97       	sbiw	r24, 0x01	; 1
    33b2:	a1 09       	sbc	r26, r1
    33b4:	b1 09       	sbc	r27, r1
    33b6:	8e 21       	and	r24, r14
    33b8:	9f 21       	and	r25, r15
    33ba:	a0 23       	and	r26, r16
    33bc:	b1 23       	and	r27, r17
    33be:	00 97       	sbiw	r24, 0x00	; 0
    33c0:	a1 05       	cpc	r26, r1
    33c2:	b1 05       	cpc	r27, r1
    33c4:	21 f0       	breq	.+8      	; 0x33ce <__pack_f+0xbe>
    33c6:	81 e0       	ldi	r24, 0x01	; 1
    33c8:	90 e0       	ldi	r25, 0x00	; 0
    33ca:	a0 e0       	ldi	r26, 0x00	; 0
    33cc:	b0 e0       	ldi	r27, 0x00	; 0
    33ce:	9a 01       	movw	r18, r20
    33d0:	ab 01       	movw	r20, r22
    33d2:	28 2b       	or	r18, r24
    33d4:	39 2b       	or	r19, r25
    33d6:	4a 2b       	or	r20, r26
    33d8:	5b 2b       	or	r21, r27
    33da:	da 01       	movw	r26, r20
    33dc:	c9 01       	movw	r24, r18
    33de:	8f 77       	andi	r24, 0x7F	; 127
    33e0:	90 70       	andi	r25, 0x00	; 0
    33e2:	a0 70       	andi	r26, 0x00	; 0
    33e4:	b0 70       	andi	r27, 0x00	; 0
    33e6:	80 34       	cpi	r24, 0x40	; 64
    33e8:	91 05       	cpc	r25, r1
    33ea:	a1 05       	cpc	r26, r1
    33ec:	b1 05       	cpc	r27, r1
    33ee:	39 f4       	brne	.+14     	; 0x33fe <__pack_f+0xee>
    33f0:	27 ff       	sbrs	r18, 7
    33f2:	09 c0       	rjmp	.+18     	; 0x3406 <__pack_f+0xf6>
    33f4:	20 5c       	subi	r18, 0xC0	; 192
    33f6:	3f 4f       	sbci	r19, 0xFF	; 255
    33f8:	4f 4f       	sbci	r20, 0xFF	; 255
    33fa:	5f 4f       	sbci	r21, 0xFF	; 255
    33fc:	04 c0       	rjmp	.+8      	; 0x3406 <__pack_f+0xf6>
    33fe:	21 5c       	subi	r18, 0xC1	; 193
    3400:	3f 4f       	sbci	r19, 0xFF	; 255
    3402:	4f 4f       	sbci	r20, 0xFF	; 255
    3404:	5f 4f       	sbci	r21, 0xFF	; 255
    3406:	e0 e0       	ldi	r30, 0x00	; 0
    3408:	f0 e0       	ldi	r31, 0x00	; 0
    340a:	20 30       	cpi	r18, 0x00	; 0
    340c:	a0 e0       	ldi	r26, 0x00	; 0
    340e:	3a 07       	cpc	r19, r26
    3410:	a0 e0       	ldi	r26, 0x00	; 0
    3412:	4a 07       	cpc	r20, r26
    3414:	a0 e4       	ldi	r26, 0x40	; 64
    3416:	5a 07       	cpc	r21, r26
    3418:	10 f0       	brcs	.+4      	; 0x341e <__pack_f+0x10e>
    341a:	e1 e0       	ldi	r30, 0x01	; 1
    341c:	f0 e0       	ldi	r31, 0x00	; 0
    341e:	79 01       	movw	r14, r18
    3420:	8a 01       	movw	r16, r20
    3422:	27 c0       	rjmp	.+78     	; 0x3472 <__pack_f+0x162>
    3424:	60 38       	cpi	r22, 0x80	; 128
    3426:	71 05       	cpc	r23, r1
    3428:	64 f5       	brge	.+88     	; 0x3482 <__pack_f+0x172>
    342a:	fb 01       	movw	r30, r22
    342c:	e1 58       	subi	r30, 0x81	; 129
    342e:	ff 4f       	sbci	r31, 0xFF	; 255
    3430:	d8 01       	movw	r26, r16
    3432:	c7 01       	movw	r24, r14
    3434:	8f 77       	andi	r24, 0x7F	; 127
    3436:	90 70       	andi	r25, 0x00	; 0
    3438:	a0 70       	andi	r26, 0x00	; 0
    343a:	b0 70       	andi	r27, 0x00	; 0
    343c:	80 34       	cpi	r24, 0x40	; 64
    343e:	91 05       	cpc	r25, r1
    3440:	a1 05       	cpc	r26, r1
    3442:	b1 05       	cpc	r27, r1
    3444:	39 f4       	brne	.+14     	; 0x3454 <__pack_f+0x144>
    3446:	e7 fe       	sbrs	r14, 7
    3448:	0d c0       	rjmp	.+26     	; 0x3464 <__pack_f+0x154>
    344a:	80 e4       	ldi	r24, 0x40	; 64
    344c:	90 e0       	ldi	r25, 0x00	; 0
    344e:	a0 e0       	ldi	r26, 0x00	; 0
    3450:	b0 e0       	ldi	r27, 0x00	; 0
    3452:	04 c0       	rjmp	.+8      	; 0x345c <__pack_f+0x14c>
    3454:	8f e3       	ldi	r24, 0x3F	; 63
    3456:	90 e0       	ldi	r25, 0x00	; 0
    3458:	a0 e0       	ldi	r26, 0x00	; 0
    345a:	b0 e0       	ldi	r27, 0x00	; 0
    345c:	e8 0e       	add	r14, r24
    345e:	f9 1e       	adc	r15, r25
    3460:	0a 1f       	adc	r16, r26
    3462:	1b 1f       	adc	r17, r27
    3464:	17 ff       	sbrs	r17, 7
    3466:	05 c0       	rjmp	.+10     	; 0x3472 <__pack_f+0x162>
    3468:	16 95       	lsr	r17
    346a:	07 95       	ror	r16
    346c:	f7 94       	ror	r15
    346e:	e7 94       	ror	r14
    3470:	31 96       	adiw	r30, 0x01	; 1
    3472:	87 e0       	ldi	r24, 0x07	; 7
    3474:	16 95       	lsr	r17
    3476:	07 95       	ror	r16
    3478:	f7 94       	ror	r15
    347a:	e7 94       	ror	r14
    347c:	8a 95       	dec	r24
    347e:	d1 f7       	brne	.-12     	; 0x3474 <__pack_f+0x164>
    3480:	05 c0       	rjmp	.+10     	; 0x348c <__pack_f+0x17c>
    3482:	ee 24       	eor	r14, r14
    3484:	ff 24       	eor	r15, r15
    3486:	87 01       	movw	r16, r14
    3488:	ef ef       	ldi	r30, 0xFF	; 255
    348a:	f0 e0       	ldi	r31, 0x00	; 0
    348c:	6e 2f       	mov	r22, r30
    348e:	67 95       	ror	r22
    3490:	66 27       	eor	r22, r22
    3492:	67 95       	ror	r22
    3494:	90 2f       	mov	r25, r16
    3496:	9f 77       	andi	r25, 0x7F	; 127
    3498:	d7 94       	ror	r13
    349a:	dd 24       	eor	r13, r13
    349c:	d7 94       	ror	r13
    349e:	8e 2f       	mov	r24, r30
    34a0:	86 95       	lsr	r24
    34a2:	49 2f       	mov	r20, r25
    34a4:	46 2b       	or	r20, r22
    34a6:	58 2f       	mov	r21, r24
    34a8:	5d 29       	or	r21, r13
    34aa:	b7 01       	movw	r22, r14
    34ac:	ca 01       	movw	r24, r20
    34ae:	1f 91       	pop	r17
    34b0:	0f 91       	pop	r16
    34b2:	ff 90       	pop	r15
    34b4:	ef 90       	pop	r14
    34b6:	df 90       	pop	r13
    34b8:	08 95       	ret

000034ba <__unpack_f>:
    34ba:	fc 01       	movw	r30, r24
    34bc:	db 01       	movw	r26, r22
    34be:	40 81       	ld	r20, Z
    34c0:	51 81       	ldd	r21, Z+1	; 0x01
    34c2:	22 81       	ldd	r18, Z+2	; 0x02
    34c4:	62 2f       	mov	r22, r18
    34c6:	6f 77       	andi	r22, 0x7F	; 127
    34c8:	70 e0       	ldi	r23, 0x00	; 0
    34ca:	22 1f       	adc	r18, r18
    34cc:	22 27       	eor	r18, r18
    34ce:	22 1f       	adc	r18, r18
    34d0:	93 81       	ldd	r25, Z+3	; 0x03
    34d2:	89 2f       	mov	r24, r25
    34d4:	88 0f       	add	r24, r24
    34d6:	82 2b       	or	r24, r18
    34d8:	28 2f       	mov	r18, r24
    34da:	30 e0       	ldi	r19, 0x00	; 0
    34dc:	99 1f       	adc	r25, r25
    34de:	99 27       	eor	r25, r25
    34e0:	99 1f       	adc	r25, r25
    34e2:	11 96       	adiw	r26, 0x01	; 1
    34e4:	9c 93       	st	X, r25
    34e6:	11 97       	sbiw	r26, 0x01	; 1
    34e8:	21 15       	cp	r18, r1
    34ea:	31 05       	cpc	r19, r1
    34ec:	a9 f5       	brne	.+106    	; 0x3558 <__unpack_f+0x9e>
    34ee:	41 15       	cp	r20, r1
    34f0:	51 05       	cpc	r21, r1
    34f2:	61 05       	cpc	r22, r1
    34f4:	71 05       	cpc	r23, r1
    34f6:	11 f4       	brne	.+4      	; 0x34fc <__unpack_f+0x42>
    34f8:	82 e0       	ldi	r24, 0x02	; 2
    34fa:	37 c0       	rjmp	.+110    	; 0x356a <__unpack_f+0xb0>
    34fc:	82 e8       	ldi	r24, 0x82	; 130
    34fe:	9f ef       	ldi	r25, 0xFF	; 255
    3500:	13 96       	adiw	r26, 0x03	; 3
    3502:	9c 93       	st	X, r25
    3504:	8e 93       	st	-X, r24
    3506:	12 97       	sbiw	r26, 0x02	; 2
    3508:	9a 01       	movw	r18, r20
    350a:	ab 01       	movw	r20, r22
    350c:	67 e0       	ldi	r22, 0x07	; 7
    350e:	22 0f       	add	r18, r18
    3510:	33 1f       	adc	r19, r19
    3512:	44 1f       	adc	r20, r20
    3514:	55 1f       	adc	r21, r21
    3516:	6a 95       	dec	r22
    3518:	d1 f7       	brne	.-12     	; 0x350e <__unpack_f+0x54>
    351a:	83 e0       	ldi	r24, 0x03	; 3
    351c:	8c 93       	st	X, r24
    351e:	0d c0       	rjmp	.+26     	; 0x353a <__unpack_f+0x80>
    3520:	22 0f       	add	r18, r18
    3522:	33 1f       	adc	r19, r19
    3524:	44 1f       	adc	r20, r20
    3526:	55 1f       	adc	r21, r21
    3528:	12 96       	adiw	r26, 0x02	; 2
    352a:	8d 91       	ld	r24, X+
    352c:	9c 91       	ld	r25, X
    352e:	13 97       	sbiw	r26, 0x03	; 3
    3530:	01 97       	sbiw	r24, 0x01	; 1
    3532:	13 96       	adiw	r26, 0x03	; 3
    3534:	9c 93       	st	X, r25
    3536:	8e 93       	st	-X, r24
    3538:	12 97       	sbiw	r26, 0x02	; 2
    353a:	20 30       	cpi	r18, 0x00	; 0
    353c:	80 e0       	ldi	r24, 0x00	; 0
    353e:	38 07       	cpc	r19, r24
    3540:	80 e0       	ldi	r24, 0x00	; 0
    3542:	48 07       	cpc	r20, r24
    3544:	80 e4       	ldi	r24, 0x40	; 64
    3546:	58 07       	cpc	r21, r24
    3548:	58 f3       	brcs	.-42     	; 0x3520 <__unpack_f+0x66>
    354a:	14 96       	adiw	r26, 0x04	; 4
    354c:	2d 93       	st	X+, r18
    354e:	3d 93       	st	X+, r19
    3550:	4d 93       	st	X+, r20
    3552:	5c 93       	st	X, r21
    3554:	17 97       	sbiw	r26, 0x07	; 7
    3556:	08 95       	ret
    3558:	2f 3f       	cpi	r18, 0xFF	; 255
    355a:	31 05       	cpc	r19, r1
    355c:	79 f4       	brne	.+30     	; 0x357c <__unpack_f+0xc2>
    355e:	41 15       	cp	r20, r1
    3560:	51 05       	cpc	r21, r1
    3562:	61 05       	cpc	r22, r1
    3564:	71 05       	cpc	r23, r1
    3566:	19 f4       	brne	.+6      	; 0x356e <__unpack_f+0xb4>
    3568:	84 e0       	ldi	r24, 0x04	; 4
    356a:	8c 93       	st	X, r24
    356c:	08 95       	ret
    356e:	64 ff       	sbrs	r22, 4
    3570:	03 c0       	rjmp	.+6      	; 0x3578 <__unpack_f+0xbe>
    3572:	81 e0       	ldi	r24, 0x01	; 1
    3574:	8c 93       	st	X, r24
    3576:	12 c0       	rjmp	.+36     	; 0x359c <__unpack_f+0xe2>
    3578:	1c 92       	st	X, r1
    357a:	10 c0       	rjmp	.+32     	; 0x359c <__unpack_f+0xe2>
    357c:	2f 57       	subi	r18, 0x7F	; 127
    357e:	30 40       	sbci	r19, 0x00	; 0
    3580:	13 96       	adiw	r26, 0x03	; 3
    3582:	3c 93       	st	X, r19
    3584:	2e 93       	st	-X, r18
    3586:	12 97       	sbiw	r26, 0x02	; 2
    3588:	83 e0       	ldi	r24, 0x03	; 3
    358a:	8c 93       	st	X, r24
    358c:	87 e0       	ldi	r24, 0x07	; 7
    358e:	44 0f       	add	r20, r20
    3590:	55 1f       	adc	r21, r21
    3592:	66 1f       	adc	r22, r22
    3594:	77 1f       	adc	r23, r23
    3596:	8a 95       	dec	r24
    3598:	d1 f7       	brne	.-12     	; 0x358e <__unpack_f+0xd4>
    359a:	70 64       	ori	r23, 0x40	; 64
    359c:	14 96       	adiw	r26, 0x04	; 4
    359e:	4d 93       	st	X+, r20
    35a0:	5d 93       	st	X+, r21
    35a2:	6d 93       	st	X+, r22
    35a4:	7c 93       	st	X, r23
    35a6:	17 97       	sbiw	r26, 0x07	; 7
    35a8:	08 95       	ret

000035aa <__fpcmp_parts_f>:
    35aa:	1f 93       	push	r17
    35ac:	dc 01       	movw	r26, r24
    35ae:	fb 01       	movw	r30, r22
    35b0:	9c 91       	ld	r25, X
    35b2:	92 30       	cpi	r25, 0x02	; 2
    35b4:	08 f4       	brcc	.+2      	; 0x35b8 <__fpcmp_parts_f+0xe>
    35b6:	47 c0       	rjmp	.+142    	; 0x3646 <__fpcmp_parts_f+0x9c>
    35b8:	80 81       	ld	r24, Z
    35ba:	82 30       	cpi	r24, 0x02	; 2
    35bc:	08 f4       	brcc	.+2      	; 0x35c0 <__fpcmp_parts_f+0x16>
    35be:	43 c0       	rjmp	.+134    	; 0x3646 <__fpcmp_parts_f+0x9c>
    35c0:	94 30       	cpi	r25, 0x04	; 4
    35c2:	51 f4       	brne	.+20     	; 0x35d8 <__fpcmp_parts_f+0x2e>
    35c4:	11 96       	adiw	r26, 0x01	; 1
    35c6:	1c 91       	ld	r17, X
    35c8:	84 30       	cpi	r24, 0x04	; 4
    35ca:	99 f5       	brne	.+102    	; 0x3632 <__fpcmp_parts_f+0x88>
    35cc:	81 81       	ldd	r24, Z+1	; 0x01
    35ce:	68 2f       	mov	r22, r24
    35d0:	70 e0       	ldi	r23, 0x00	; 0
    35d2:	61 1b       	sub	r22, r17
    35d4:	71 09       	sbc	r23, r1
    35d6:	3f c0       	rjmp	.+126    	; 0x3656 <__fpcmp_parts_f+0xac>
    35d8:	84 30       	cpi	r24, 0x04	; 4
    35da:	21 f0       	breq	.+8      	; 0x35e4 <__fpcmp_parts_f+0x3a>
    35dc:	92 30       	cpi	r25, 0x02	; 2
    35de:	31 f4       	brne	.+12     	; 0x35ec <__fpcmp_parts_f+0x42>
    35e0:	82 30       	cpi	r24, 0x02	; 2
    35e2:	b9 f1       	breq	.+110    	; 0x3652 <__fpcmp_parts_f+0xa8>
    35e4:	81 81       	ldd	r24, Z+1	; 0x01
    35e6:	88 23       	and	r24, r24
    35e8:	89 f1       	breq	.+98     	; 0x364c <__fpcmp_parts_f+0xa2>
    35ea:	2d c0       	rjmp	.+90     	; 0x3646 <__fpcmp_parts_f+0x9c>
    35ec:	11 96       	adiw	r26, 0x01	; 1
    35ee:	1c 91       	ld	r17, X
    35f0:	11 97       	sbiw	r26, 0x01	; 1
    35f2:	82 30       	cpi	r24, 0x02	; 2
    35f4:	f1 f0       	breq	.+60     	; 0x3632 <__fpcmp_parts_f+0x88>
    35f6:	81 81       	ldd	r24, Z+1	; 0x01
    35f8:	18 17       	cp	r17, r24
    35fa:	d9 f4       	brne	.+54     	; 0x3632 <__fpcmp_parts_f+0x88>
    35fc:	12 96       	adiw	r26, 0x02	; 2
    35fe:	2d 91       	ld	r18, X+
    3600:	3c 91       	ld	r19, X
    3602:	13 97       	sbiw	r26, 0x03	; 3
    3604:	82 81       	ldd	r24, Z+2	; 0x02
    3606:	93 81       	ldd	r25, Z+3	; 0x03
    3608:	82 17       	cp	r24, r18
    360a:	93 07       	cpc	r25, r19
    360c:	94 f0       	brlt	.+36     	; 0x3632 <__fpcmp_parts_f+0x88>
    360e:	28 17       	cp	r18, r24
    3610:	39 07       	cpc	r19, r25
    3612:	bc f0       	brlt	.+46     	; 0x3642 <__fpcmp_parts_f+0x98>
    3614:	14 96       	adiw	r26, 0x04	; 4
    3616:	8d 91       	ld	r24, X+
    3618:	9d 91       	ld	r25, X+
    361a:	0d 90       	ld	r0, X+
    361c:	bc 91       	ld	r27, X
    361e:	a0 2d       	mov	r26, r0
    3620:	24 81       	ldd	r18, Z+4	; 0x04
    3622:	35 81       	ldd	r19, Z+5	; 0x05
    3624:	46 81       	ldd	r20, Z+6	; 0x06
    3626:	57 81       	ldd	r21, Z+7	; 0x07
    3628:	28 17       	cp	r18, r24
    362a:	39 07       	cpc	r19, r25
    362c:	4a 07       	cpc	r20, r26
    362e:	5b 07       	cpc	r21, r27
    3630:	18 f4       	brcc	.+6      	; 0x3638 <__fpcmp_parts_f+0x8e>
    3632:	11 23       	and	r17, r17
    3634:	41 f0       	breq	.+16     	; 0x3646 <__fpcmp_parts_f+0x9c>
    3636:	0a c0       	rjmp	.+20     	; 0x364c <__fpcmp_parts_f+0xa2>
    3638:	82 17       	cp	r24, r18
    363a:	93 07       	cpc	r25, r19
    363c:	a4 07       	cpc	r26, r20
    363e:	b5 07       	cpc	r27, r21
    3640:	40 f4       	brcc	.+16     	; 0x3652 <__fpcmp_parts_f+0xa8>
    3642:	11 23       	and	r17, r17
    3644:	19 f0       	breq	.+6      	; 0x364c <__fpcmp_parts_f+0xa2>
    3646:	61 e0       	ldi	r22, 0x01	; 1
    3648:	70 e0       	ldi	r23, 0x00	; 0
    364a:	05 c0       	rjmp	.+10     	; 0x3656 <__fpcmp_parts_f+0xac>
    364c:	6f ef       	ldi	r22, 0xFF	; 255
    364e:	7f ef       	ldi	r23, 0xFF	; 255
    3650:	02 c0       	rjmp	.+4      	; 0x3656 <__fpcmp_parts_f+0xac>
    3652:	60 e0       	ldi	r22, 0x00	; 0
    3654:	70 e0       	ldi	r23, 0x00	; 0
    3656:	cb 01       	movw	r24, r22
    3658:	1f 91       	pop	r17
    365a:	08 95       	ret

0000365c <__mulsi3>:
    365c:	62 9f       	mul	r22, r18
    365e:	d0 01       	movw	r26, r0
    3660:	73 9f       	mul	r23, r19
    3662:	f0 01       	movw	r30, r0
    3664:	82 9f       	mul	r24, r18
    3666:	e0 0d       	add	r30, r0
    3668:	f1 1d       	adc	r31, r1
    366a:	64 9f       	mul	r22, r20
    366c:	e0 0d       	add	r30, r0
    366e:	f1 1d       	adc	r31, r1
    3670:	92 9f       	mul	r25, r18
    3672:	f0 0d       	add	r31, r0
    3674:	83 9f       	mul	r24, r19
    3676:	f0 0d       	add	r31, r0
    3678:	74 9f       	mul	r23, r20
    367a:	f0 0d       	add	r31, r0
    367c:	65 9f       	mul	r22, r21
    367e:	f0 0d       	add	r31, r0
    3680:	99 27       	eor	r25, r25
    3682:	72 9f       	mul	r23, r18
    3684:	b0 0d       	add	r27, r0
    3686:	e1 1d       	adc	r30, r1
    3688:	f9 1f       	adc	r31, r25
    368a:	63 9f       	mul	r22, r19
    368c:	b0 0d       	add	r27, r0
    368e:	e1 1d       	adc	r30, r1
    3690:	f9 1f       	adc	r31, r25
    3692:	bd 01       	movw	r22, r26
    3694:	cf 01       	movw	r24, r30
    3696:	11 24       	eor	r1, r1
    3698:	08 95       	ret

0000369a <__udivmodhi4>:
    369a:	aa 1b       	sub	r26, r26
    369c:	bb 1b       	sub	r27, r27
    369e:	51 e1       	ldi	r21, 0x11	; 17
    36a0:	07 c0       	rjmp	.+14     	; 0x36b0 <__udivmodhi4_ep>

000036a2 <__udivmodhi4_loop>:
    36a2:	aa 1f       	adc	r26, r26
    36a4:	bb 1f       	adc	r27, r27
    36a6:	a6 17       	cp	r26, r22
    36a8:	b7 07       	cpc	r27, r23
    36aa:	10 f0       	brcs	.+4      	; 0x36b0 <__udivmodhi4_ep>
    36ac:	a6 1b       	sub	r26, r22
    36ae:	b7 0b       	sbc	r27, r23

000036b0 <__udivmodhi4_ep>:
    36b0:	88 1f       	adc	r24, r24
    36b2:	99 1f       	adc	r25, r25
    36b4:	5a 95       	dec	r21
    36b6:	a9 f7       	brne	.-22     	; 0x36a2 <__udivmodhi4_loop>
    36b8:	80 95       	com	r24
    36ba:	90 95       	com	r25
    36bc:	bc 01       	movw	r22, r24
    36be:	cd 01       	movw	r24, r26
    36c0:	08 95       	ret

000036c2 <__udivmodsi4>:
    36c2:	a1 e2       	ldi	r26, 0x21	; 33
    36c4:	1a 2e       	mov	r1, r26
    36c6:	aa 1b       	sub	r26, r26
    36c8:	bb 1b       	sub	r27, r27
    36ca:	fd 01       	movw	r30, r26
    36cc:	0d c0       	rjmp	.+26     	; 0x36e8 <__udivmodsi4_ep>

000036ce <__udivmodsi4_loop>:
    36ce:	aa 1f       	adc	r26, r26
    36d0:	bb 1f       	adc	r27, r27
    36d2:	ee 1f       	adc	r30, r30
    36d4:	ff 1f       	adc	r31, r31
    36d6:	a2 17       	cp	r26, r18
    36d8:	b3 07       	cpc	r27, r19
    36da:	e4 07       	cpc	r30, r20
    36dc:	f5 07       	cpc	r31, r21
    36de:	20 f0       	brcs	.+8      	; 0x36e8 <__udivmodsi4_ep>
    36e0:	a2 1b       	sub	r26, r18
    36e2:	b3 0b       	sbc	r27, r19
    36e4:	e4 0b       	sbc	r30, r20
    36e6:	f5 0b       	sbc	r31, r21

000036e8 <__udivmodsi4_ep>:
    36e8:	66 1f       	adc	r22, r22
    36ea:	77 1f       	adc	r23, r23
    36ec:	88 1f       	adc	r24, r24
    36ee:	99 1f       	adc	r25, r25
    36f0:	1a 94       	dec	r1
    36f2:	69 f7       	brne	.-38     	; 0x36ce <__udivmodsi4_loop>
    36f4:	60 95       	com	r22
    36f6:	70 95       	com	r23
    36f8:	80 95       	com	r24
    36fa:	90 95       	com	r25
    36fc:	9b 01       	movw	r18, r22
    36fe:	ac 01       	movw	r20, r24
    3700:	bd 01       	movw	r22, r26
    3702:	cf 01       	movw	r24, r30
    3704:	08 95       	ret

00003706 <__prologue_saves__>:
    3706:	2f 92       	push	r2
    3708:	3f 92       	push	r3
    370a:	4f 92       	push	r4
    370c:	5f 92       	push	r5
    370e:	6f 92       	push	r6
    3710:	7f 92       	push	r7
    3712:	8f 92       	push	r8
    3714:	9f 92       	push	r9
    3716:	af 92       	push	r10
    3718:	bf 92       	push	r11
    371a:	cf 92       	push	r12
    371c:	df 92       	push	r13
    371e:	ef 92       	push	r14
    3720:	ff 92       	push	r15
    3722:	0f 93       	push	r16
    3724:	1f 93       	push	r17
    3726:	cf 93       	push	r28
    3728:	df 93       	push	r29
    372a:	cd b7       	in	r28, 0x3d	; 61
    372c:	de b7       	in	r29, 0x3e	; 62
    372e:	ca 1b       	sub	r28, r26
    3730:	db 0b       	sbc	r29, r27
    3732:	0f b6       	in	r0, 0x3f	; 63
    3734:	f8 94       	cli
    3736:	de bf       	out	0x3e, r29	; 62
    3738:	0f be       	out	0x3f, r0	; 63
    373a:	cd bf       	out	0x3d, r28	; 61
    373c:	09 94       	ijmp

0000373e <__epilogue_restores__>:
    373e:	2a 88       	ldd	r2, Y+18	; 0x12
    3740:	39 88       	ldd	r3, Y+17	; 0x11
    3742:	48 88       	ldd	r4, Y+16	; 0x10
    3744:	5f 84       	ldd	r5, Y+15	; 0x0f
    3746:	6e 84       	ldd	r6, Y+14	; 0x0e
    3748:	7d 84       	ldd	r7, Y+13	; 0x0d
    374a:	8c 84       	ldd	r8, Y+12	; 0x0c
    374c:	9b 84       	ldd	r9, Y+11	; 0x0b
    374e:	aa 84       	ldd	r10, Y+10	; 0x0a
    3750:	b9 84       	ldd	r11, Y+9	; 0x09
    3752:	c8 84       	ldd	r12, Y+8	; 0x08
    3754:	df 80       	ldd	r13, Y+7	; 0x07
    3756:	ee 80       	ldd	r14, Y+6	; 0x06
    3758:	fd 80       	ldd	r15, Y+5	; 0x05
    375a:	0c 81       	ldd	r16, Y+4	; 0x04
    375c:	1b 81       	ldd	r17, Y+3	; 0x03
    375e:	aa 81       	ldd	r26, Y+2	; 0x02
    3760:	b9 81       	ldd	r27, Y+1	; 0x01
    3762:	ce 0f       	add	r28, r30
    3764:	d1 1d       	adc	r29, r1
    3766:	0f b6       	in	r0, 0x3f	; 63
    3768:	f8 94       	cli
    376a:	de bf       	out	0x3e, r29	; 62
    376c:	0f be       	out	0x3f, r0	; 63
    376e:	cd bf       	out	0x3d, r28	; 61
    3770:	ed 01       	movw	r28, r26
    3772:	08 95       	ret

00003774 <malloc>:
    3774:	cf 93       	push	r28
    3776:	df 93       	push	r29
    3778:	bc 01       	movw	r22, r24
    377a:	82 30       	cpi	r24, 0x02	; 2
    377c:	91 05       	cpc	r25, r1
    377e:	10 f4       	brcc	.+4      	; 0x3784 <malloc+0x10>
    3780:	62 e0       	ldi	r22, 0x02	; 2
    3782:	70 e0       	ldi	r23, 0x00	; 0
    3784:	a0 91 07 0e 	lds	r26, 0x0E07
    3788:	b0 91 08 0e 	lds	r27, 0x0E08
    378c:	ed 01       	movw	r28, r26
    378e:	e0 e0       	ldi	r30, 0x00	; 0
    3790:	f0 e0       	ldi	r31, 0x00	; 0
    3792:	40 e0       	ldi	r20, 0x00	; 0
    3794:	50 e0       	ldi	r21, 0x00	; 0
    3796:	21 c0       	rjmp	.+66     	; 0x37da <malloc+0x66>
    3798:	88 81       	ld	r24, Y
    379a:	99 81       	ldd	r25, Y+1	; 0x01
    379c:	86 17       	cp	r24, r22
    379e:	97 07       	cpc	r25, r23
    37a0:	69 f4       	brne	.+26     	; 0x37bc <malloc+0x48>
    37a2:	8a 81       	ldd	r24, Y+2	; 0x02
    37a4:	9b 81       	ldd	r25, Y+3	; 0x03
    37a6:	30 97       	sbiw	r30, 0x00	; 0
    37a8:	19 f0       	breq	.+6      	; 0x37b0 <malloc+0x3c>
    37aa:	93 83       	std	Z+3, r25	; 0x03
    37ac:	82 83       	std	Z+2, r24	; 0x02
    37ae:	04 c0       	rjmp	.+8      	; 0x37b8 <malloc+0x44>
    37b0:	90 93 08 0e 	sts	0x0E08, r25
    37b4:	80 93 07 0e 	sts	0x0E07, r24
    37b8:	fe 01       	movw	r30, r28
    37ba:	34 c0       	rjmp	.+104    	; 0x3824 <malloc+0xb0>
    37bc:	68 17       	cp	r22, r24
    37be:	79 07       	cpc	r23, r25
    37c0:	38 f4       	brcc	.+14     	; 0x37d0 <malloc+0x5c>
    37c2:	41 15       	cp	r20, r1
    37c4:	51 05       	cpc	r21, r1
    37c6:	19 f0       	breq	.+6      	; 0x37ce <malloc+0x5a>
    37c8:	84 17       	cp	r24, r20
    37ca:	95 07       	cpc	r25, r21
    37cc:	08 f4       	brcc	.+2      	; 0x37d0 <malloc+0x5c>
    37ce:	ac 01       	movw	r20, r24
    37d0:	fe 01       	movw	r30, r28
    37d2:	8a 81       	ldd	r24, Y+2	; 0x02
    37d4:	9b 81       	ldd	r25, Y+3	; 0x03
    37d6:	9c 01       	movw	r18, r24
    37d8:	e9 01       	movw	r28, r18
    37da:	20 97       	sbiw	r28, 0x00	; 0
    37dc:	e9 f6       	brne	.-70     	; 0x3798 <malloc+0x24>
    37de:	41 15       	cp	r20, r1
    37e0:	51 05       	cpc	r21, r1
    37e2:	a9 f1       	breq	.+106    	; 0x384e <malloc+0xda>
    37e4:	ca 01       	movw	r24, r20
    37e6:	86 1b       	sub	r24, r22
    37e8:	97 0b       	sbc	r25, r23
    37ea:	04 97       	sbiw	r24, 0x04	; 4
    37ec:	08 f4       	brcc	.+2      	; 0x37f0 <malloc+0x7c>
    37ee:	ba 01       	movw	r22, r20
    37f0:	e0 e0       	ldi	r30, 0x00	; 0
    37f2:	f0 e0       	ldi	r31, 0x00	; 0
    37f4:	2a c0       	rjmp	.+84     	; 0x384a <malloc+0xd6>
    37f6:	8d 91       	ld	r24, X+
    37f8:	9c 91       	ld	r25, X
    37fa:	11 97       	sbiw	r26, 0x01	; 1
    37fc:	84 17       	cp	r24, r20
    37fe:	95 07       	cpc	r25, r21
    3800:	f9 f4       	brne	.+62     	; 0x3840 <malloc+0xcc>
    3802:	64 17       	cp	r22, r20
    3804:	75 07       	cpc	r23, r21
    3806:	81 f4       	brne	.+32     	; 0x3828 <malloc+0xb4>
    3808:	12 96       	adiw	r26, 0x02	; 2
    380a:	8d 91       	ld	r24, X+
    380c:	9c 91       	ld	r25, X
    380e:	13 97       	sbiw	r26, 0x03	; 3
    3810:	30 97       	sbiw	r30, 0x00	; 0
    3812:	19 f0       	breq	.+6      	; 0x381a <malloc+0xa6>
    3814:	93 83       	std	Z+3, r25	; 0x03
    3816:	82 83       	std	Z+2, r24	; 0x02
    3818:	04 c0       	rjmp	.+8      	; 0x3822 <malloc+0xae>
    381a:	90 93 08 0e 	sts	0x0E08, r25
    381e:	80 93 07 0e 	sts	0x0E07, r24
    3822:	fd 01       	movw	r30, r26
    3824:	32 96       	adiw	r30, 0x02	; 2
    3826:	4f c0       	rjmp	.+158    	; 0x38c6 <malloc+0x152>
    3828:	ca 01       	movw	r24, r20
    382a:	86 1b       	sub	r24, r22
    382c:	97 0b       	sbc	r25, r23
    382e:	fd 01       	movw	r30, r26
    3830:	e8 0f       	add	r30, r24
    3832:	f9 1f       	adc	r31, r25
    3834:	61 93       	st	Z+, r22
    3836:	71 93       	st	Z+, r23
    3838:	02 97       	sbiw	r24, 0x02	; 2
    383a:	8d 93       	st	X+, r24
    383c:	9c 93       	st	X, r25
    383e:	43 c0       	rjmp	.+134    	; 0x38c6 <malloc+0x152>
    3840:	fd 01       	movw	r30, r26
    3842:	82 81       	ldd	r24, Z+2	; 0x02
    3844:	93 81       	ldd	r25, Z+3	; 0x03
    3846:	9c 01       	movw	r18, r24
    3848:	d9 01       	movw	r26, r18
    384a:	10 97       	sbiw	r26, 0x00	; 0
    384c:	a1 f6       	brne	.-88     	; 0x37f6 <malloc+0x82>
    384e:	80 91 05 0e 	lds	r24, 0x0E05
    3852:	90 91 06 0e 	lds	r25, 0x0E06
    3856:	89 2b       	or	r24, r25
    3858:	41 f4       	brne	.+16     	; 0x386a <malloc+0xf6>
    385a:	80 91 b9 0d 	lds	r24, 0x0DB9
    385e:	90 91 ba 0d 	lds	r25, 0x0DBA
    3862:	90 93 06 0e 	sts	0x0E06, r25
    3866:	80 93 05 0e 	sts	0x0E05, r24
    386a:	40 91 bb 0d 	lds	r20, 0x0DBB
    386e:	50 91 bc 0d 	lds	r21, 0x0DBC
    3872:	41 15       	cp	r20, r1
    3874:	51 05       	cpc	r21, r1
    3876:	41 f4       	brne	.+16     	; 0x3888 <malloc+0x114>
    3878:	4d b7       	in	r20, 0x3d	; 61
    387a:	5e b7       	in	r21, 0x3e	; 62
    387c:	80 91 b7 0d 	lds	r24, 0x0DB7
    3880:	90 91 b8 0d 	lds	r25, 0x0DB8
    3884:	48 1b       	sub	r20, r24
    3886:	59 0b       	sbc	r21, r25
    3888:	20 91 05 0e 	lds	r18, 0x0E05
    388c:	30 91 06 0e 	lds	r19, 0x0E06
    3890:	24 17       	cp	r18, r20
    3892:	35 07       	cpc	r19, r21
    3894:	b0 f4       	brcc	.+44     	; 0x38c2 <malloc+0x14e>
    3896:	ca 01       	movw	r24, r20
    3898:	82 1b       	sub	r24, r18
    389a:	93 0b       	sbc	r25, r19
    389c:	86 17       	cp	r24, r22
    389e:	97 07       	cpc	r25, r23
    38a0:	80 f0       	brcs	.+32     	; 0x38c2 <malloc+0x14e>
    38a2:	ab 01       	movw	r20, r22
    38a4:	4e 5f       	subi	r20, 0xFE	; 254
    38a6:	5f 4f       	sbci	r21, 0xFF	; 255
    38a8:	84 17       	cp	r24, r20
    38aa:	95 07       	cpc	r25, r21
    38ac:	50 f0       	brcs	.+20     	; 0x38c2 <malloc+0x14e>
    38ae:	42 0f       	add	r20, r18
    38b0:	53 1f       	adc	r21, r19
    38b2:	50 93 06 0e 	sts	0x0E06, r21
    38b6:	40 93 05 0e 	sts	0x0E05, r20
    38ba:	f9 01       	movw	r30, r18
    38bc:	61 93       	st	Z+, r22
    38be:	71 93       	st	Z+, r23
    38c0:	02 c0       	rjmp	.+4      	; 0x38c6 <malloc+0x152>
    38c2:	e0 e0       	ldi	r30, 0x00	; 0
    38c4:	f0 e0       	ldi	r31, 0x00	; 0
    38c6:	cf 01       	movw	r24, r30
    38c8:	df 91       	pop	r29
    38ca:	cf 91       	pop	r28
    38cc:	08 95       	ret

000038ce <free>:
    38ce:	cf 93       	push	r28
    38d0:	df 93       	push	r29
    38d2:	00 97       	sbiw	r24, 0x00	; 0
    38d4:	09 f4       	brne	.+2      	; 0x38d8 <free+0xa>
    38d6:	50 c0       	rjmp	.+160    	; 0x3978 <free+0xaa>
    38d8:	ec 01       	movw	r28, r24
    38da:	22 97       	sbiw	r28, 0x02	; 2
    38dc:	1b 82       	std	Y+3, r1	; 0x03
    38de:	1a 82       	std	Y+2, r1	; 0x02
    38e0:	a0 91 07 0e 	lds	r26, 0x0E07
    38e4:	b0 91 08 0e 	lds	r27, 0x0E08
    38e8:	10 97       	sbiw	r26, 0x00	; 0
    38ea:	09 f1       	breq	.+66     	; 0x392e <free+0x60>
    38ec:	40 e0       	ldi	r20, 0x00	; 0
    38ee:	50 e0       	ldi	r21, 0x00	; 0
    38f0:	ac 17       	cp	r26, r28
    38f2:	bd 07       	cpc	r27, r29
    38f4:	08 f1       	brcs	.+66     	; 0x3938 <free+0x6a>
    38f6:	bb 83       	std	Y+3, r27	; 0x03
    38f8:	aa 83       	std	Y+2, r26	; 0x02
    38fa:	fe 01       	movw	r30, r28
    38fc:	21 91       	ld	r18, Z+
    38fe:	31 91       	ld	r19, Z+
    3900:	e2 0f       	add	r30, r18
    3902:	f3 1f       	adc	r31, r19
    3904:	ae 17       	cp	r26, r30
    3906:	bf 07       	cpc	r27, r31
    3908:	79 f4       	brne	.+30     	; 0x3928 <free+0x5a>
    390a:	8d 91       	ld	r24, X+
    390c:	9c 91       	ld	r25, X
    390e:	11 97       	sbiw	r26, 0x01	; 1
    3910:	28 0f       	add	r18, r24
    3912:	39 1f       	adc	r19, r25
    3914:	2e 5f       	subi	r18, 0xFE	; 254
    3916:	3f 4f       	sbci	r19, 0xFF	; 255
    3918:	39 83       	std	Y+1, r19	; 0x01
    391a:	28 83       	st	Y, r18
    391c:	12 96       	adiw	r26, 0x02	; 2
    391e:	8d 91       	ld	r24, X+
    3920:	9c 91       	ld	r25, X
    3922:	13 97       	sbiw	r26, 0x03	; 3
    3924:	9b 83       	std	Y+3, r25	; 0x03
    3926:	8a 83       	std	Y+2, r24	; 0x02
    3928:	41 15       	cp	r20, r1
    392a:	51 05       	cpc	r21, r1
    392c:	71 f4       	brne	.+28     	; 0x394a <free+0x7c>
    392e:	d0 93 08 0e 	sts	0x0E08, r29
    3932:	c0 93 07 0e 	sts	0x0E07, r28
    3936:	20 c0       	rjmp	.+64     	; 0x3978 <free+0xaa>
    3938:	12 96       	adiw	r26, 0x02	; 2
    393a:	8d 91       	ld	r24, X+
    393c:	9c 91       	ld	r25, X
    393e:	13 97       	sbiw	r26, 0x03	; 3
    3940:	ad 01       	movw	r20, r26
    3942:	00 97       	sbiw	r24, 0x00	; 0
    3944:	11 f0       	breq	.+4      	; 0x394a <free+0x7c>
    3946:	dc 01       	movw	r26, r24
    3948:	d3 cf       	rjmp	.-90     	; 0x38f0 <free+0x22>
    394a:	fa 01       	movw	r30, r20
    394c:	d3 83       	std	Z+3, r29	; 0x03
    394e:	c2 83       	std	Z+2, r28	; 0x02
    3950:	21 91       	ld	r18, Z+
    3952:	31 91       	ld	r19, Z+
    3954:	e2 0f       	add	r30, r18
    3956:	f3 1f       	adc	r31, r19
    3958:	ce 17       	cp	r28, r30
    395a:	df 07       	cpc	r29, r31
    395c:	69 f4       	brne	.+26     	; 0x3978 <free+0xaa>
    395e:	88 81       	ld	r24, Y
    3960:	99 81       	ldd	r25, Y+1	; 0x01
    3962:	28 0f       	add	r18, r24
    3964:	39 1f       	adc	r19, r25
    3966:	2e 5f       	subi	r18, 0xFE	; 254
    3968:	3f 4f       	sbci	r19, 0xFF	; 255
    396a:	fa 01       	movw	r30, r20
    396c:	31 83       	std	Z+1, r19	; 0x01
    396e:	20 83       	st	Z, r18
    3970:	8a 81       	ldd	r24, Y+2	; 0x02
    3972:	9b 81       	ldd	r25, Y+3	; 0x03
    3974:	93 83       	std	Z+3, r25	; 0x03
    3976:	82 83       	std	Z+2, r24	; 0x02
    3978:	df 91       	pop	r29
    397a:	cf 91       	pop	r28
    397c:	08 95       	ret

0000397e <__eerd_byte_m128>:
    397e:	e1 99       	sbic	0x1c, 1	; 28
    3980:	fe cf       	rjmp	.-4      	; 0x397e <__eerd_byte_m128>
    3982:	9f bb       	out	0x1f, r25	; 31
    3984:	8e bb       	out	0x1e, r24	; 30
    3986:	e0 9a       	sbi	0x1c, 0	; 28
    3988:	99 27       	eor	r25, r25
    398a:	8d b3       	in	r24, 0x1d	; 29
    398c:	08 95       	ret

0000398e <__eewr_byte_m128>:
    398e:	26 2f       	mov	r18, r22

00003990 <__eewr_r18_m128>:
    3990:	e1 99       	sbic	0x1c, 1	; 28
    3992:	fe cf       	rjmp	.-4      	; 0x3990 <__eewr_r18_m128>
    3994:	9f bb       	out	0x1f, r25	; 31
    3996:	8e bb       	out	0x1e, r24	; 30
    3998:	2d bb       	out	0x1d, r18	; 29
    399a:	0f b6       	in	r0, 0x3f	; 63
    399c:	f8 94       	cli
    399e:	e2 9a       	sbi	0x1c, 2	; 28
    39a0:	e1 9a       	sbi	0x1c, 1	; 28
    39a2:	0f be       	out	0x3f, r0	; 63
    39a4:	01 96       	adiw	r24, 0x01	; 1
    39a6:	08 95       	ret

000039a8 <_exit>:
    39a8:	f8 94       	cli

000039aa <__stop_program>:
    39aa:	ff cf       	rjmp	.-2      	; 0x39aa <__stop_program>
