

HI-TECH Software PICC Macro Assembler V9.60
                                                      Thu Dec 13 10:04:37 2012


     1                           	processor	16F877A
     2                           	opt	pw 79
     3                           	psect	text2,local,class=CODE,delta=2
     4                           	psect	text6,local,class=CODE,delta=2
     5                           	psect	strings,global,class=STRING,delta=2
     6                           	psect	text10,local,class=CODE,delta=2
     7                           	psect	text12,local,class=CODE,delta=2
     8                           	psect	text13,local,class=CODE,delta=2
     9                           	psect	temp,global,ovrld,class=BANK0,space=1,de
      +                          lta=1
    10  0000                     
    11  0000                     
    12  0000                     
    13  0000                     
    14  0000                     
    15  0000                     
    16  0000                     
    17  0000                     
    18  0000                     
    19  0000                     
    20  0000                     _delayms$count	set	?_delayms
    21                           
    22                           	psect	text2
    23  086E                     _Write_Data
    24                           ;	_DH assigned to ?a_Write_Data+0
    25  0000                     _Write_Data$DH	set	?a_Write_Data
    26                           ;_DH stored from w
    27  086E  0183               	clrf	3	;select bank 0
    28  086F  00DA               	movwf	?a_Write_Data
    29                           ;NBCTFT.C: 70: void Write_Data(unsigned char DH
      +                          ,unsigned char DL)
    30  0870  1108               	bcf	8,2
    31                           ;NBCTFT.C: 73: RD5=1;
    32  0871  1688               	bsf	8,5
    33                           ;NBCTFT.C: 76: PORTB=DL;
    34  0872  0859               	movf	?_Write_Data,w
    35  0873  0086               	movwf	6	;volatile
    36                           ;NBCTFT.C: 77: RD0=1;
    37  0874  1408               	bsf	8,0
    38                           ;NBCTFT.C: 78: RD0=0;
    39  0875  1008               	bcf	8,0
    40                           ;NBCTFT.C: 80: PORTB=DH;
    41  0876  085A               	movf	?a_Write_Data,w
    42  0877  0086               	movwf	6	;volatile
    43                           ;NBCTFT.C: 88: RD4=0;
    44  0878  1208               	bcf	8,4
    45                           ;NBCTFT.C: 89: RD4=1;
    46  0879  1608               	bsf	8,4
    47                           ;NBCTFT.C: 90: RD2=1;
    48  087A  1508               	bsf	8,2
    49                           ;NBCTFT.C: 91: }
    50  087B  0008               	return	;W free
    51  087C                     _Write_Data_U16
    52                           ;	_n assigned to ?a_Write_Data_U16+0
    53  0000                     _Write_Data_U16$n	set	?a_Write_Data_U16
    54                           ;	_m assigned to ?a_Write_Data_U16+1
    55  0000                     _Write_Data_U16$m	set	?a_Write_Data_U16+1
    56                           ;NBCTFT.C: 97: void Write_Data_U16(unsigned int
      +                           y)
    57  087C  0183               	clrf	3	;select bank 0
    58  087D  084D               	movf	?_Write_Data_U16+1,w
    59  087E  00CF               	movwf	?a_Write_Data_U16+1
    60                           ;NBCTFT.C: 101: n=y;
    61  087F  084C               	movf	?_Write_Data_U16,w
    62  0880  00CE               	movwf	?a_Write_Data_U16
    63                           ;NBCTFT.C: 102: Write_Data(m,n);
    64  0881  00D9               	movwf	?_Write_Data
    65  0882  084F               	movf	?a_Write_Data_U16+1,w
    66  0883  286E               	ljmp	_Write_Data
    67  0884                     _Write_Cmd
    68                           ;	_DH assigned to ?a_Write_Cmd+0
    69  0000                     _Write_Cmd$DH	set	?a_Write_Cmd
    70                           ;_DH stored from w
    71  0884  0183               	clrf	3	;select bank 0
    72  0885  00DA               	movwf	?a_Write_Cmd
    73                           ;NBCTFT.C: 41: void Write_Cmd(unsigned char DH,
      +                          unsigned char DL)
    74  0886  1108               	bcf	8,2
    75                           ;NBCTFT.C: 44: RD5=0;
    76  0887  1288               	bcf	8,5
    77                           ;NBCTFT.C: 45: RD3=1;
    78  0888  1588               	bsf	8,3
    79                           ;NBCTFT.C: 46: RD4=0;
    80  0889  1208               	bcf	8,4
    81                           ;NBCTFT.C: 49: PORTB=DL;
    82  088A  0859               	movf	?_Write_Cmd,w
    83  088B  0086               	movwf	6	;volatile
    84                           ;NBCTFT.C: 50: RD0=1;
    85  088C  1408               	bsf	8,0
    86                           ;NBCTFT.C: 51: RD0=0;
    87  088D  1008               	bcf	8,0
    88                           ;NBCTFT.C: 53: PORTB=DH;
    89  088E  085A               	movf	?a_Write_Cmd,w
    90  088F  0086               	movwf	6	;volatile
    91                           ;NBCTFT.C: 61: RD4=1;
    92  0890  1608               	bsf	8,4
    93                           ;NBCTFT.C: 62: RD2=1;
    94  0891  1508               	bsf	8,2
    95                           ;NBCTFT.C: 63: }
    96  0892  0008               	return	;W free
    97  0893                     _Write_Cmd_Data
    98                           ;	_x assigned to ?a_Write_Cmd_Data+0
    99  0000                     _Write_Cmd_Data$x	set	?a_Write_Cmd_Data
   100                           ;	_n assigned to ?a_Write_Cmd_Data+1
   101  0000                     _Write_Cmd_Data$n	set	?a_Write_Cmd_Data+1
   102                           ;	_m assigned to ?a_Write_Cmd_Data+2
   103  0000                     _Write_Cmd_Data$m	set	?a_Write_Cmd_Data+2
   104                           ;_x stored from w
   105  0893  0183               	clrf	3	;select bank 0
   106  0894  00D6               	movwf	?a_Write_Cmd_Data
   107                           ;NBCTFT.C: 110: void Write_Cmd_Data (unsigned c
      +                          har x,unsigned int y)
   108  0895  0855               	movf	?_Write_Cmd_Data+1,w
   109  0896  00D8               	movwf	?a_Write_Cmd_Data+2
   110                           ;NBCTFT.C: 114: n=y;
   111  0897  0854               	movf	?_Write_Cmd_Data,w
   112  0898  00D7               	movwf	?a_Write_Cmd_Data+1
   113                           ;NBCTFT.C: 115: Write_Cmd(0x00,x);
   114  0899  0856               	movf	?a_Write_Cmd_Data,w
   115  089A  00D9               	movwf	?_Write_Cmd
   116  089B  3000               	movlw	0
   117  089C  2084               	fcall	_Write_Cmd
   118                           ;NBCTFT.C: 116: Write_Data(m,n);
   119  089D  0857               	movf	?a_Write_Cmd_Data+1,w
   120  089E  00D9               	movwf	?_Write_Data
   121  089F  0858               	movf	?a_Write_Cmd_Data+2,w
   122  08A0  286E               	ljmp	_Write_Data
   123  08A1                     _LCD_SetPos
   124                           ;NBCTFT.C: 125: void LCD_SetPos(unsigned int x0
      +                          ,unsigned int x1,unsigned int y0,unsigned int y
      +                          1)
   125  08A1  0183               	clrf	3	;select bank 0
   126  08A2  084C               	movf	?_LCD_SetPos,w
   127  08A3  00D4               	movwf	?_Write_Cmd_Data
   128  08A4  084D               	movf	?_LCD_SetPos+1,w
   129  08A5  00D5               	movwf	?_Write_Cmd_Data+1
   130  08A6  3050               	movlw	80
   131  08A7  2093  120A  158A   	fcall	_Write_Cmd_Data
   132                           ;NBCTFT.C: 129: Write_Cmd_Data(0x51,x1);
   133  08AA  084E               	movf	?_LCD_SetPos+2,w
   134  08AB  00D4               	movwf	?_Write_Cmd_Data
   135  08AC  084F               	movf	?_LCD_SetPos+3,w
   136  08AD  00D5               	movwf	?_Write_Cmd_Data+1
   137  08AE  3051               	movlw	81
   138  08AF  2093  120A  158A   	fcall	_Write_Cmd_Data
   139                           ;NBCTFT.C: 130: Write_Cmd_Data(0x52,y0);
   140  08B2  0850               	movf	?_LCD_SetPos+4,w
   141  08B3  00D4               	movwf	?_Write_Cmd_Data
   142  08B4  0851               	movf	?_LCD_SetPos+5,w
   143  08B5  00D5               	movwf	?_Write_Cmd_Data+1
   144  08B6  3052               	movlw	82
   145  08B7  2093  120A  158A   	fcall	_Write_Cmd_Data
   146                           ;NBCTFT.C: 131: Write_Cmd_Data(0x53,y1);
   147  08BA  0852               	movf	?_LCD_SetPos+6,w
   148  08BB  00D4               	movwf	?_Write_Cmd_Data
   149  08BC  0853               	movf	?_LCD_SetPos+7,w
   150  08BD  00D5               	movwf	?_Write_Cmd_Data+1
   151  08BE  3053               	movlw	83
   152  08BF  2093  120A  158A   	fcall	_Write_Cmd_Data
   153                           ;NBCTFT.C: 132: Write_Cmd_Data(0x20,x0);
   154  08C2  084C               	movf	?_LCD_SetPos,w
   155  08C3  00D4               	movwf	?_Write_Cmd_Data
   156  08C4  084D               	movf	?_LCD_SetPos+1,w
   157  08C5  00D5               	movwf	?_Write_Cmd_Data+1
   158  08C6  3020               	movlw	32
   159  08C7  2093  120A  158A   	fcall	_Write_Cmd_Data
   160                           ;NBCTFT.C: 133: Write_Cmd_Data(0x21,y0);
   161  08CA  0850               	movf	?_LCD_SetPos+4,w
   162  08CB  00D4               	movwf	?_Write_Cmd_Data
   163  08CC  0851               	movf	?_LCD_SetPos+5,w
   164  08CD  00D5               	movwf	?_Write_Cmd_Data+1
   165  08CE  3021               	movlw	33
   166  08CF  2093  120A  158A   	fcall	_Write_Cmd_Data
   167                           ;NBCTFT.C: 134: Write_Cmd (0x00,0x22);
   168  08D2  3022               	movlw	34
   169  08D3  00D9               	movwf	?_Write_Cmd
   170  08D4  3000               	movlw	0
   171  08D5  2884               	ljmp	_Write_Cmd
   172  08D6                     _delayms
   173                           ;	_i assigned to ?a_delayms+0
   174  0000                     _delayms$i	set	?a_delayms
   175                           ;	_j assigned to ?a_delayms+2
   176  0000                     _delayms$j	set	?a_delayms+2
   177                           ;NBCTFT.C: 27: void delayms(unsigned int count)
   178  08D6  0183               	clrf	3	;select bank 0
   179  08D7  01AC               	clrf	?a_delayms
   180  08D8  01AD               	clrf	?a_delayms+1
   181  08D9  28EC               	goto	l5
   182  08DA                     l2
   183                           ;NBCTFT.C: 31: {
   184  08DA  01AE               	clrf	?a_delayms+2
   185  08DB  01AF               	clrf	?a_delayms+3
   186  08DC                     l6
   187  08DC  0AAE               	incf	?a_delayms+2
   188  08DD  1903               	btfsc	3,2
   189  08DE  0AAF               	incf	?a_delayms+3
   190  08DF  082F               	movf	?a_delayms+3,w
   191  08E0  3A80               	xorlw	128
   192  08E1  00F4               	movwf	btemp
   193  08E2  3080               	movlw	128
   194  08E3  0274               	subwf	btemp,w
   195  08E4  30FF               	movlw	255
   196                           ;set	bank bits for (((?a_delayms+2)))
   197  08E5  1903               	btfsc	3,2
   198  08E6  022E               	subwf	?a_delayms+2,w
   199  08E7  1C03               	btfss	3,0
   200  08E8  28DC               	goto	l6
   201  08E9  0AAC               	incf	?a_delayms
   202  08EA  1903               	btfsc	3,2
   203  08EB  0AAD               	incf	?a_delayms+1
   204  08EC                     l5
   205  08EC  082B               	movf	?_delayms+1,w
   206  08ED  022D               	subwf	?a_delayms+1,w
   207  08EE  1D03               	btfss	3,2
   208  08EF  28F2               	goto	u25
   209  08F0  082A               	movf	?_delayms,w
   210  08F1  022C               	subwf	?a_delayms,w
   211  08F2                     u25
   212  08F2  1803               	btfsc	3,0
   213  08F3  0008               	return
   214  08F4  28DA               	goto	l2
   215  08F5                     _TFT_Initial
   216                           ;NBCTFT.C: 261: void TFT_Initial(void)
   217  08F5  0183               	clrf	3	;select bank 0
   218  08F6  1488               	bsf	8,1
   219                           ;NBCTFT.C: 265: delayms(1);
   220  08F7  01AA               	clrf	?_delayms
   221  08F8  0AAA               	incf	?_delayms
   222  08F9  01AB               	clrf	?_delayms+1
   223  08FA  20D6               	fcall	_delayms
   224                           ;NBCTFT.C: 266: RD1 = 0;
   225  08FB  1088               	bcf	8,1
   226                           ;NBCTFT.C: 267: delayms(10);
   227  08FC  300A               	movlw	10
   228  08FD  00AA               	movwf	?_delayms
   229  08FE  01AB               	clrf	?_delayms+1
   230  08FF  20D6               	fcall	_delayms
   231                           ;NBCTFT.C: 268: RD1 = 1;
   232  0900  1488               	bsf	8,1
   233                           ;NBCTFT.C: 269: delayms(50);
   234  0901  3032               	movlw	50
   235  0902  00AA               	movwf	?_delayms
   236  0903  01AB               	clrf	?_delayms+1
   237  0904  20D6               	fcall	_delayms
   238                           ;NBCTFT.C: 271: if(Device_code==0x9320)
   239  0905  0821               	movf	_Device_code+1,w
   240  0906  3A93               	xorlw	147
   241  0907  3020               	movlw	32
   242  0908  1903               	btfsc	3,2
   243  0909  0620               	xorwf	_Device_code,w
   244  090A  1D03               	btfss	3,2
   245  090B  2A5E               	goto	l60
   246                           ;NBCTFT.C: 272: {
   247  090C  01D4               	clrf	?_Write_Cmd_Data
   248  090D  0AD4               	incf	?_Write_Cmd_Data
   249  090E  01D5               	clrf	?_Write_Cmd_Data+1
   250  090F  3000               	movlw	0
   251  0910  2093  120A  158A   	fcall	_Write_Cmd_Data
   252                           ;NBCTFT.C: 276: Write_Cmd_Data(0x01,0x0100);
   253  0913  01D4               	clrf	?_Write_Cmd_Data
   254  0914  3001               	movlw	1
   255  0915  00D5               	movwf	?_Write_Cmd_Data+1
   256  0916  2093  120A  158A   	fcall	_Write_Cmd_Data
   257                           ;NBCTFT.C: 277: Write_Cmd_Data(0x02,0x0700);
   258  0919  01D4               	clrf	?_Write_Cmd_Data
   259  091A  3007               	movlw	7
   260  091B  00D5               	movwf	?_Write_Cmd_Data+1
   261  091C  3002               	movlw	2
   262  091D  2093  120A  158A   	fcall	_Write_Cmd_Data
   263                           ;NBCTFT.C: 278: Write_Cmd_Data(0x03,0x1030);
   264  0920  3030               	movlw	48
   265  0921  00D4               	movwf	?_Write_Cmd_Data
   266  0922  3010               	movlw	16
   267  0923  00D5               	movwf	?_Write_Cmd_Data+1
   268  0924  3003               	movlw	3
   269  0925  2093  120A  158A   	fcall	_Write_Cmd_Data
   270                           ;NBCTFT.C: 279: Write_Cmd_Data(0x04,0x0000);
   271  0928  01D4               	clrf	?_Write_Cmd_Data
   272  0929  01D5               	clrf	?_Write_Cmd_Data+1
   273  092A  3004               	movlw	4
   274  092B  2093  120A  158A   	fcall	_Write_Cmd_Data
   275                           ;NBCTFT.C: 280: Write_Cmd_Data(0x08,0x0202);
   276  092E  3002               	movlw	2
   277  092F  00D4               	movwf	?_Write_Cmd_Data
   278  0930  00D5               	movwf	?_Write_Cmd_Data+1
   279  0931  3008               	movlw	8
   280  0932  2093  120A  158A   	fcall	_Write_Cmd_Data
   281                           ;NBCTFT.C: 281: Write_Cmd_Data(0x09,0x0000);
   282  0935  01D4               	clrf	?_Write_Cmd_Data
   283  0936  01D5               	clrf	?_Write_Cmd_Data+1
   284  0937  3009               	movlw	9
   285  0938  2093  120A  158A   	fcall	_Write_Cmd_Data
   286                           ;NBCTFT.C: 282: Write_Cmd_Data(0x0A,0x0000);
   287  093B  01D4               	clrf	?_Write_Cmd_Data
   288  093C  01D5               	clrf	?_Write_Cmd_Data+1
   289  093D  300A               	movlw	10
   290  093E  2093  120A  158A   	fcall	_Write_Cmd_Data
   291                           ;NBCTFT.C: 283: Write_Cmd_Data(0x0C,0x0000);
   292  0941  01D4               	clrf	?_Write_Cmd_Data
   293  0942  01D5               	clrf	?_Write_Cmd_Data+1
   294  0943  300C               	movlw	12
   295  0944  2093  120A  158A   	fcall	_Write_Cmd_Data
   296                           ;NBCTFT.C: 284: Write_Cmd_Data(0x0D,0x0000);
   297  0947  01D4               	clrf	?_Write_Cmd_Data
   298  0948  01D5               	clrf	?_Write_Cmd_Data+1
   299  0949  300D               	movlw	13
   300  094A  2093  120A  158A   	fcall	_Write_Cmd_Data
   301                           ;NBCTFT.C: 285: Write_Cmd_Data(0x0F,0x0000);
   302  094D  01D4               	clrf	?_Write_Cmd_Data
   303  094E  01D5               	clrf	?_Write_Cmd_Data+1
   304  094F  300F               	movlw	15
   305  0950  2093  120A  158A   	fcall	_Write_Cmd_Data
   306                           ;NBCTFT.C: 286: delayms(30);
   307  0953  301E               	movlw	30
   308  0954  00AA               	movwf	?_delayms
   309  0955  01AB               	clrf	?_delayms+1
   310  0956  20D6               	fcall	_delayms
   311                           ;NBCTFT.C: 288: Write_Cmd_Data(0x10, 0x16b0);
   312  0957  30B0               	movlw	176
   313  0958  00D4               	movwf	?_Write_Cmd_Data
   314  0959  3016               	movlw	22
   315  095A  00D5               	movwf	?_Write_Cmd_Data+1
   316  095B  3010               	movlw	16
   317  095C  2093  120A  158A   	fcall	_Write_Cmd_Data
   318                           ;NBCTFT.C: 289: delayms(30);
   319  095F  301E               	movlw	30
   320  0960  00AA               	movwf	?_delayms
   321  0961  01AB               	clrf	?_delayms+1
   322  0962  20D6               	fcall	_delayms
   323                           ;NBCTFT.C: 290: Write_Cmd_Data(0x11, 0x0007);
   324  0963  3007               	movlw	7
   325  0964  00D4               	movwf	?_Write_Cmd_Data
   326  0965  01D5               	clrf	?_Write_Cmd_Data+1
   327  0966  3011               	movlw	17
   328  0967  2093  120A  158A   	fcall	_Write_Cmd_Data
   329                           ;NBCTFT.C: 291: Write_Cmd_Data(0x12, 0x013a);
   330  096A  303A               	movlw	58
   331  096B  00D4               	movwf	?_Write_Cmd_Data
   332  096C  3001               	movlw	1
   333  096D  00D5               	movwf	?_Write_Cmd_Data+1
   334  096E  3012               	movlw	18
   335  096F  2093  120A  158A   	fcall	_Write_Cmd_Data
   336                           ;NBCTFT.C: 292: Write_Cmd_Data(0x13, 0x1a00);
   337  0972  01D4               	clrf	?_Write_Cmd_Data
   338  0973  301A               	movlw	26
   339  0974  00D5               	movwf	?_Write_Cmd_Data+1
   340  0975  3013               	movlw	19
   341  0976  2093  120A  158A   	fcall	_Write_Cmd_Data
   342                           ;NBCTFT.C: 293: delayms(30);
   343  0979  301E               	movlw	30
   344  097A  00AA               	movwf	?_delayms
   345  097B  01AB               	clrf	?_delayms+1
   346  097C  20D6               	fcall	_delayms
   347                           ;NBCTFT.C: 294: Write_Cmd_Data(0x29, 0x000c);
   348  097D  300C               	movlw	12
   349  097E  00D4               	movwf	?_Write_Cmd_Data
   350  097F  01D5               	clrf	?_Write_Cmd_Data+1
   351  0980  3029               	movlw	41
   352  0981  2093  120A  158A   	fcall	_Write_Cmd_Data
   353                           ;NBCTFT.C: 295: delayms(30);
   354  0984  301E               	movlw	30
   355  0985  00AA               	movwf	?_delayms
   356  0986  01AB               	clrf	?_delayms+1
   357  0987  20D6               	fcall	_delayms
   358                           ;NBCTFT.C: 298: Write_Cmd_Data(0x0030, 0x0000);
   359  0988  01D4               	clrf	?_Write_Cmd_Data
   360  0989  01D5               	clrf	?_Write_Cmd_Data+1
   361  098A  3030               	movlw	48
   362  098B  2093  120A  158A   	fcall	_Write_Cmd_Data
   363                           ;NBCTFT.C: 299: Write_Cmd_Data(0x0031, 0x0505);
   364  098E  3005               	movlw	5
   365  098F  00D4               	movwf	?_Write_Cmd_Data
   366  0990  00D5               	movwf	?_Write_Cmd_Data+1
   367  0991  3031               	movlw	49
   368  0992  2093  120A  158A   	fcall	_Write_Cmd_Data
   369                           ;NBCTFT.C: 300: Write_Cmd_Data(0x0032, 0x0304);
   370  0995  3004               	movlw	4
   371  0996  00D4               	movwf	?_Write_Cmd_Data
   372  0997  3003               	movlw	3
   373  0998  00D5               	movwf	?_Write_Cmd_Data+1
   374  0999  3032               	movlw	50
   375  099A  2093  120A  158A   	fcall	_Write_Cmd_Data
   376                           ;NBCTFT.C: 301: Write_Cmd_Data(0x0035, 0x0006);
   377  099D  3006               	movlw	6
   378  099E  00D4               	movwf	?_Write_Cmd_Data
   379  099F  01D5               	clrf	?_Write_Cmd_Data+1
   380  09A0  3035               	movlw	53
   381  09A1  2093  120A  158A   	fcall	_Write_Cmd_Data
   382                           ;NBCTFT.C: 302: Write_Cmd_Data(0x0036, 0x0707);
   383  09A4  3007               	movlw	7
   384  09A5  00D4               	movwf	?_Write_Cmd_Data
   385  09A6  00D5               	movwf	?_Write_Cmd_Data+1
   386  09A7  3036               	movlw	54
   387  09A8  2093  120A  158A   	fcall	_Write_Cmd_Data
   388                           ;NBCTFT.C: 303: Write_Cmd_Data(0x0037, 0x0105);
   389  09AB  3005               	movlw	5
   390  09AC  00D4               	movwf	?_Write_Cmd_Data
   391  09AD  3001               	movlw	1
   392  09AE  00D5               	movwf	?_Write_Cmd_Data+1
   393  09AF  3037               	movlw	55
   394  09B0  2093  120A  158A   	fcall	_Write_Cmd_Data
   395                           ;NBCTFT.C: 304: Write_Cmd_Data(0x0038, 0x0002);
   396  09B3  3002               	movlw	2
   397  09B4  00D4               	movwf	?_Write_Cmd_Data
   398  09B5  01D5               	clrf	?_Write_Cmd_Data+1
   399  09B6  3038               	movlw	56
   400  09B7  2093  120A  158A   	fcall	_Write_Cmd_Data
   401                           ;NBCTFT.C: 305: Write_Cmd_Data(0x0039, 0x0707);
   402  09BA  3007               	movlw	7
   403  09BB  00D4               	movwf	?_Write_Cmd_Data
   404  09BC  00D5               	movwf	?_Write_Cmd_Data+1
   405  09BD  3039               	movlw	57
   406  09BE  2093  120A  158A   	fcall	_Write_Cmd_Data
   407                           ;NBCTFT.C: 306: Write_Cmd_Data(0x003C, 0x0704);
   408  09C1  3004               	movlw	4
   409  09C2  00D4               	movwf	?_Write_Cmd_Data
   410  09C3  3007               	movlw	7
   411  09C4  00D5               	movwf	?_Write_Cmd_Data+1
   412  09C5  303C               	movlw	60
   413  09C6  2093  120A  158A   	fcall	_Write_Cmd_Data
   414                           ;NBCTFT.C: 307: Write_Cmd_Data(0x003D, 0x0807);
   415  09C9  3007               	movlw	7
   416  09CA  00D4               	movwf	?_Write_Cmd_Data
   417  09CB  3008               	movlw	8
   418  09CC  00D5               	movwf	?_Write_Cmd_Data+1
   419  09CD  303D               	movlw	61
   420  09CE  2093  120A  158A   	fcall	_Write_Cmd_Data
   421                           ;NBCTFT.C: 310: Write_Cmd_Data(0x0050, 0x0000);
   422  09D1  01D4               	clrf	?_Write_Cmd_Data
   423  09D2  01D5               	clrf	?_Write_Cmd_Data+1
   424  09D3  3050               	movlw	80
   425  09D4  2093  120A  158A   	fcall	_Write_Cmd_Data
   426                           ;NBCTFT.C: 311: Write_Cmd_Data(0x0051, 0x00EF);
   427  09D7  30EF               	movlw	239
   428  09D8  00D4               	movwf	?_Write_Cmd_Data
   429  09D9  01D5               	clrf	?_Write_Cmd_Data+1
   430  09DA  3051               	movlw	81
   431  09DB  2093  120A  158A   	fcall	_Write_Cmd_Data
   432                           ;NBCTFT.C: 312: Write_Cmd_Data(0x0052, 0x0000);
   433  09DE  01D4               	clrf	?_Write_Cmd_Data
   434  09DF  01D5               	clrf	?_Write_Cmd_Data+1
   435  09E0  3052               	movlw	82
   436  09E1  2093  120A  158A   	fcall	_Write_Cmd_Data
   437                           ;NBCTFT.C: 313: Write_Cmd_Data(0x0053, 0x013F);
   438  09E4  303F               	movlw	63
   439  09E5  00D4               	movwf	?_Write_Cmd_Data
   440  09E6  3001               	movlw	1
   441  09E7  00D5               	movwf	?_Write_Cmd_Data+1
   442  09E8  3053               	movlw	83
   443  09E9  2093  120A  158A   	fcall	_Write_Cmd_Data
   444                           ;NBCTFT.C: 314: Write_Cmd_Data(0x0060, 0x2700);
   445  09EC  01D4               	clrf	?_Write_Cmd_Data
   446  09ED  3027               	movlw	39
   447  09EE  00D5               	movwf	?_Write_Cmd_Data+1
   448  09EF  3060               	movlw	96
   449  09F0  2093  120A  158A   	fcall	_Write_Cmd_Data
   450                           ;NBCTFT.C: 315: Write_Cmd_Data(0x0061, 0x0001);
   451  09F3  01D4               	clrf	?_Write_Cmd_Data
   452  09F4  0AD4               	incf	?_Write_Cmd_Data
   453  09F5  01D5               	clrf	?_Write_Cmd_Data+1
   454  09F6  3061               	movlw	97
   455  09F7  2093  120A  158A   	fcall	_Write_Cmd_Data
   456                           ;NBCTFT.C: 316: Write_Cmd_Data(0x006A, 0x0000);
   457  09FA  01D4               	clrf	?_Write_Cmd_Data
   458  09FB  01D5               	clrf	?_Write_Cmd_Data+1
   459  09FC  306A               	movlw	106
   460  09FD  2093  120A  158A   	fcall	_Write_Cmd_Data
   461                           ;NBCTFT.C: 317: Write_Cmd_Data(0x20, 0x0000);
   462  0A00  01D4               	clrf	?_Write_Cmd_Data
   463  0A01  01D5               	clrf	?_Write_Cmd_Data+1
   464  0A02  3020               	movlw	32
   465  0A03  2093  120A  158A   	fcall	_Write_Cmd_Data
   466                           ;NBCTFT.C: 318: Write_Cmd_Data(0x21, 0x0000);
   467  0A06  01D4               	clrf	?_Write_Cmd_Data
   468  0A07  01D5               	clrf	?_Write_Cmd_Data+1
   469  0A08  3021               	movlw	33
   470  0A09  2093  120A  158A   	fcall	_Write_Cmd_Data
   471                           ;NBCTFT.C: 321: Write_Cmd_Data(0x0080, 0x0000);
   472  0A0C  01D4               	clrf	?_Write_Cmd_Data
   473  0A0D  01D5               	clrf	?_Write_Cmd_Data+1
   474  0A0E  3080               	movlw	-128
   475  0A0F  2093  120A  158A   	fcall	_Write_Cmd_Data
   476                           ;NBCTFT.C: 322: Write_Cmd_Data(0x0081, 0x0000);
   477  0A12  01D4               	clrf	?_Write_Cmd_Data
   478  0A13  01D5               	clrf	?_Write_Cmd_Data+1
   479  0A14  3081               	movlw	-127
   480  0A15  2093  120A  158A   	fcall	_Write_Cmd_Data
   481                           ;NBCTFT.C: 323: Write_Cmd_Data(0x0082, 0x0000);
   482  0A18  01D4               	clrf	?_Write_Cmd_Data
   483  0A19  01D5               	clrf	?_Write_Cmd_Data+1
   484  0A1A  3082               	movlw	-126
   485  0A1B  2093  120A  158A   	fcall	_Write_Cmd_Data
   486                           ;NBCTFT.C: 324: Write_Cmd_Data(0x0083, 0x0000);
   487  0A1E  01D4               	clrf	?_Write_Cmd_Data
   488  0A1F  01D5               	clrf	?_Write_Cmd_Data+1
   489  0A20  3083               	movlw	-125
   490  0A21  2093  120A  158A   	fcall	_Write_Cmd_Data
   491                           ;NBCTFT.C: 325: Write_Cmd_Data(0x0084, 0x0000);
   492  0A24  01D4               	clrf	?_Write_Cmd_Data
   493  0A25  01D5               	clrf	?_Write_Cmd_Data+1
   494  0A26  3084               	movlw	-124
   495  0A27  2093  120A  158A   	fcall	_Write_Cmd_Data
   496                           ;NBCTFT.C: 326: Write_Cmd_Data(0x0085, 0x0000);
   497  0A2A  01D4               	clrf	?_Write_Cmd_Data
   498  0A2B  01D5               	clrf	?_Write_Cmd_Data+1
   499  0A2C  3085               	movlw	-123
   500  0A2D  2093  120A  158A   	fcall	_Write_Cmd_Data
   501                           ;NBCTFT.C: 329: Write_Cmd_Data(0x90,0x0010);
   502  0A30  3010               	movlw	16
   503  0A31  00D4               	movwf	?_Write_Cmd_Data
   504  0A32  01D5               	clrf	?_Write_Cmd_Data+1
   505  0A33  3090               	movlw	-112
   506  0A34  2093  120A  158A   	fcall	_Write_Cmd_Data
   507                           ;NBCTFT.C: 330: Write_Cmd_Data(0x92,0x0000);
   508  0A37  01D4               	clrf	?_Write_Cmd_Data
   509  0A38  01D5               	clrf	?_Write_Cmd_Data+1
   510  0A39  3092               	movlw	-110
   511  0A3A  2093  120A  158A   	fcall	_Write_Cmd_Data
   512                           ;NBCTFT.C: 331: Write_Cmd_Data(0x93,0x0003);
   513  0A3D  3003               	movlw	3
   514  0A3E  00D4               	movwf	?_Write_Cmd_Data
   515  0A3F  01D5               	clrf	?_Write_Cmd_Data+1
   516  0A40  3093               	movlw	-109
   517  0A41  2093  120A  158A   	fcall	_Write_Cmd_Data
   518                           ;NBCTFT.C: 332: Write_Cmd_Data(0x95,0x0110);
   519  0A44  3010               	movlw	16
   520  0A45  00D4               	movwf	?_Write_Cmd_Data
   521  0A46  3001               	movlw	1
   522  0A47  00D5               	movwf	?_Write_Cmd_Data+1
   523  0A48  3095               	movlw	-107
   524  0A49  2093  120A  158A   	fcall	_Write_Cmd_Data
   525                           ;NBCTFT.C: 333: Write_Cmd_Data(0x97,0x0000);
   526  0A4C  01D4               	clrf	?_Write_Cmd_Data
   527  0A4D  01D5               	clrf	?_Write_Cmd_Data+1
   528  0A4E  3097               	movlw	-105
   529  0A4F  2093  120A  158A   	fcall	_Write_Cmd_Data
   530                           ;NBCTFT.C: 334: Write_Cmd_Data(0x98,0x0000);
   531  0A52  01D4               	clrf	?_Write_Cmd_Data
   532  0A53  01D5               	clrf	?_Write_Cmd_Data+1
   533  0A54  3098               	movlw	-104
   534  0A55  2093  120A  158A   	fcall	_Write_Cmd_Data
   535                           ;NBCTFT.C: 337: Write_Cmd_Data(0x07,0x0173);
   536  0A58  3073               	movlw	115
   537  0A59  00D4               	movwf	?_Write_Cmd_Data
   538  0A5A  3001               	movlw	1
   539  0A5B  00D5               	movwf	?_Write_Cmd_Data+1
   540  0A5C  3007               	movlw	7
   541  0A5D  2893               	ljmp	_Write_Cmd_Data
   542                           ;NBCTFT.C: 339: }
   543  0A5E                     l60
   544                           ;NBCTFT.C: 341: else if(Device_code==0x1505 )
   545  0A5E  0821               	movf	_Device_code+1,w
   546  0A5F  3A15               	xorlw	21
   547  0A60  3005               	movlw	5
   548  0A61  1903               	btfsc	3,2
   549  0A62  0620               	xorwf	_Device_code,w
   550  0A63  1D03               	btfss	3,2
   551  0A64  2BB8               	goto	l62
   552                           ;NBCTFT.C: 342: {
   553  0A65  01D4               	clrf	?_Write_Cmd_Data
   554  0A66  0AD4               	incf	?_Write_Cmd_Data
   555  0A67  01D5               	clrf	?_Write_Cmd_Data+1
   556  0A68  3000               	movlw	0
   557  0A69  2093  120A  158A   	fcall	_Write_Cmd_Data
   558                           ;NBCTFT.C: 346: Write_Cmd_Data(0x01,0x0100);
   559  0A6C  01D4               	clrf	?_Write_Cmd_Data
   560  0A6D  3001               	movlw	1
   561  0A6E  00D5               	movwf	?_Write_Cmd_Data+1
   562  0A6F  2093  120A  158A   	fcall	_Write_Cmd_Data
   563                           ;NBCTFT.C: 347: Write_Cmd_Data(0x02,0x0700);
   564  0A72  01D4               	clrf	?_Write_Cmd_Data
   565  0A73  3007               	movlw	7
   566  0A74  00D5               	movwf	?_Write_Cmd_Data+1
   567  0A75  3002               	movlw	2
   568  0A76  2093  120A  158A   	fcall	_Write_Cmd_Data
   569                           ;NBCTFT.C: 348: Write_Cmd_Data(0x03,0x1030);
   570  0A79  3030               	movlw	48
   571  0A7A  00D4               	movwf	?_Write_Cmd_Data
   572  0A7B  3010               	movlw	16
   573  0A7C  00D5               	movwf	?_Write_Cmd_Data+1
   574  0A7D  3003               	movlw	3
   575  0A7E  2093  120A  158A   	fcall	_Write_Cmd_Data
   576                           ;NBCTFT.C: 349: Write_Cmd_Data(0x04,0x0000);
   577  0A81  01D4               	clrf	?_Write_Cmd_Data
   578  0A82  01D5               	clrf	?_Write_Cmd_Data+1
   579  0A83  3004               	movlw	4
   580  0A84  2093  120A  158A   	fcall	_Write_Cmd_Data
   581                           ;NBCTFT.C: 350: Write_Cmd_Data(0x08,0x0202);
   582  0A87  3002               	movlw	2
   583  0A88  00D4               	movwf	?_Write_Cmd_Data
   584  0A89  00D5               	movwf	?_Write_Cmd_Data+1
   585  0A8A  3008               	movlw	8
   586  0A8B  2093  120A  158A   	fcall	_Write_Cmd_Data
   587                           ;NBCTFT.C: 351: Write_Cmd_Data(0x09,0x0000);
   588  0A8E  01D4               	clrf	?_Write_Cmd_Data
   589  0A8F  01D5               	clrf	?_Write_Cmd_Data+1
   590  0A90  3009               	movlw	9
   591  0A91  2093  120A  158A   	fcall	_Write_Cmd_Data
   592                           ;NBCTFT.C: 352: Write_Cmd_Data(0x0A,0x0000);
   593  0A94  01D4               	clrf	?_Write_Cmd_Data
   594  0A95  01D5               	clrf	?_Write_Cmd_Data+1
   595  0A96  300A               	movlw	10
   596  0A97  2093  120A  158A   	fcall	_Write_Cmd_Data
   597                           ;NBCTFT.C: 353: Write_Cmd_Data(0x0C,0x0000);
   598  0A9A  01D4               	clrf	?_Write_Cmd_Data
   599  0A9B  01D5               	clrf	?_Write_Cmd_Data+1
   600  0A9C  300C               	movlw	12
   601  0A9D  2093  120A  158A   	fcall	_Write_Cmd_Data
   602                           ;NBCTFT.C: 354: Write_Cmd_Data(0x0D,0x0000);
   603  0AA0  01D4               	clrf	?_Write_Cmd_Data
   604  0AA1  01D5               	clrf	?_Write_Cmd_Data+1
   605  0AA2  300D               	movlw	13
   606  0AA3  2093  120A  158A   	fcall	_Write_Cmd_Data
   607                           ;NBCTFT.C: 355: Write_Cmd_Data(0x0F,0x0000);
   608  0AA6  01D4               	clrf	?_Write_Cmd_Data
   609  0AA7  01D5               	clrf	?_Write_Cmd_Data+1
   610  0AA8  300F               	movlw	15
   611  0AA9  2093  120A  158A   	fcall	_Write_Cmd_Data
   612                           ;NBCTFT.C: 356: delayms(30);
   613  0AAC  301E               	movlw	30
   614  0AAD  00AA               	movwf	?_delayms
   615  0AAE  01AB               	clrf	?_delayms+1
   616  0AAF  20D6               	fcall	_delayms
   617                           ;NBCTFT.C: 358: Write_Cmd_Data(0x10, 0x16b0);
   618  0AB0  30B0               	movlw	176
   619  0AB1  00D4               	movwf	?_Write_Cmd_Data
   620  0AB2  3016               	movlw	22
   621  0AB3  00D5               	movwf	?_Write_Cmd_Data+1
   622  0AB4  3010               	movlw	16
   623  0AB5  2093  120A  158A   	fcall	_Write_Cmd_Data
   624                           ;NBCTFT.C: 359: delayms(30);
   625  0AB8  301E               	movlw	30
   626  0AB9  00AA               	movwf	?_delayms
   627  0ABA  01AB               	clrf	?_delayms+1
   628  0ABB  20D6               	fcall	_delayms
   629                           ;NBCTFT.C: 360: Write_Cmd_Data(0x11, 0x0007);
   630  0ABC  3007               	movlw	7
   631  0ABD  00D4               	movwf	?_Write_Cmd_Data
   632  0ABE  01D5               	clrf	?_Write_Cmd_Data+1
   633  0ABF  3011               	movlw	17
   634  0AC0  2093  120A  158A   	fcall	_Write_Cmd_Data
   635                           ;NBCTFT.C: 361: Write_Cmd_Data(0x12, 0x013a);
   636  0AC3  303A               	movlw	58
   637  0AC4  00D4               	movwf	?_Write_Cmd_Data
   638  0AC5  3001               	movlw	1
   639  0AC6  00D5               	movwf	?_Write_Cmd_Data+1
   640  0AC7  3012               	movlw	18
   641  0AC8  2093  120A  158A   	fcall	_Write_Cmd_Data
   642                           ;NBCTFT.C: 362: Write_Cmd_Data(0x13, 0x1a00);
   643  0ACB  01D4               	clrf	?_Write_Cmd_Data
   644  0ACC  301A               	movlw	26
   645  0ACD  00D5               	movwf	?_Write_Cmd_Data+1
   646  0ACE  3013               	movlw	19
   647  0ACF  2093  120A  158A   	fcall	_Write_Cmd_Data
   648                           ;NBCTFT.C: 363: delayms(30);
   649  0AD2  301E               	movlw	30
   650  0AD3  00AA               	movwf	?_delayms
   651  0AD4  01AB               	clrf	?_delayms+1
   652  0AD5  20D6               	fcall	_delayms
   653                           ;NBCTFT.C: 364: Write_Cmd_Data(0x29, 0x000c);
   654  0AD6  300C               	movlw	12
   655  0AD7  00D4               	movwf	?_Write_Cmd_Data
   656  0AD8  01D5               	clrf	?_Write_Cmd_Data+1
   657  0AD9  3029               	movlw	41
   658  0ADA  2093  120A  158A   	fcall	_Write_Cmd_Data
   659                           ;NBCTFT.C: 365: delayms(30);
   660  0ADD  301E               	movlw	30
   661  0ADE  00AA               	movwf	?_delayms
   662  0ADF  01AB               	clrf	?_delayms+1
   663  0AE0  20D6               	fcall	_delayms
   664                           ;NBCTFT.C: 368: Write_Cmd_Data(0x0030, 0x0000);
   665  0AE1  01D4               	clrf	?_Write_Cmd_Data
   666  0AE2  01D5               	clrf	?_Write_Cmd_Data+1
   667  0AE3  3030               	movlw	48
   668  0AE4  2093  120A  158A   	fcall	_Write_Cmd_Data
   669                           ;NBCTFT.C: 369: Write_Cmd_Data(0x0031, 0x0505);
   670  0AE7  3005               	movlw	5
   671  0AE8  00D4               	movwf	?_Write_Cmd_Data
   672  0AE9  00D5               	movwf	?_Write_Cmd_Data+1
   673  0AEA  3031               	movlw	49
   674  0AEB  2093  120A  158A   	fcall	_Write_Cmd_Data
   675                           ;NBCTFT.C: 370: Write_Cmd_Data(0x0032, 0x0304);
   676  0AEE  3004               	movlw	4
   677  0AEF  00D4               	movwf	?_Write_Cmd_Data
   678  0AF0  3003               	movlw	3
   679  0AF1  00D5               	movwf	?_Write_Cmd_Data+1
   680  0AF2  3032               	movlw	50
   681  0AF3  2093  120A  158A   	fcall	_Write_Cmd_Data
   682                           ;NBCTFT.C: 371: Write_Cmd_Data(0x0035, 0x0006);
   683  0AF6  3006               	movlw	6
   684  0AF7  00D4               	movwf	?_Write_Cmd_Data
   685  0AF8  01D5               	clrf	?_Write_Cmd_Data+1
   686  0AF9  3035               	movlw	53
   687  0AFA  2093  120A  158A   	fcall	_Write_Cmd_Data
   688                           ;NBCTFT.C: 372: Write_Cmd_Data(0x0036, 0x0707);
   689  0AFD  3007               	movlw	7
   690  0AFE  00D4               	movwf	?_Write_Cmd_Data
   691  0AFF  00D5               	movwf	?_Write_Cmd_Data+1
   692  0B00  3036               	movlw	54
   693  0B01  2093  120A  158A   	fcall	_Write_Cmd_Data
   694                           ;NBCTFT.C: 373: Write_Cmd_Data(0x0037, 0x0105);
   695  0B04  3005               	movlw	5
   696  0B05  00D4               	movwf	?_Write_Cmd_Data
   697  0B06  3001               	movlw	1
   698  0B07  00D5               	movwf	?_Write_Cmd_Data+1
   699  0B08  3037               	movlw	55
   700  0B09  2093  120A  158A   	fcall	_Write_Cmd_Data
   701                           ;NBCTFT.C: 374: Write_Cmd_Data(0x0038, 0x0002);
   702  0B0C  3002               	movlw	2
   703  0B0D  00D4               	movwf	?_Write_Cmd_Data
   704  0B0E  01D5               	clrf	?_Write_Cmd_Data+1
   705  0B0F  3038               	movlw	56
   706  0B10  2093  120A  158A   	fcall	_Write_Cmd_Data
   707                           ;NBCTFT.C: 375: Write_Cmd_Data(0x0039, 0x0707);
   708  0B13  3007               	movlw	7
   709  0B14  00D4               	movwf	?_Write_Cmd_Data
   710  0B15  00D5               	movwf	?_Write_Cmd_Data+1
   711  0B16  3039               	movlw	57
   712  0B17  2093  120A  158A   	fcall	_Write_Cmd_Data
   713                           ;NBCTFT.C: 376: Write_Cmd_Data(0x003C, 0x0704);
   714  0B1A  3004               	movlw	4
   715  0B1B  00D4               	movwf	?_Write_Cmd_Data
   716  0B1C  3007               	movlw	7
   717  0B1D  00D5               	movwf	?_Write_Cmd_Data+1
   718  0B1E  303C               	movlw	60
   719  0B1F  2093  120A  158A   	fcall	_Write_Cmd_Data
   720                           ;NBCTFT.C: 377: Write_Cmd_Data(0x003D, 0x0807);
   721  0B22  3007               	movlw	7
   722  0B23  00D4               	movwf	?_Write_Cmd_Data
   723  0B24  3008               	movlw	8
   724  0B25  00D5               	movwf	?_Write_Cmd_Data+1
   725  0B26  303D               	movlw	61
   726  0B27  2093  120A  158A   	fcall	_Write_Cmd_Data
   727                           ;NBCTFT.C: 380: Write_Cmd_Data(0x0050, 0x0000);
   728  0B2A  01D4               	clrf	?_Write_Cmd_Data
   729  0B2B  01D5               	clrf	?_Write_Cmd_Data+1
   730  0B2C  3050               	movlw	80
   731  0B2D  2093  120A  158A   	fcall	_Write_Cmd_Data
   732                           ;NBCTFT.C: 381: Write_Cmd_Data(0x0051, 0x00EF);
   733  0B30  30EF               	movlw	239
   734  0B31  00D4               	movwf	?_Write_Cmd_Data
   735  0B32  01D5               	clrf	?_Write_Cmd_Data+1
   736  0B33  3051               	movlw	81
   737  0B34  2093  120A  158A   	fcall	_Write_Cmd_Data
   738                           ;NBCTFT.C: 382: Write_Cmd_Data(0x0052, 0x0000);
   739  0B37  01D4               	clrf	?_Write_Cmd_Data
   740  0B38  01D5               	clrf	?_Write_Cmd_Data+1
   741  0B39  3052               	movlw	82
   742  0B3A  2093  120A  158A   	fcall	_Write_Cmd_Data
   743                           ;NBCTFT.C: 383: Write_Cmd_Data(0x0053, 0x013F);
   744  0B3D  303F               	movlw	63
   745  0B3E  00D4               	movwf	?_Write_Cmd_Data
   746  0B3F  3001               	movlw	1
   747  0B40  00D5               	movwf	?_Write_Cmd_Data+1
   748  0B41  3053               	movlw	83
   749  0B42  2093  120A  158A   	fcall	_Write_Cmd_Data
   750                           ;NBCTFT.C: 384: Write_Cmd_Data(0x0060, 0x2700);
   751  0B45  01D4               	clrf	?_Write_Cmd_Data
   752  0B46  3027               	movlw	39
   753  0B47  00D5               	movwf	?_Write_Cmd_Data+1
   754  0B48  3060               	movlw	96
   755  0B49  2093  120A  158A   	fcall	_Write_Cmd_Data
   756                           ;NBCTFT.C: 385: Write_Cmd_Data(0x0061, 0x0001);
   757  0B4C  01D4               	clrf	?_Write_Cmd_Data
   758  0B4D  0AD4               	incf	?_Write_Cmd_Data
   759  0B4E  01D5               	clrf	?_Write_Cmd_Data+1
   760  0B4F  3061               	movlw	97
   761  0B50  2093  120A  158A   	fcall	_Write_Cmd_Data
   762                           ;NBCTFT.C: 386: Write_Cmd_Data(0x006A, 0x2700);
   763  0B53  01D4               	clrf	?_Write_Cmd_Data
   764  0B54  3027               	movlw	39
   765  0B55  00D5               	movwf	?_Write_Cmd_Data+1
   766  0B56  306A               	movlw	106
   767  0B57  2093  120A  158A   	fcall	_Write_Cmd_Data
   768                           ;NBCTFT.C: 387: Write_Cmd_Data(0x20, 0x0000);
   769  0B5A  01D4               	clrf	?_Write_Cmd_Data
   770  0B5B  01D5               	clrf	?_Write_Cmd_Data+1
   771  0B5C  3020               	movlw	32
   772  0B5D  2093  120A  158A   	fcall	_Write_Cmd_Data
   773                           ;NBCTFT.C: 388: Write_Cmd_Data(0x21, 0x0000);
   774  0B60  01D4               	clrf	?_Write_Cmd_Data
   775  0B61  01D5               	clrf	?_Write_Cmd_Data+1
   776  0B62  3021               	movlw	33
   777  0B63  2093  120A  158A   	fcall	_Write_Cmd_Data
   778                           ;NBCTFT.C: 391: Write_Cmd_Data(0x0080, 0x0000);
   779  0B66  01D4               	clrf	?_Write_Cmd_Data
   780  0B67  01D5               	clrf	?_Write_Cmd_Data+1
   781  0B68  3080               	movlw	-128
   782  0B69  2093  120A  158A   	fcall	_Write_Cmd_Data
   783                           ;NBCTFT.C: 392: Write_Cmd_Data(0x0081, 0x0000);
   784  0B6C  01D4               	clrf	?_Write_Cmd_Data
   785  0B6D  01D5               	clrf	?_Write_Cmd_Data+1
   786  0B6E  3081               	movlw	-127
   787  0B6F  2093  120A  158A   	fcall	_Write_Cmd_Data
   788                           ;NBCTFT.C: 393: Write_Cmd_Data(0x0082, 0x0000);
   789  0B72  01D4               	clrf	?_Write_Cmd_Data
   790  0B73  01D5               	clrf	?_Write_Cmd_Data+1
   791  0B74  3082               	movlw	-126
   792  0B75  2093  120A  158A   	fcall	_Write_Cmd_Data
   793                           ;NBCTFT.C: 394: Write_Cmd_Data(0x0083, 0x0000);
   794  0B78  01D4               	clrf	?_Write_Cmd_Data
   795  0B79  01D5               	clrf	?_Write_Cmd_Data+1
   796  0B7A  3083               	movlw	-125
   797  0B7B  2093  120A  158A   	fcall	_Write_Cmd_Data
   798                           ;NBCTFT.C: 395: Write_Cmd_Data(0x0084, 0x0000);
   799  0B7E  01D4               	clrf	?_Write_Cmd_Data
   800  0B7F  01D5               	clrf	?_Write_Cmd_Data+1
   801  0B80  3084               	movlw	-124
   802  0B81  2093  120A  158A   	fcall	_Write_Cmd_Data
   803                           ;NBCTFT.C: 396: Write_Cmd_Data(0x0085, 0x0000);
   804  0B84  01D4               	clrf	?_Write_Cmd_Data
   805  0B85  01D5               	clrf	?_Write_Cmd_Data+1
   806  0B86  3085               	movlw	-123
   807  0B87  2093  120A  158A   	fcall	_Write_Cmd_Data
   808                           ;NBCTFT.C: 399: Write_Cmd_Data(0x90,0x0010);
   809  0B8A  3010               	movlw	16
   810  0B8B  00D4               	movwf	?_Write_Cmd_Data
   811  0B8C  01D5               	clrf	?_Write_Cmd_Data+1
   812  0B8D  3090               	movlw	-112
   813  0B8E  2093  120A  158A   	fcall	_Write_Cmd_Data
   814                           ;NBCTFT.C: 400: Write_Cmd_Data(0x92,0x0000);
   815  0B91  01D4               	clrf	?_Write_Cmd_Data
   816  0B92  01D5               	clrf	?_Write_Cmd_Data+1
   817  0B93  3092               	movlw	-110
   818  0B94  2093  120A  158A   	fcall	_Write_Cmd_Data
   819                           ;NBCTFT.C: 401: Write_Cmd_Data(0x93,0x0003);
   820  0B97  3003               	movlw	3
   821  0B98  00D4               	movwf	?_Write_Cmd_Data
   822  0B99  01D5               	clrf	?_Write_Cmd_Data+1
   823  0B9A  3093               	movlw	-109
   824  0B9B  2093  120A  158A   	fcall	_Write_Cmd_Data
   825                           ;NBCTFT.C: 402: Write_Cmd_Data(0x95,0x0110);
   826  0B9E  3010               	movlw	16
   827  0B9F  00D4               	movwf	?_Write_Cmd_Data
   828  0BA0  3001               	movlw	1
   829  0BA1  00D5               	movwf	?_Write_Cmd_Data+1
   830  0BA2  3095               	movlw	-107
   831  0BA3  2093  120A  158A   	fcall	_Write_Cmd_Data
   832                           ;NBCTFT.C: 403: Write_Cmd_Data(0x97,0x0000);
   833  0BA6  01D4               	clrf	?_Write_Cmd_Data
   834  0BA7  01D5               	clrf	?_Write_Cmd_Data+1
   835  0BA8  3097               	movlw	-105
   836  0BA9  2093  120A  158A   	fcall	_Write_Cmd_Data
   837                           ;NBCTFT.C: 404: Write_Cmd_Data(0x98,0x0000);
   838  0BAC  01D4               	clrf	?_Write_Cmd_Data
   839  0BAD  01D5               	clrf	?_Write_Cmd_Data+1
   840  0BAE  3098               	movlw	-104
   841  0BAF  2093  120A  158A   	fcall	_Write_Cmd_Data
   842                           ;NBCTFT.C: 407: Write_Cmd_Data(0x07,0x0173);
   843  0BB2  3073               	movlw	115
   844  0BB3  00D4               	movwf	?_Write_Cmd_Data
   845  0BB4  3001               	movlw	1
   846  0BB5  00D5               	movwf	?_Write_Cmd_Data+1
   847  0BB6  3007               	movlw	7
   848  0BB7  2893               	ljmp	_Write_Cmd_Data
   849                           ;NBCTFT.C: 409: }
   850  0BB8                     l62
   851                           ;NBCTFT.C: 411: else if(Device_code==0x9328)
   852  0BB8  0821               	movf	_Device_code+1,w
   853  0BB9  3A93               	xorlw	147
   854  0BBA  3028               	movlw	40
   855  0BBB  1903               	btfsc	3,2
   856  0BBC  0620               	xorwf	_Device_code,w
   857  0BBD  1D03               	btfss	3,2
   858  0BBE  0008               	return
   859                           ;NBCTFT.C: 412: {
   860  0BBF  01D4               	clrf	?_Write_Cmd_Data
   861  0BC0  3001               	movlw	1
   862  0BC1  00D5               	movwf	?_Write_Cmd_Data+1
   863  0BC2  2093  120A  158A   	fcall	_Write_Cmd_Data
   864                           ;NBCTFT.C: 416: Write_Cmd_Data(0x0002,0x0700);
   865  0BC5  01D4               	clrf	?_Write_Cmd_Data
   866  0BC6  3007               	movlw	7
   867  0BC7  00D5               	movwf	?_Write_Cmd_Data+1
   868  0BC8  3002               	movlw	2
   869  0BC9  2093  120A  158A   	fcall	_Write_Cmd_Data
   870                           ;NBCTFT.C: 417: Write_Cmd_Data(0x0003,0x1030);
   871  0BCC  3030               	movlw	48
   872  0BCD  00D4               	movwf	?_Write_Cmd_Data
   873  0BCE  3010               	movlw	16
   874  0BCF  00D5               	movwf	?_Write_Cmd_Data+1
   875  0BD0  3003               	movlw	3
   876  0BD1  2093  120A  158A   	fcall	_Write_Cmd_Data
   877                           ;NBCTFT.C: 418: Write_Cmd_Data(0x0004,0x0000);
   878  0BD4  01D4               	clrf	?_Write_Cmd_Data
   879  0BD5  01D5               	clrf	?_Write_Cmd_Data+1
   880  0BD6  3004               	movlw	4
   881  0BD7  2093  120A  158A   	fcall	_Write_Cmd_Data
   882                           ;NBCTFT.C: 419: Write_Cmd_Data(0x00A4,0x0001);
   883  0BDA  01D4               	clrf	?_Write_Cmd_Data
   884  0BDB  0AD4               	incf	?_Write_Cmd_Data
   885  0BDC  01D5               	clrf	?_Write_Cmd_Data+1
   886  0BDD  30A4               	movlw	-92
   887  0BDE  2093  120A  158A   	fcall	_Write_Cmd_Data
   888                           ;NBCTFT.C: 420: Write_Cmd_Data(0x0008,0x0202);
   889  0BE1  3002               	movlw	2
   890  0BE2  00D4               	movwf	?_Write_Cmd_Data
   891  0BE3  00D5               	movwf	?_Write_Cmd_Data+1
   892  0BE4  3008               	movlw	8
   893  0BE5  2093  120A  158A   	fcall	_Write_Cmd_Data
   894                           ;NBCTFT.C: 421: Write_Cmd_Data(0x0009,0x0000);
   895  0BE8  01D4               	clrf	?_Write_Cmd_Data
   896  0BE9  01D5               	clrf	?_Write_Cmd_Data+1
   897  0BEA  3009               	movlw	9
   898  0BEB  2093  120A  158A   	fcall	_Write_Cmd_Data
   899                           ;NBCTFT.C: 422: Write_Cmd_Data(0x000A,0x0000);
   900  0BEE  01D4               	clrf	?_Write_Cmd_Data
   901  0BEF  01D5               	clrf	?_Write_Cmd_Data+1
   902  0BF0  300A               	movlw	10
   903  0BF1  2093  120A  158A   	fcall	_Write_Cmd_Data
   904                           ;NBCTFT.C: 423: Write_Cmd_Data(0x000C,0x0000);
   905  0BF4  01D4               	clrf	?_Write_Cmd_Data
   906  0BF5  01D5               	clrf	?_Write_Cmd_Data+1
   907  0BF6  300C               	movlw	12
   908  0BF7  2093  120A  158A   	fcall	_Write_Cmd_Data
   909                           ;NBCTFT.C: 424: Write_Cmd_Data(0x000D, 0x0000);
   910  0BFA  01D4               	clrf	?_Write_Cmd_Data
   911  0BFB  01D5               	clrf	?_Write_Cmd_Data+1
   912  0BFC  300D               	movlw	13
   913  0BFD  2093  120A  158A   	fcall	_Write_Cmd_Data
   914                           ;NBCTFT.C: 425: Write_Cmd_Data(0x000F, 0x0000);
   915  0C00  01D4               	clrf	?_Write_Cmd_Data
   916  0C01  01D5               	clrf	?_Write_Cmd_Data+1
   917  0C02  300F               	movlw	15
   918  0C03  2093  120A  158A   	fcall	_Write_Cmd_Data
   919                           ;NBCTFT.C: 430: Write_Cmd_Data(0x0010, 0x0000);
   920  0C06  01D4               	clrf	?_Write_Cmd_Data
   921  0C07  01D5               	clrf	?_Write_Cmd_Data+1
   922  0C08  3010               	movlw	16
   923  0C09  2093  120A  158A   	fcall	_Write_Cmd_Data
   924                           ;NBCTFT.C: 431: Write_Cmd_Data(0x0011, 0x0007);
   925  0C0C  3007               	movlw	7
   926  0C0D  00D4               	movwf	?_Write_Cmd_Data
   927  0C0E  01D5               	clrf	?_Write_Cmd_Data+1
   928  0C0F  3011               	movlw	17
   929  0C10  2093  120A  158A   	fcall	_Write_Cmd_Data
   930                           ;NBCTFT.C: 432: Write_Cmd_Data(0x0012, 0x0000);
   931  0C13  01D4               	clrf	?_Write_Cmd_Data
   932  0C14  01D5               	clrf	?_Write_Cmd_Data+1
   933  0C15  3012               	movlw	18
   934  0C16  2093  120A  158A   	fcall	_Write_Cmd_Data
   935                           ;NBCTFT.C: 433: Write_Cmd_Data(0x0013, 0x0000);
   936  0C19  01D4               	clrf	?_Write_Cmd_Data
   937  0C1A  01D5               	clrf	?_Write_Cmd_Data+1
   938  0C1B  3013               	movlw	19
   939  0C1C  2093  120A  158A   	fcall	_Write_Cmd_Data
   940                           ;NBCTFT.C: 434: delayms(30);
   941  0C1F  301E               	movlw	30
   942  0C20  00AA               	movwf	?_delayms
   943  0C21  01AB               	clrf	?_delayms+1
   944  0C22  20D6               	fcall	_delayms
   945                           ;NBCTFT.C: 435: Write_Cmd_Data(0x0010, 0x1690);
   946  0C23  3090               	movlw	144
   947  0C24  00D4               	movwf	?_Write_Cmd_Data
   948  0C25  3016               	movlw	22
   949  0C26  00D5               	movwf	?_Write_Cmd_Data+1
   950  0C27  3010               	movlw	16
   951  0C28  2093  120A  158A   	fcall	_Write_Cmd_Data
   952                           ;NBCTFT.C: 436: Write_Cmd_Data(0x0011, 0x0227);
   953  0C2B  3027               	movlw	39
   954  0C2C  00D4               	movwf	?_Write_Cmd_Data
   955  0C2D  3002               	movlw	2
   956  0C2E  00D5               	movwf	?_Write_Cmd_Data+1
   957  0C2F  3011               	movlw	17
   958  0C30  2093  120A  158A   	fcall	_Write_Cmd_Data
   959                           ;NBCTFT.C: 437: delayms(30);
   960  0C33  301E               	movlw	30
   961  0C34  00AA               	movwf	?_delayms
   962  0C35  01AB               	clrf	?_delayms+1
   963  0C36  20D6               	fcall	_delayms
   964                           ;NBCTFT.C: 438: Write_Cmd_Data(0x0012, 0x001C);
   965  0C37  301C               	movlw	28
   966  0C38  00D4               	movwf	?_Write_Cmd_Data
   967  0C39  01D5               	clrf	?_Write_Cmd_Data+1
   968  0C3A  3012               	movlw	18
   969  0C3B  2093  120A  158A   	fcall	_Write_Cmd_Data
   970                           ;NBCTFT.C: 439: delayms(30);
   971  0C3E  301E               	movlw	30
   972  0C3F  00AA               	movwf	?_delayms
   973  0C40  01AB               	clrf	?_delayms+1
   974  0C41  20D6               	fcall	_delayms
   975                           ;NBCTFT.C: 440: Write_Cmd_Data(0x0013, 0x1800);
   976  0C42  01D4               	clrf	?_Write_Cmd_Data
   977  0C43  3018               	movlw	24
   978  0C44  00D5               	movwf	?_Write_Cmd_Data+1
   979  0C45  3013               	movlw	19
   980  0C46  2093  120A  158A   	fcall	_Write_Cmd_Data
   981                           ;NBCTFT.C: 441: Write_Cmd_Data(0x0029, 0x001C);
   982  0C49  301C               	movlw	28
   983  0C4A  00D4               	movwf	?_Write_Cmd_Data
   984  0C4B  01D5               	clrf	?_Write_Cmd_Data+1
   985  0C4C  3029               	movlw	41
   986  0C4D  2093  120A  158A   	fcall	_Write_Cmd_Data
   987                           ;NBCTFT.C: 442: Write_Cmd_Data(0x002B, 0x000D);
   988  0C50  300D               	movlw	13
   989  0C51  00D4               	movwf	?_Write_Cmd_Data
   990  0C52  01D5               	clrf	?_Write_Cmd_Data+1
   991  0C53  302B               	movlw	43
   992  0C54  2093  120A  158A   	fcall	_Write_Cmd_Data
   993                           ;NBCTFT.C: 443: delayms(30);
   994  0C57  301E               	movlw	30
   995  0C58  00AA               	movwf	?_delayms
   996  0C59  01AB               	clrf	?_delayms+1
   997  0C5A  20D6               	fcall	_delayms
   998                           ;NBCTFT.C: 444: Write_Cmd_Data(0x0020, 0x0000);
   999  0C5B  01D4               	clrf	?_Write_Cmd_Data
  1000  0C5C  01D5               	clrf	?_Write_Cmd_Data+1
  1001  0C5D  3020               	movlw	32
  1002  0C5E  2093  120A  158A   	fcall	_Write_Cmd_Data
  1003                           ;NBCTFT.C: 445: Write_Cmd_Data(0x0021, 0x0000);
  1004  0C61  01D4               	clrf	?_Write_Cmd_Data
  1005  0C62  01D5               	clrf	?_Write_Cmd_Data+1
  1006  0C63  3021               	movlw	33
  1007  0C64  2093  120A  158A   	fcall	_Write_Cmd_Data
  1008                           ;NBCTFT.C: 447: Write_Cmd_Data(0x0030, 0x0007);
  1009  0C67  3007               	movlw	7
  1010  0C68  00D4               	movwf	?_Write_Cmd_Data
  1011  0C69  01D5               	clrf	?_Write_Cmd_Data+1
  1012  0C6A  3030               	movlw	48
  1013  0C6B  2093  120A  158A   	fcall	_Write_Cmd_Data
  1014                           ;NBCTFT.C: 448: Write_Cmd_Data(0x0031, 0x0302);
  1015  0C6E  3002               	movlw	2
  1016  0C6F  00D4               	movwf	?_Write_Cmd_Data
  1017  0C70  3003               	movlw	3
  1018  0C71  00D5               	movwf	?_Write_Cmd_Data+1
  1019  0C72  3031               	movlw	49
  1020  0C73  2093  120A  158A   	fcall	_Write_Cmd_Data
  1021                           ;NBCTFT.C: 449: Write_Cmd_Data(0x0032, 0x0105);
  1022  0C76  3005               	movlw	5
  1023  0C77  00D4               	movwf	?_Write_Cmd_Data
  1024  0C78  3001               	movlw	1
  1025  0C79  00D5               	movwf	?_Write_Cmd_Data+1
  1026  0C7A  3032               	movlw	50
  1027  0C7B  2093  120A  158A   	fcall	_Write_Cmd_Data
  1028                           ;NBCTFT.C: 450: Write_Cmd_Data(0x0035, 0x0206);
  1029  0C7E  3006               	movlw	6
  1030  0C7F  00D4               	movwf	?_Write_Cmd_Data
  1031  0C80  3002               	movlw	2
  1032  0C81  00D5               	movwf	?_Write_Cmd_Data+1
  1033  0C82  3035               	movlw	53
  1034  0C83  2093  120A  158A   	fcall	_Write_Cmd_Data
  1035                           ;NBCTFT.C: 451: Write_Cmd_Data(0x0036, 0x0808);
  1036  0C86  3008               	movlw	8
  1037  0C87  00D4               	movwf	?_Write_Cmd_Data
  1038  0C88  00D5               	movwf	?_Write_Cmd_Data+1
  1039  0C89  3036               	movlw	54
  1040  0C8A  2093  120A  158A   	fcall	_Write_Cmd_Data
  1041                           ;NBCTFT.C: 452: Write_Cmd_Data(0x0037, 0x0206);
  1042  0C8D  3006               	movlw	6
  1043  0C8E  00D4               	movwf	?_Write_Cmd_Data
  1044  0C8F  3002               	movlw	2
  1045  0C90  00D5               	movwf	?_Write_Cmd_Data+1
  1046  0C91  3037               	movlw	55
  1047  0C92  2093  120A  158A   	fcall	_Write_Cmd_Data
  1048                           ;NBCTFT.C: 453: Write_Cmd_Data(0x0038, 0x0504);
  1049  0C95  3004               	movlw	4
  1050  0C96  00D4               	movwf	?_Write_Cmd_Data
  1051  0C97  3005               	movlw	5
  1052  0C98  00D5               	movwf	?_Write_Cmd_Data+1
  1053  0C99  3038               	movlw	56
  1054  0C9A  2093  120A  158A   	fcall	_Write_Cmd_Data
  1055                           ;NBCTFT.C: 454: Write_Cmd_Data(0x0039, 0x0007);
  1056  0C9D  3007               	movlw	7
  1057  0C9E  00D4               	movwf	?_Write_Cmd_Data
  1058  0C9F  01D5               	clrf	?_Write_Cmd_Data+1
  1059  0CA0  3039               	movlw	57
  1060  0CA1  2093  120A  158A   	fcall	_Write_Cmd_Data
  1061                           ;NBCTFT.C: 455: Write_Cmd_Data(0x003C, 0x0105);
  1062  0CA4  3005               	movlw	5
  1063  0CA5  00D4               	movwf	?_Write_Cmd_Data
  1064  0CA6  3001               	movlw	1
  1065  0CA7  00D5               	movwf	?_Write_Cmd_Data+1
  1066  0CA8  303C               	movlw	60
  1067  0CA9  2093  120A  158A   	fcall	_Write_Cmd_Data
  1068                           ;NBCTFT.C: 456: Write_Cmd_Data(0x003D, 0x0808);
  1069  0CAC  3008               	movlw	8
  1070  0CAD  00D4               	movwf	?_Write_Cmd_Data
  1071  0CAE  00D5               	movwf	?_Write_Cmd_Data+1
  1072  0CAF  303D               	movlw	61
  1073  0CB0  2093  120A  158A   	fcall	_Write_Cmd_Data
  1074                           ;NBCTFT.C: 458: Write_Cmd_Data(0x0050, 0x0000);
  1075  0CB3  01D4               	clrf	?_Write_Cmd_Data
  1076  0CB4  01D5               	clrf	?_Write_Cmd_Data+1
  1077  0CB5  3050               	movlw	80
  1078  0CB6  2093  120A  158A   	fcall	_Write_Cmd_Data
  1079                           ;NBCTFT.C: 459: Write_Cmd_Data(0x0051, 0x00EF);
  1080  0CB9  30EF               	movlw	239
  1081  0CBA  00D4               	movwf	?_Write_Cmd_Data
  1082  0CBB  01D5               	clrf	?_Write_Cmd_Data+1
  1083  0CBC  3051               	movlw	81
  1084  0CBD  2093  120A  158A   	fcall	_Write_Cmd_Data
  1085                           ;NBCTFT.C: 460: Write_Cmd_Data(0x0052, 0x0000);
  1086  0CC0  01D4               	clrf	?_Write_Cmd_Data
  1087  0CC1  01D5               	clrf	?_Write_Cmd_Data+1
  1088  0CC2  3052               	movlw	82
  1089  0CC3  2093  120A  158A   	fcall	_Write_Cmd_Data
  1090                           ;NBCTFT.C: 461: delayms(30);
  1091  0CC6  301E               	movlw	30
  1092  0CC7  00AA               	movwf	?_delayms
  1093  0CC8  01AB               	clrf	?_delayms+1
  1094  0CC9  20D6               	fcall	_delayms
  1095                           ;NBCTFT.C: 462: Write_Cmd_Data(0x0053, 0x013F);
  1096  0CCA  303F               	movlw	63
  1097  0CCB  00D4               	movwf	?_Write_Cmd_Data
  1098  0CCC  3001               	movlw	1
  1099  0CCD  00D5               	movwf	?_Write_Cmd_Data+1
  1100  0CCE  3053               	movlw	83
  1101  0CCF  2093  120A  158A   	fcall	_Write_Cmd_Data
  1102                           ;NBCTFT.C: 463: delayms(30);
  1103  0CD2  301E               	movlw	30
  1104  0CD3  00AA               	movwf	?_delayms
  1105  0CD4  01AB               	clrf	?_delayms+1
  1106  0CD5  20D6               	fcall	_delayms
  1107                           ;NBCTFT.C: 464: Write_Cmd_Data(0x0060, 0xA700);
  1108  0CD6  01D4               	clrf	?_Write_Cmd_Data
  1109  0CD7  30A7               	movlw	167
  1110  0CD8  00D5               	movwf	?_Write_Cmd_Data+1
  1111  0CD9  3060               	movlw	96
  1112  0CDA  2093  120A  158A   	fcall	_Write_Cmd_Data
  1113                           ;NBCTFT.C: 465: Write_Cmd_Data(0x0061, 0x0001);
  1114  0CDD  01D4               	clrf	?_Write_Cmd_Data
  1115  0CDE  0AD4               	incf	?_Write_Cmd_Data
  1116  0CDF  01D5               	clrf	?_Write_Cmd_Data+1
  1117  0CE0  3061               	movlw	97
  1118  0CE1  2093  120A  158A   	fcall	_Write_Cmd_Data
  1119                           ;NBCTFT.C: 466: Write_Cmd_Data(0x006A, 0x0000);
  1120  0CE4  01D4               	clrf	?_Write_Cmd_Data
  1121  0CE5  01D5               	clrf	?_Write_Cmd_Data+1
  1122  0CE6  306A               	movlw	106
  1123  0CE7  2093  120A  158A   	fcall	_Write_Cmd_Data
  1124                           ;NBCTFT.C: 468: Write_Cmd_Data(0x0080, 0x0000);
  1125  0CEA  01D4               	clrf	?_Write_Cmd_Data
  1126  0CEB  01D5               	clrf	?_Write_Cmd_Data+1
  1127  0CEC  3080               	movlw	-128
  1128  0CED  2093  120A  158A   	fcall	_Write_Cmd_Data
  1129                           ;NBCTFT.C: 469: Write_Cmd_Data(0x0081, 0x0000);
  1130  0CF0  01D4               	clrf	?_Write_Cmd_Data
  1131  0CF1  01D5               	clrf	?_Write_Cmd_Data+1
  1132  0CF2  3081               	movlw	-127
  1133  0CF3  2093  120A  158A   	fcall	_Write_Cmd_Data
  1134                           ;NBCTFT.C: 470: Write_Cmd_Data(0x0082,0x0000);
  1135  0CF6  01D4               	clrf	?_Write_Cmd_Data
  1136  0CF7  01D5               	clrf	?_Write_Cmd_Data+1
  1137  0CF8  3082               	movlw	-126
  1138  0CF9  2093  120A  158A   	fcall	_Write_Cmd_Data
  1139                           ;NBCTFT.C: 471: Write_Cmd_Data(0x0083,0x0000);
  1140  0CFC  01D4               	clrf	?_Write_Cmd_Data
  1141  0CFD  01D5               	clrf	?_Write_Cmd_Data+1
  1142  0CFE  3083               	movlw	-125
  1143  0CFF  2093  120A  158A   	fcall	_Write_Cmd_Data
  1144                           ;NBCTFT.C: 472: Write_Cmd_Data(0x0084,0x0000);
  1145  0D02  01D4               	clrf	?_Write_Cmd_Data
  1146  0D03  01D5               	clrf	?_Write_Cmd_Data+1
  1147  0D04  3084               	movlw	-124
  1148  0D05  2093  120A  158A   	fcall	_Write_Cmd_Data
  1149                           ;NBCTFT.C: 473: Write_Cmd_Data(0x0085,0x0000);
  1150  0D08  01D4               	clrf	?_Write_Cmd_Data
  1151  0D09  01D5               	clrf	?_Write_Cmd_Data+1
  1152  0D0A  3085               	movlw	-123
  1153  0D0B  2093  120A  158A   	fcall	_Write_Cmd_Data
  1154                           ;NBCTFT.C: 475: Write_Cmd_Data(0x0090, 0x0010);
  1155  0D0E  3010               	movlw	16
  1156  0D0F  00D4               	movwf	?_Write_Cmd_Data
  1157  0D10  01D5               	clrf	?_Write_Cmd_Data+1
  1158  0D11  3090               	movlw	-112
  1159  0D12  2093  120A  158A   	fcall	_Write_Cmd_Data
  1160                           ;NBCTFT.C: 476: Write_Cmd_Data(0x0092, 0x0000);
  1161  0D15  01D4               	clrf	?_Write_Cmd_Data
  1162  0D16  01D5               	clrf	?_Write_Cmd_Data+1
  1163  0D17  3092               	movlw	-110
  1164  0D18  2093  120A  158A   	fcall	_Write_Cmd_Data
  1165                           ;NBCTFT.C: 477: Write_Cmd_Data(0x0093, 0x0003);
  1166  0D1B  3003               	movlw	3
  1167  0D1C  00D4               	movwf	?_Write_Cmd_Data
  1168  0D1D  01D5               	clrf	?_Write_Cmd_Data+1
  1169  0D1E  3093               	movlw	-109
  1170  0D1F  2093  120A  158A   	fcall	_Write_Cmd_Data
  1171                           ;NBCTFT.C: 478: Write_Cmd_Data(0x0095, 0x0110);
  1172  0D22  3010               	movlw	16
  1173  0D23  00D4               	movwf	?_Write_Cmd_Data
  1174  0D24  3001               	movlw	1
  1175  0D25  00D5               	movwf	?_Write_Cmd_Data+1
  1176  0D26  3095               	movlw	-107
  1177  0D27  2093  120A  158A   	fcall	_Write_Cmd_Data
  1178                           ;NBCTFT.C: 479: Write_Cmd_Data(0x0097, 0x0000);
  1179  0D2A  01D4               	clrf	?_Write_Cmd_Data
  1180  0D2B  01D5               	clrf	?_Write_Cmd_Data+1
  1181  0D2C  3097               	movlw	-105
  1182  0D2D  2093  120A  158A   	fcall	_Write_Cmd_Data
  1183                           ;NBCTFT.C: 480: Write_Cmd_Data(0x0098, 0x0000);
  1184  0D30  01D4               	clrf	?_Write_Cmd_Data
  1185  0D31  01D5               	clrf	?_Write_Cmd_Data+1
  1186  0D32  3098               	movlw	-104
  1187  0D33  2093  120A  158A   	fcall	_Write_Cmd_Data
  1188                           ;NBCTFT.C: 481: Write_Cmd_Data(0x0007, 0x0133);
  1189  0D36  3033               	movlw	51
  1190  0D37  00D4               	movwf	?_Write_Cmd_Data
  1191  0D38  3001               	movlw	1
  1192  0D39  00D5               	movwf	?_Write_Cmd_Data+1
  1193  0D3A  3007               	movlw	7
  1194  0D3B  2893               	ljmp	_Write_Cmd_Data
  1195  0D3C                     _Put16x16
  1196                           ;	_j assigned to ?a_Put16x16+0
  1197  0000                     _Put16x16$j	set	?a_Put16x16
  1198                           ;	_i assigned to ?a_Put16x16+2
  1199  0000                     _Put16x16$i	set	?a_Put16x16+2
  1200                           ;	_k assigned to ?a_Put16x16+4
  1201  0000                     _Put16x16$k	set	?a_Put16x16+4
  1202                           ;	_m assigned to ?a_Put16x16+6
  1203  0000                     _Put16x16$m	set	?a_Put16x16+6
  1204                           ;NBCTFT.C: 189: void Put16x16(unsigned short x,
      +                           unsigned short y, unsigned char g[], unsigned 
      +                          int fColor,unsigned int bColor)
  1205  0D3C  0183               	clrf	3	;select bank 0
  1206  0D3D  0839               	movf	?_Put16x16,w
  1207  0D3E  00CC               	movwf	?_LCD_SetPos
  1208  0D3F  083A               	movf	?_Put16x16+1,w
  1209  0D40  00CD               	movwf	?_LCD_SetPos+1
  1210  0D41  300F               	movlw	15
  1211  0D42  0739               	addwf	?_Put16x16,w
  1212  0D43  00CE               	movwf	?_LCD_SetPos+2
  1213  0D44  3000               	movlw	0
  1214  0D45  1803               	btfsc	3,0
  1215  0D46  3001               	movlw	1
  1216  0D47  073A               	addwf	?_Put16x16+1,w
  1217  0D48  00CF               	movwf	?_LCD_SetPos+3
  1218  0D49  083B               	movf	?_Put16x16+2,w
  1219  0D4A  00D0               	movwf	?_LCD_SetPos+4
  1220  0D4B  083C               	movf	?_Put16x16+3,w
  1221  0D4C  00D1               	movwf	?_LCD_SetPos+5
  1222  0D4D  300F               	movlw	15
  1223  0D4E  073B               	addwf	?_Put16x16+2,w
  1224  0D4F  00D2               	movwf	?_LCD_SetPos+6
  1225  0D50  3000               	movlw	0
  1226  0D51  1803               	btfsc	3,0
  1227  0D52  3001               	movlw	1
  1228  0D53  073C               	addwf	?_Put16x16+3,w
  1229  0D54  00D3               	movwf	?_LCD_SetPos+7
  1230  0D55  20A1               	fcall	_LCD_SetPos
  1231                           ;NBCTFT.C: 195: for (k=0;k<16;k++)
  1232  0D56  01C6               	clrf	?a_Put16x16+4
  1233  0D57  01C7               	clrf	?a_Put16x16+5
  1234  0D58                     l32
  1235                           ;NBCTFT.C: 196: {
  1236  0D58  083D               	movf	?_Put16x16+4,w
  1237  0D59  0084               	movwf	4
  1238  0D5A  1383               	bcf	3,7
  1239  0D5B  0800               	movf	0,w
  1240  0D5C  00CA               	movwf	?a_Put16x16+8
  1241  0D5D  3022               	movlw	34
  1242  0D5E  00F6               	movwf	btemp+2
  1243  0D5F  01F7               	clrf	btemp+3
  1244  0D60  0847               	movf	?a_Put16x16+5,w
  1245  0D61  00F5               	movwf	btemp+1
  1246  0D62  0846               	movf	?a_Put16x16+4,w
  1247  0D63  00F4               	movwf	btemp
  1248  0D64  160A  118A  254D   	fcall	lwmul
  1249  0D67  0879               	movf	btemp+5,w
  1250  0D68  3E06               	addlw	high _ch16
  1251  0D69  00DC               	movwf	code_ptr+1
  1252  0D6A  0878               	movf	btemp+4,w
  1253  0D6B  3E3A               	addlw	low _ch16
  1254  0D6C  1803               	btfsc	3,0
  1255  0D6D  0ADC               	incf	code_ptr+1
  1256  0D6E  120A  118A  2024   	fcall	string_table
      +       120A  158A         
  1257  0D73  064A               	xorwf	?a_Put16x16+8,w
  1258  0D74  1D03               	btfss	3,2
  1259  0D75  2DE2               	goto	l35
  1260  0D76  0A3D               	incf	?_Put16x16+4,w
  1261  0D77  0084               	movwf	4
  1262  0D78  1383               	bcf	3,7
  1263  0D79  0800               	movf	0,w
  1264  0D7A  00CB               	movwf	?a_Put16x16+9
  1265  0D7B  3022               	movlw	34
  1266  0D7C  00F6               	movwf	btemp+2
  1267  0D7D  01F7               	clrf	btemp+3
  1268  0D7E  0847               	movf	?a_Put16x16+5,w
  1269  0D7F  00F5               	movwf	btemp+1
  1270  0D80  0846               	movf	?a_Put16x16+4,w
  1271  0D81  00F4               	movwf	btemp
  1272  0D82  160A  118A  254D   	fcall	lwmul
  1273  0D85  3001               	movlw	1
  1274  0D86  07F8               	addwf	btemp+4
  1275  0D87  1803               	btfsc	3,0
  1276  0D88  0AF9               	incf	btemp+5
  1277  0D89  0879               	movf	btemp+5,w
  1278  0D8A  3E06               	addlw	high _ch16
  1279  0D8B  00DC               	movwf	code_ptr+1
  1280  0D8C  0878               	movf	btemp+4,w
  1281  0D8D  3E3A               	addlw	low _ch16
  1282  0D8E  1803               	btfsc	3,0
  1283  0D8F  0ADC               	incf	code_ptr+1
  1284  0D90  120A  118A  2024   	fcall	string_table
      +       120A  158A         
  1285  0D95  064B               	xorwf	?a_Put16x16+9,w
  1286  0D96  1D03               	btfss	3,2
  1287  0D97  2DE2               	goto	l35
  1288                           ;NBCTFT.C: 198: {
  1289  0D98  01C4               	clrf	?a_Put16x16+2
  1290  0D99  01C5               	clrf	?a_Put16x16+3
  1291  0D9A                     l36
  1292                           ;NBCTFT.C: 200: {
  1293  0D9A  3022               	movlw	34
  1294  0D9B  00F6               	movwf	btemp+2
  1295  0D9C  01F7               	clrf	btemp+3
  1296  0D9D  0847               	movf	?a_Put16x16+5,w
  1297  0D9E  00F5               	movwf	btemp+1
  1298  0D9F  0846               	movf	?a_Put16x16+4,w
  1299  0DA0  00F4               	movwf	btemp
  1300  0DA1  160A  118A  254D   	fcall	lwmul
  1301  0DA4  0844               	movf	?a_Put16x16+2,w
  1302  0DA5  07F8               	addwf	btemp+4
  1303  0DA6  1803               	btfsc	3,0
  1304  0DA7  0AF9               	incf	btemp+5
  1305  0DA8  0845               	movf	?a_Put16x16+3,w
  1306  0DA9  07F9               	addwf	btemp+5
  1307  0DAA  3002               	movlw	2
  1308  0DAB  07F8               	addwf	btemp+4
  1309  0DAC  1803               	btfsc	3,0
  1310  0DAD  0AF9               	incf	btemp+5
  1311  0DAE  0879               	movf	btemp+5,w
  1312  0DAF  3E06               	addlw	high _ch16
  1313  0DB0  00DC               	movwf	code_ptr+1
  1314  0DB1  0878               	movf	btemp+4,w
  1315  0DB2  3E3A               	addlw	low _ch16
  1316  0DB3  1803               	btfsc	3,0
  1317  0DB4  0ADC               	incf	code_ptr+1
  1318  0DB5  120A  118A  2024   	fcall	string_table
      +       120A  158A         
  1319  0DBA  00C8               	movwf	?a_Put16x16+6
  1320  0DBB  01C9               	clrf	?a_Put16x16+7
  1321                           ;NBCTFT.C: 202: for(j=0;j<8;j++)
  1322  0DBC  01C2               	clrf	?a_Put16x16
  1323  0DBD  01C3               	clrf	?a_Put16x16+1
  1324  0DBE                     l39
  1325                           ;NBCTFT.C: 203: {
  1326  0DBE  1FC8               	btfss	?a_Put16x16+6,7
  1327  0DBF  2DC4               	goto	l42
  1328  0DC0  083E               	movf	?_Put16x16+5,w
  1329  0DC1  00CC               	movwf	?_Write_Data_U16
  1330  0DC2  083F               	movf	?_Put16x16+6,w
  1331  0DC3  2DC7               	goto	L2
  1332  0DC4                     l42
  1333                           ;NBCTFT.C: 205: else Write_Data_U16(bColor);
  1334  0DC4  0840               	movf	?_Put16x16+7,w
  1335  0DC5  00CC               	movwf	?_Write_Data_U16
  1336  0DC6  0841               	movf	?_Put16x16+8,w
  1337  0DC7                     L2
  1338  0DC7  00CD               	movwf	?_Write_Data_U16+1
  1339  0DC8  207C  120A  158A   	fcall	_Write_Data_U16
  1340                           ;NBCTFT.C: 206: m<<=1;
  1341  0DCB  1003               	bcf	3,0
  1342  0DCC  0DC8               	rlf	?a_Put16x16+6
  1343  0DCD  0DC9               	rlf	?a_Put16x16+7
  1344  0DCE  0AC2               	incf	?a_Put16x16
  1345  0DCF  1903               	btfsc	3,2
  1346  0DD0  0AC3               	incf	?a_Put16x16+1
  1347  0DD1  3000               	movlw	0
  1348  0DD2  0243               	subwf	?a_Put16x16+1,w
  1349  0DD3  3008               	movlw	8
  1350  0DD4  1903               	btfsc	3,2
  1351  0DD5  0242               	subwf	?a_Put16x16,w
  1352  0DD6  1C03               	btfss	3,0
  1353  0DD7  2DBE               	goto	l39
  1354  0DD8  0AC4               	incf	?a_Put16x16+2
  1355  0DD9  1903               	btfsc	3,2
  1356  0DDA  0AC5               	incf	?a_Put16x16+3
  1357  0DDB  3000               	movlw	0
  1358  0DDC  0245               	subwf	?a_Put16x16+3,w
  1359  0DDD  3020               	movlw	32
  1360  0DDE  1903               	btfsc	3,2
  1361  0DDF  0244               	subwf	?a_Put16x16+2,w
  1362  0DE0  1C03               	btfss	3,0
  1363  0DE1  2D9A               	goto	l36
  1364  0DE2                     l35
  1365  0DE2  0AC6               	incf	?a_Put16x16+4
  1366  0DE3  1903               	btfsc	3,2
  1367  0DE4  0AC7               	incf	?a_Put16x16+5
  1368  0DE5  3000               	movlw	0
  1369  0DE6  0247               	subwf	?a_Put16x16+5,w
  1370  0DE7  3010               	movlw	16
  1371  0DE8  1903               	btfsc	3,2
  1372  0DE9  0246               	subwf	?a_Put16x16+4,w
  1373  0DEA  1803               	btfsc	3,0
  1374  0DEB  0008               	return
  1375  0DEC  2D58               	goto	l32
  1376  0DED                     _LCD_PutChar
  1377                           ;	_j assigned to ?a_LCD_PutChar+0
  1378  0000                     _LCD_PutChar$j	set	?a_LCD_PutChar
  1379                           ;	_i assigned to ?a_LCD_PutChar+2
  1380  0000                     _LCD_PutChar$i	set	?a_LCD_PutChar+2
  1381                           ;	_m assigned to ?a_LCD_PutChar+4
  1382  0000                     _LCD_PutChar$m	set	?a_LCD_PutChar+4
  1383                           ;NBCTFT.C: 161: void LCD_PutChar(unsigned short
      +                           x, unsigned short y, char c, unsigned int fCol
      +                          or, unsigned int bColor)
  1384  0DED  0183               	clrf	3	;select bank 0
  1385  0DEE  0839               	movf	?_LCD_PutChar,w
  1386  0DEF  00CC               	movwf	?_LCD_SetPos
  1387  0DF0  083A               	movf	?_LCD_PutChar+1,w
  1388  0DF1  00CD               	movwf	?_LCD_SetPos+1
  1389  0DF2  3007               	movlw	7
  1390  0DF3  0739               	addwf	?_LCD_PutChar,w
  1391  0DF4  00CE               	movwf	?_LCD_SetPos+2
  1392  0DF5  3000               	movlw	0
  1393  0DF6  1803               	btfsc	3,0
  1394  0DF7  3001               	movlw	1
  1395  0DF8  073A               	addwf	?_LCD_PutChar+1,w
  1396  0DF9  00CF               	movwf	?_LCD_SetPos+3
  1397  0DFA  083B               	movf	?_LCD_PutChar+2,w
  1398  0DFB  00D0               	movwf	?_LCD_SetPos+4
  1399  0DFC  083C               	movf	?_LCD_PutChar+3,w
  1400  0DFD  00D1               	movwf	?_LCD_SetPos+5
  1401  0DFE  300F               	movlw	15
  1402  0DFF  073B               	addwf	?_LCD_PutChar+2,w
  1403  0E00  00D2               	movwf	?_LCD_SetPos+6
  1404  0E01  3000               	movlw	0
  1405  0E02  1803               	btfsc	3,0
  1406  0E03  3001               	movlw	1
  1407  0E04  073C               	addwf	?_LCD_PutChar+3,w
  1408  0E05  00D3               	movwf	?_LCD_SetPos+7
  1409  0E06  20A1               	fcall	_LCD_SetPos
  1410                           ;NBCTFT.C: 165: for(i=0; i<16;i++) {
  1411  0E07  01C4               	clrf	?a_LCD_PutChar+2
  1412  0E08  01C5               	clrf	?a_LCD_PutChar+3
  1413  0E09                     l22
  1414                           ;NBCTFT.C: 166: unsigned char m=Font8x16[(c-0x2
      +                          0)*16+i];
  1415  0E09  083D               	movf	?_LCD_PutChar+4,w
  1416  0E0A  00C7               	movwf	?a_LCD_PutChar+5
  1417  0E0B  01C8               	clrf	?a_LCD_PutChar+6
  1418  0E0C  0EC7               	swapf	?a_LCD_PutChar+5
  1419  0E0D  0EC8               	swapf	?a_LCD_PutChar+6
  1420  0E0E  30F0               	movlw	240
  1421  0E0F  05C8               	andwf	?a_LCD_PutChar+6
  1422  0E10  0847               	movf	?a_LCD_PutChar+5,w
  1423  0E11  390F               	andlw	15
  1424  0E12  04C8               	iorwf	?a_LCD_PutChar+6
  1425  0E13  30F0               	movlw	240
  1426  0E14  05C7               	andwf	?a_LCD_PutChar+5
  1427  0E15  0844               	movf	?a_LCD_PutChar+2,w
  1428  0E16  07C7               	addwf	?a_LCD_PutChar+5
  1429  0E17  1803               	btfsc	3,0
  1430  0E18  0AC8               	incf	?a_LCD_PutChar+6
  1431  0E19  0845               	movf	?a_LCD_PutChar+3,w
  1432  0E1A  07C8               	addwf	?a_LCD_PutChar+6
  1433  0E1B  3000               	movlw	0
  1434  0E1C  07C7               	addwf	?a_LCD_PutChar+5
  1435  0E1D  1803               	btfsc	3,0
  1436  0E1E  0AC8               	incf	?a_LCD_PutChar+6
  1437  0E1F  30FE               	movlw	254
  1438  0E20  07C8               	addwf	?a_LCD_PutChar+6
  1439  0E21  0848               	movf	?a_LCD_PutChar+6,w
  1440  0E22  3E00               	addlw	high _Font8x16
  1441  0E23  00DC               	movwf	code_ptr+1
  1442  0E24  0847               	movf	?a_LCD_PutChar+5,w
  1443  0E25  3E3A               	addlw	low _Font8x16
  1444  0E26  1803               	btfsc	3,0
  1445  0E27  0ADC               	incf	code_ptr+1
  1446  0E28  120A  118A  2024   	fcall	string_table
      +       120A  158A         
  1447  0E2D  00C6               	movwf	?a_LCD_PutChar+4
  1448                           ;NBCTFT.C: 167: for(j=0;j<8;j++) {
  1449  0E2E  01C2               	clrf	?a_LCD_PutChar
  1450  0E2F  01C3               	clrf	?a_LCD_PutChar+1
  1451  0E30                     l25
  1452                           ;NBCTFT.C: 168: if((m&0x80)==0x80) {
  1453  0E30  1FC6               	btfss	?a_LCD_PutChar+4,7
  1454  0E31  2E36               	goto	l28
  1455                           ;NBCTFT.C: 169: Write_Data_U16(fColor);
  1456  0E32  083E               	movf	?_LCD_PutChar+5,w
  1457  0E33  00CC               	movwf	?_Write_Data_U16
  1458  0E34  083F               	movf	?_LCD_PutChar+6,w
  1459  0E35  2E39               	goto	L1
  1460                           ;NBCTFT.C: 170: }
  1461  0E36                     l28
  1462                           ;NBCTFT.C: 171: else {
  1463  0E36  0840               	movf	?_LCD_PutChar+7,w
  1464  0E37  00CC               	movwf	?_Write_Data_U16
  1465  0E38  0841               	movf	?_LCD_PutChar+8,w
  1466  0E39                     L1
  1467  0E39  00CD               	movwf	?_Write_Data_U16+1
  1468  0E3A  207C  120A  158A   	fcall	_Write_Data_U16
  1469                           ;NBCTFT.C: 173: }
  1470  0E3D  1003               	bcf	3,0
  1471  0E3E  0DC6               	rlf	?a_LCD_PutChar+4
  1472  0E3F  0AC2               	incf	?a_LCD_PutChar
  1473  0E40  1903               	btfsc	3,2
  1474  0E41  0AC3               	incf	?a_LCD_PutChar+1
  1475  0E42  3000               	movlw	0
  1476  0E43  0243               	subwf	?a_LCD_PutChar+1,w
  1477  0E44  3008               	movlw	8
  1478  0E45  1903               	btfsc	3,2
  1479  0E46  0242               	subwf	?a_LCD_PutChar,w
  1480  0E47  1C03               	btfss	3,0
  1481  0E48  2E30               	goto	l25
  1482  0E49  0AC4               	incf	?a_LCD_PutChar+2
  1483  0E4A  1903               	btfsc	3,2
  1484  0E4B  0AC5               	incf	?a_LCD_PutChar+3
  1485  0E4C  3000               	movlw	0
  1486  0E4D  0245               	subwf	?a_LCD_PutChar+3,w
  1487  0E4E  3010               	movlw	16
  1488  0E4F  1903               	btfsc	3,2
  1489  0E50  0244               	subwf	?a_LCD_PutChar+2,w
  1490  0E51  1803               	btfsc	3,0
  1491  0E52  0008               	return
  1492  0E53  2E09               	goto	l22
  1493  0E54                     _LCD_PutString
  1494                           ;	_l assigned to ?a_LCD_PutString+0
  1495  0000                     _LCD_PutString$l	set	?a_LCD_PutString
  1496                           ;	_i assigned to ?a_LCD_PutString+1
  1497  0000                     _LCD_PutString$i	set	?a_LCD_PutString+1
  1498                           ;	_gbk assigned to ?a_LCD_PutString+2
  1499  0000                     _LCD_PutString$gbk	set	?a_LCD_PutString+2
  1500                           ;NBCTFT.C: 220: void LCD_PutString(unsigned int
      +                           x, unsigned int y, unsigned char tab0[], unsig
      +                          ned int fColor, unsigned int bColor)
  1501  0E54  0183               	clrf	3	;select bank 0
  1502  0E55  01B3               	clrf	?a_LCD_PutString
  1503  0E56  01B4               	clrf	?a_LCD_PutString+1
  1504                           ;NBCTFT.C: 224: while(tab0[i])
  1505  0E57  2EBD               	goto	l45
  1506  0E58                     l46
  1507                           ;NBCTFT.C: 225: {
  1508  0E58  0834               	movf	?a_LCD_PutString+1,w
  1509  0E59  072E               	addwf	?_LCD_PutString+4,w
  1510  0E5A  0084               	movwf	4
  1511  0E5B  1383               	bcf	3,7
  1512  0E5C  3080               	movlw	-128
  1513  0E5D  0200               	subwf	0,w
  1514  0E5E  1803               	btfsc	3,0
  1515  0E5F  2E89               	goto	l48
  1516                           ;NBCTFT.C: 227: {
  1517  0E60  0833               	movf	?a_LCD_PutString,w
  1518  0E61  00B7               	movwf	?a_LCD_PutString+4
  1519  0E62  01B8               	clrf	?a_LCD_PutString+5
  1520  0E63  1003               	bcf	3,0
  1521  0E64  0DB7               	rlf	?a_LCD_PutString+4
  1522  0E65  0DB8               	rlf	?a_LCD_PutString+5
  1523  0E66  1003               	bcf	3,0
  1524  0E67  0DB7               	rlf	?a_LCD_PutString+4
  1525  0E68  0DB8               	rlf	?a_LCD_PutString+5
  1526  0E69  1003               	bcf	3,0
  1527  0E6A  0DB7               	rlf	?a_LCD_PutString+4
  1528  0E6B  0DB8               	rlf	?a_LCD_PutString+5
  1529  0E6C  082A               	movf	?_LCD_PutString,w
  1530  0E6D  0737               	addwf	?a_LCD_PutString+4,w
  1531  0E6E  00B9               	movwf	?_LCD_PutChar
  1532  0E6F  082B               	movf	?_LCD_PutString+1,w
  1533  0E70  1803               	btfsc	3,0
  1534  0E71  0A2B               	incf	?_LCD_PutString+1,w
  1535  0E72  0738               	addwf	?a_LCD_PutString+5,w
  1536  0E73  00BA               	movwf	?_LCD_PutChar+1
  1537  0E74  082C               	movf	?_LCD_PutString+2,w
  1538  0E75  00BB               	movwf	?_LCD_PutChar+2
  1539  0E76  082D               	movf	?_LCD_PutString+3,w
  1540  0E77  00BC               	movwf	?_LCD_PutChar+3
  1541  0E78  0834               	movf	?a_LCD_PutString+1,w
  1542  0E79  072E               	addwf	?_LCD_PutString+4,w
  1543  0E7A  0084               	movwf	4
  1544  0E7B  0800               	movf	0,w
  1545  0E7C  00BD               	movwf	?_LCD_PutChar+4
  1546  0E7D  082F               	movf	?_LCD_PutString+5,w
  1547  0E7E  00BE               	movwf	?_LCD_PutChar+5
  1548  0E7F  0830               	movf	?_LCD_PutString+6,w
  1549  0E80  00BF               	movwf	?_LCD_PutChar+6
  1550  0E81  0831               	movf	?_LCD_PutString+7,w
  1551  0E82  00C0               	movwf	?_LCD_PutChar+7
  1552  0E83  0832               	movf	?_LCD_PutString+8,w
  1553  0E84  00C1               	movwf	?_LCD_PutChar+8
  1554  0E85  25ED               	fcall	_LCD_PutChar
  1555                           ;NBCTFT.C: 229: i++;l++;
  1556  0E86  0AB4               	incf	?a_LCD_PutString+1
  1557  0E87  0AB3               	incf	?a_LCD_PutString
  1558                           ;NBCTFT.C: 230: }
  1559  0E88  2EBD               	goto	l45
  1560  0E89                     l48
  1561                           ;NBCTFT.C: 231: else
  1562  0E89  0834               	movf	?a_LCD_PutString+1,w
  1563  0E8A  072E               	addwf	?_LCD_PutString+4,w
  1564  0E8B  0084               	movwf	4
  1565  0E8C  1383               	bcf	3,7
  1566  0E8D  0800               	movf	0,w
  1567  0E8E  00B5               	movwf	?a_LCD_PutString+2
  1568  0E8F  0834               	movf	?a_LCD_PutString+1,w
  1569  0E90  072E               	addwf	?_LCD_PutString+4,w
  1570  0E91  00B7               	movwf	?a_LCD_PutString+4
  1571  0E92  0A37               	incf	?a_LCD_PutString+4,w
  1572  0E93  0084               	movwf	4
  1573  0E94  1383               	bcf	3,7
  1574  0E95  0800               	movf	0,w
  1575  0E96  00B6               	movwf	?a_LCD_PutString+3
  1576                           ;NBCTFT.C: 234: Put16x16(x+l*8,y,gbk,fColor,bCo
      +                          lor);
  1577  0E97  0833               	movf	?a_LCD_PutString,w
  1578  0E98  00B7               	movwf	?a_LCD_PutString+4
  1579  0E99  01B8               	clrf	?a_LCD_PutString+5
  1580  0E9A  1003               	bcf	3,0
  1581  0E9B  0DB7               	rlf	?a_LCD_PutString+4
  1582  0E9C  0DB8               	rlf	?a_LCD_PutString+5
  1583  0E9D  1003               	bcf	3,0
  1584  0E9E  0DB7               	rlf	?a_LCD_PutString+4
  1585  0E9F  0DB8               	rlf	?a_LCD_PutString+5
  1586  0EA0  1003               	bcf	3,0
  1587  0EA1  0DB7               	rlf	?a_LCD_PutString+4
  1588  0EA2  0DB8               	rlf	?a_LCD_PutString+5
  1589  0EA3  082A               	movf	?_LCD_PutString,w
  1590  0EA4  0737               	addwf	?a_LCD_PutString+4,w
  1591  0EA5  00B9               	movwf	?_Put16x16
  1592  0EA6  082B               	movf	?_LCD_PutString+1,w
  1593  0EA7  1803               	btfsc	3,0
  1594  0EA8  0A2B               	incf	?_LCD_PutString+1,w
  1595  0EA9  0738               	addwf	?a_LCD_PutString+5,w
  1596  0EAA  00BA               	movwf	?_Put16x16+1
  1597  0EAB  082C               	movf	?_LCD_PutString+2,w
  1598  0EAC  00BB               	movwf	?_Put16x16+2
  1599  0EAD  082D               	movf	?_LCD_PutString+3,w
  1600  0EAE  00BC               	movwf	?_Put16x16+3
  1601  0EAF  3035               	movlw	?a_LCD_PutString+2
  1602  0EB0  00BD               	movwf	?_Put16x16+4
  1603  0EB1  082F               	movf	?_LCD_PutString+5,w
  1604  0EB2  00BE               	movwf	?_Put16x16+5
  1605  0EB3  0830               	movf	?_LCD_PutString+6,w
  1606  0EB4  00BF               	movwf	?_Put16x16+6
  1607  0EB5  0831               	movf	?_LCD_PutString+7,w
  1608  0EB6  00C0               	movwf	?_Put16x16+7
  1609  0EB7  0832               	movf	?_LCD_PutString+8,w
  1610  0EB8  00C1               	movwf	?_Put16x16+8
  1611  0EB9  253C               	fcall	_Put16x16
  1612                           ;NBCTFT.C: 235: i+=2;l+=2;
  1613  0EBA  3002               	movlw	2
  1614  0EBB  07B4               	addwf	?a_LCD_PutString+1
  1615  0EBC  07B3               	addwf	?a_LCD_PutString
  1616  0EBD                     l45
  1617  0EBD  0834               	movf	?a_LCD_PutString+1,w
  1618  0EBE  072E               	addwf	?_LCD_PutString+4,w
  1619  0EBF  0084               	movwf	4
  1620  0EC0  1383               	bcf	3,7
  1621  0EC1  0880               	movf	0
  1622  0EC2  1903               	btfsc	3,2
  1623  0EC3  0008               	return
  1624  0EC4  2E58               	goto	l46
  1625                           
  1626                           	psect	text6
  1627  157F                     _CLR_Screen
  1628                           ;	_i assigned to ?a_CLR_Screen+0
  1629  0000                     _CLR_Screen$i	set	?a_CLR_Screen
  1630                           ;	_j assigned to ?a_CLR_Screen+2
  1631  0000                     _CLR_Screen$j	set	?a_CLR_Screen+2
  1632                           ;NBCTFT.C: 141: void CLR_Screen(unsigned int bC
      +                          olor)
  1633  157F  0183               	clrf	3	;select bank 0
  1634  1580  01CC               	clrf	?_LCD_SetPos
  1635  1581  01CD               	clrf	?_LCD_SetPos+1
  1636  1582  30F0               	movlw	240
  1637  1583  00CE               	movwf	?_LCD_SetPos+2
  1638  1584  01CF               	clrf	?_LCD_SetPos+3
  1639  1585  01D0               	clrf	?_LCD_SetPos+4
  1640  1586  01D1               	clrf	?_LCD_SetPos+5
  1641  1587  3040               	movlw	64
  1642  1588  00D2               	movwf	?_LCD_SetPos+6
  1643  1589  3001               	movlw	1
  1644  158A  00D3               	movwf	?_LCD_SetPos+7
  1645  158B  120A  158A  20A1   	fcall	_LCD_SetPos
  1646                           ;NBCTFT.C: 145: for (i=0;i<320;i++)
  1647  158E  01AC               	clrf	?a_CLR_Screen
  1648  158F  01AD               	clrf	?a_CLR_Screen+1
  1649  1590                     l15
  1650                           ;NBCTFT.C: 146: {
  1651  1590  01AE               	clrf	?a_CLR_Screen+2
  1652  1591  01AF               	clrf	?a_CLR_Screen+3
  1653  1592                     l18
  1654                           ;NBCTFT.C: 148: Write_Data_U16(bColor);
  1655  1592  082A               	movf	?_CLR_Screen,w
  1656  1593  00CC               	movwf	?_Write_Data_U16
  1657  1594  082B               	movf	?_CLR_Screen+1,w
  1658  1595  00CD               	movwf	?_Write_Data_U16+1
  1659  1596  120A  158A  207C   	fcall	_Write_Data_U16
      +       160A  118A         
  1660  159B  0AAE               	incf	?a_CLR_Screen+2
  1661  159C  1903               	btfsc	3,2
  1662  159D  0AAF               	incf	?a_CLR_Screen+3
  1663  159E  3000               	movlw	0
  1664  159F  022F               	subwf	?a_CLR_Screen+3,w
  1665  15A0  30F0               	movlw	240
  1666  15A1  1903               	btfsc	3,2
  1667  15A2  022E               	subwf	?a_CLR_Screen+2,w
  1668  15A3  1C03               	btfss	3,0
  1669  15A4  2D92               	goto	l18
  1670  15A5  0AAC               	incf	?a_CLR_Screen
  1671  15A6  1903               	btfsc	3,2
  1672  15A7  0AAD               	incf	?a_CLR_Screen+1
  1673  15A8  3001               	movlw	1
  1674  15A9  022D               	subwf	?a_CLR_Screen+1,w
  1675  15AA  3040               	movlw	64
  1676  15AB  1903               	btfsc	3,2
  1677  15AC  022C               	subwf	?a_CLR_Screen,w
  1678  15AD  1803               	btfsc	3,0
  1679  15AE  0008               	return
  1680  15AF  2D90               	goto	l15
  1681                           
  1682                           	psect	strings
  1683  003A                     _Font8x16
  1684  003A  3400               	retlw	0
  1685  003B  3400               	retlw	0
  1686  003C  3400               	retlw	0
  1687  003D  3400               	retlw	0
  1688  003E  3400               	retlw	0
  1689  003F  3400               	retlw	0
  1690  0040  3400               	retlw	0
  1691  0041  3400               	retlw	0
  1692  0042  3400               	retlw	0
  1693  0043  3400               	retlw	0
  1694  0044  3400               	retlw	0
  1695  0045  3400               	retlw	0
  1696  0046  3400               	retlw	0
  1697  0047  3400               	retlw	0
  1698  0048  3400               	retlw	0
  1699  0049  3400               	retlw	0
  1700  004A  3400               	retlw	0
  1701  004B  3400               	retlw	0
  1702  004C  3400               	retlw	0
  1703  004D  3410               	retlw	16
  1704  004E  3410               	retlw	16
  1705  004F  3410               	retlw	16
  1706  0050  3410               	retlw	16
  1707  0051  3410               	retlw	16
  1708  0052  3410               	retlw	16
  1709  0053  3410               	retlw	16
  1710  0054  3400               	retlw	0
  1711  0055  3400               	retlw	0
  1712  0056  3418               	retlw	24
  1713  0057  3418               	retlw	24
  1714  0058  3400               	retlw	0
  1715  0059  3400               	retlw	0
  1716  005A  3400               	retlw	0
  1717  005B  3412               	retlw	18
  1718  005C  3436               	retlw	54
  1719  005D  3424               	retlw	36
  1720  005E  3448               	retlw	72
  1721  005F  3400               	retlw	0
  1722  0060  3400               	retlw	0
  1723  0061  3400               	retlw	0
  1724  0062  3400               	retlw	0
  1725  0063  3400               	retlw	0
  1726  0064  3400               	retlw	0
  1727  0065  3400               	retlw	0
  1728  0066  3400               	retlw	0
  1729  0067  3400               	retlw	0
  1730  0068  3400               	retlw	0
  1731  0069  3400               	retlw	0
  1732  006A  3400               	retlw	0
  1733  006B  3400               	retlw	0
  1734  006C  3400               	retlw	0
  1735  006D  3424               	retlw	36
  1736  006E  3424               	retlw	36
  1737  006F  3424               	retlw	36
  1738  0070  34FE               	retlw	-2
  1739  0071  3448               	retlw	72
  1740  0072  3448               	retlw	72
  1741  0073  3448               	retlw	72
  1742  0074  34FE               	retlw	-2
  1743  0075  3448               	retlw	72
  1744  0076  3448               	retlw	72
  1745  0077  3448               	retlw	72
  1746  0078  3400               	retlw	0
  1747  0079  3400               	retlw	0
  1748  007A  3400               	retlw	0
  1749  007B  3400               	retlw	0
  1750  007C  3410               	retlw	16
  1751  007D  3438               	retlw	56
  1752  007E  3454               	retlw	84
  1753  007F  3454               	retlw	84
  1754  0080  3450               	retlw	80
  1755  0081  3430               	retlw	48
  1756  0082  3418               	retlw	24
  1757  0083  3414               	retlw	20
  1758  0084  3414               	retlw	20
  1759  0085  3454               	retlw	84
  1760  0086  3454               	retlw	84
  1761  0087  3438               	retlw	56
  1762  0088  3410               	retlw	16
  1763  0089  3410               	retlw	16
  1764  008A  3400               	retlw	0
  1765  008B  3400               	retlw	0
  1766  008C  3400               	retlw	0
  1767  008D  3444               	retlw	68
  1768  008E  34A4               	retlw	-92
  1769  008F  34A8               	retlw	-88
  1770  0090  34A8               	retlw	-88
  1771  0091  34A8               	retlw	-88
  1772  0092  3454               	retlw	84
  1773  0093  341A               	retlw	26
  1774  0094  342A               	retlw	42
  1775  0095  342A               	retlw	42
  1776  0096  342A               	retlw	42
  1777  0097  3444               	retlw	68
  1778  0098  3400               	retlw	0
  1779  0099  3400               	retlw	0
  1780  009A  3400               	retlw	0
  1781  009B  3400               	retlw	0
  1782  009C  3400               	retlw	0
  1783  009D  3430               	retlw	48
  1784  009E  3448               	retlw	72
  1785  009F  3448               	retlw	72
  1786  00A0  3448               	retlw	72
  1787  00A1  3450               	retlw	80
  1788  00A2  346E               	retlw	110
  1789  00A3  34A4               	retlw	-92
  1790  00A4  3494               	retlw	-108
  1791  00A5  3488               	retlw	-120
  1792  00A6  3489               	retlw	-119
  1793  00A7  3476               	retlw	118
  1794  00A8  3400               	retlw	0
  1795  00A9  3400               	retlw	0
  1796  00AA  3400               	retlw	0
  1797  00AB  3460               	retlw	96
  1798  00AC  3460               	retlw	96
  1799  00AD  3420               	retlw	32
  1800  00AE  34C0               	retlw	-64
  1801  00AF  3400               	retlw	0
  1802  00B0  3400               	retlw	0
  1803  00B1  3400               	retlw	0
  1804  00B2  3400               	retlw	0
  1805  00B3  3400               	retlw	0
  1806  00B4  3400               	retlw	0
  1807  00B5  3400               	retlw	0
  1808  00B6  3400               	retlw	0
  1809  00B7  3400               	retlw	0
  1810  00B8  3400               	retlw	0
  1811  00B9  3400               	retlw	0
  1812  00BA  3400               	retlw	0
  1813  00BB  3402               	retlw	2
  1814  00BC  3404               	retlw	4
  1815  00BD  3408               	retlw	8
  1816  00BE  3408               	retlw	8
  1817  00BF  3410               	retlw	16
  1818  00C0  3410               	retlw	16
  1819  00C1  3410               	retlw	16
  1820  00C2  3410               	retlw	16
  1821  00C3  3410               	retlw	16
  1822  00C4  3410               	retlw	16
  1823  00C5  3408               	retlw	8
  1824  00C6  3408               	retlw	8
  1825  00C7  3404               	retlw	4
  1826  00C8  3402               	retlw	2
  1827  00C9  3400               	retlw	0
  1828  00CA  3400               	retlw	0
  1829  00CB  3440               	retlw	64
  1830  00CC  3420               	retlw	32
  1831  00CD  3410               	retlw	16
  1832  00CE  3410               	retlw	16
  1833  00CF  3408               	retlw	8
  1834  00D0  3408               	retlw	8
  1835  00D1  3408               	retlw	8
  1836  00D2  3408               	retlw	8
  1837  00D3  3408               	retlw	8
  1838  00D4  3408               	retlw	8
  1839  00D5  3410               	retlw	16
  1840  00D6  3410               	retlw	16
  1841  00D7  3420               	retlw	32
  1842  00D8  3440               	retlw	64
  1843  00D9  3400               	retlw	0
  1844  00DA  3400               	retlw	0
  1845  00DB  3400               	retlw	0
  1846  00DC  3400               	retlw	0
  1847  00DD  3400               	retlw	0
  1848  00DE  3410               	retlw	16
  1849  00DF  3410               	retlw	16
  1850  00E0  34D6               	retlw	-42
  1851  00E1  3438               	retlw	56
  1852  00E2  3438               	retlw	56
  1853  00E3  34D6               	retlw	-42
  1854  00E4  3410               	retlw	16
  1855  00E5  3410               	retlw	16
  1856  00E6  3400               	retlw	0
  1857  00E7  3400               	retlw	0
  1858  00E8  3400               	retlw	0
  1859  00E9  3400               	retlw	0
  1860  00EA  3400               	retlw	0
  1861  00EB  3400               	retlw	0
  1862  00EC  3400               	retlw	0
  1863  00ED  3400               	retlw	0
  1864  00EE  3410               	retlw	16
  1865  00EF  3410               	retlw	16
  1866  00F0  3410               	retlw	16
  1867  00F1  3410               	retlw	16
  1868  00F2  34FE               	retlw	-2
  1869  00F3  3410               	retlw	16
  1870  00F4  3410               	retlw	16
  1871  00F5  3410               	retlw	16
  1872  00F6  3410               	retlw	16
  1873  00F7  3400               	retlw	0
  1874  00F8  3400               	retlw	0
  1875  00F9  3400               	retlw	0
  1876  00FA  3400               	retlw	0
  1877  00FB  3400               	retlw	0
  1878  00FC  3400               	retlw	0
  1879  00FD  3400               	retlw	0
  1880  00FE  3400               	retlw	0
  1881  00FF  3400               	retlw	0
  1882  0100  3400               	retlw	0
  1883  0101  3400               	retlw	0
  1884  0102  3400               	retlw	0
  1885  0103  3400               	retlw	0
  1886  0104  3400               	retlw	0
  1887  0105  3400               	retlw	0
  1888  0106  3460               	retlw	96
  1889  0107  3460               	retlw	96
  1890  0108  3420               	retlw	32
  1891  0109  34C0               	retlw	-64
  1892  010A  3400               	retlw	0
  1893  010B  3400               	retlw	0
  1894  010C  3400               	retlw	0
  1895  010D  3400               	retlw	0
  1896  010E  3400               	retlw	0
  1897  010F  3400               	retlw	0
  1898  0110  3400               	retlw	0
  1899  0111  3400               	retlw	0
  1900  0112  347F               	retlw	127
  1901  0113  3400               	retlw	0
  1902  0114  3400               	retlw	0
  1903  0115  3400               	retlw	0
  1904  0116  3400               	retlw	0
  1905  0117  3400               	retlw	0
  1906  0118  3400               	retlw	0
  1907  0119  3400               	retlw	0
  1908  011A  3400               	retlw	0
  1909  011B  3400               	retlw	0
  1910  011C  3400               	retlw	0
  1911  011D  3400               	retlw	0
  1912  011E  3400               	retlw	0
  1913  011F  3400               	retlw	0
  1914  0120  3400               	retlw	0
  1915  0121  3400               	retlw	0
  1916  0122  3400               	retlw	0
  1917  0123  3400               	retlw	0
  1918  0124  3400               	retlw	0
  1919  0125  3400               	retlw	0
  1920  0126  3460               	retlw	96
  1921  0127  3460               	retlw	96
  1922  0128  3400               	retlw	0
  1923  0129  3400               	retlw	0
  1924  012A  3400               	retlw	0
  1925  012B  3400               	retlw	0
  1926  012C  3401               	retlw	1
  1927  012D  3402               	retlw	2
  1928  012E  3402               	retlw	2
  1929  012F  3404               	retlw	4
  1930  0130  3404               	retlw	4
  1931  0131  3408               	retlw	8
  1932  0132  3408               	retlw	8
  1933  0133  3410               	retlw	16
  1934  0134  3410               	retlw	16
  1935  0135  3420               	retlw	32
  1936  0136  3420               	retlw	32
  1937  0137  3440               	retlw	64
  1938  0138  3440               	retlw	64
  1939  0139  3400               	retlw	0
  1940  013A  3400               	retlw	0
  1941  013B  3400               	retlw	0
  1942  013C  3400               	retlw	0
  1943  013D  3418               	retlw	24
  1944  013E  3424               	retlw	36
  1945  013F  3442               	retlw	66
  1946  0140  3442               	retlw	66
  1947  0141  3442               	retlw	66
  1948  0142  3442               	retlw	66
  1949  0143  3442               	retlw	66
  1950  0144  3442               	retlw	66
  1951  0145  3442               	retlw	66
  1952  0146  3424               	retlw	36
  1953  0147  3418               	retlw	24
  1954  0148  3400               	retlw	0
  1955  0149  3400               	retlw	0
  1956  014A  3400               	retlw	0
  1957  014B  3400               	retlw	0
  1958  014C  3400               	retlw	0
  1959  014D  3410               	retlw	16
  1960  014E  3470               	retlw	112
  1961  014F  3410               	retlw	16
  1962  0150  3410               	retlw	16
  1963  0151  3410               	retlw	16
  1964  0152  3410               	retlw	16
  1965  0153  3410               	retlw	16
  1966  0154  3410               	retlw	16
  1967  0155  3410               	retlw	16
  1968  0156  3410               	retlw	16
  1969  0157  347C               	retlw	124
  1970  0158  3400               	retlw	0
  1971  0159  3400               	retlw	0
  1972  015A  3400               	retlw	0
  1973  015B  3400               	retlw	0
  1974  015C  3400               	retlw	0
  1975  015D  343C               	retlw	60
  1976  015E  3442               	retlw	66
  1977  015F  3442               	retlw	66
  1978  0160  3442               	retlw	66
  1979  0161  3404               	retlw	4
  1980  0162  3404               	retlw	4
  1981  0163  3408               	retlw	8
  1982  0164  3410               	retlw	16
  1983  0165  3420               	retlw	32
  1984  0166  3442               	retlw	66
  1985  0167  347E               	retlw	126
  1986  0168  3400               	retlw	0
  1987  0169  3400               	retlw	0
  1988  016A  3400               	retlw	0
  1989  016B  3400               	retlw	0
  1990  016C  3400               	retlw	0
  1991  016D  343C               	retlw	60
  1992  016E  3442               	retlw	66
  1993  016F  3442               	retlw	66
  1994  0170  3404               	retlw	4
  1995  0171  3418               	retlw	24
  1996  0172  3404               	retlw	4
  1997  0173  3402               	retlw	2
  1998  0174  3402               	retlw	2
  1999  0175  3442               	retlw	66
  2000  0176  3444               	retlw	68
  2001  0177  3438               	retlw	56
  2002  0178  3400               	retlw	0
  2003  0179  3400               	retlw	0
  2004  017A  3400               	retlw	0
  2005  017B  3400               	retlw	0
  2006  017C  3400               	retlw	0
  2007  017D  3404               	retlw	4
  2008  017E  340C               	retlw	12
  2009  017F  3414               	retlw	20
  2010  0180  3424               	retlw	36
  2011  0181  3424               	retlw	36
  2012  0182  3444               	retlw	68
  2013  0183  3444               	retlw	68
  2014  0184  347E               	retlw	126
  2015  0185  3404               	retlw	4
  2016  0186  3404               	retlw	4
  2017  0187  341E               	retlw	30
  2018  0188  3400               	retlw	0
  2019  0189  3400               	retlw	0
  2020  018A  3400               	retlw	0
  2021  018B  3400               	retlw	0
  2022  018C  3400               	retlw	0
  2023  018D  347E               	retlw	126
  2024  018E  3440               	retlw	64
  2025  018F  3440               	retlw	64
  2026  0190  3440               	retlw	64
  2027  0191  3458               	retlw	88
  2028  0192  3464               	retlw	100
  2029  0193  3402               	retlw	2
  2030  0194  3402               	retlw	2
  2031  0195  3442               	retlw	66
  2032  0196  3444               	retlw	68
  2033  0197  3438               	retlw	56
  2034  0198  3400               	retlw	0
  2035  0199  3400               	retlw	0
  2036  019A  3400               	retlw	0
  2037  019B  3400               	retlw	0
  2038  019C  3400               	retlw	0
  2039  019D  341C               	retlw	28
  2040  019E  3424               	retlw	36
  2041  019F  3440               	retlw	64
  2042  01A0  3440               	retlw	64
  2043  01A1  3458               	retlw	88
  2044  01A2  3464               	retlw	100
  2045  01A3  3442               	retlw	66
  2046  01A4  3442               	retlw	66
  2047  01A5  3442               	retlw	66
  2048  01A6  3424               	retlw	36
  2049  01A7  3418               	retlw	24
  2050  01A8  3400               	retlw	0
  2051  01A9  3400               	retlw	0
  2052  01AA  3400               	retlw	0
  2053  01AB  3400               	retlw	0
  2054  01AC  3400               	retlw	0
  2055  01AD  347E               	retlw	126
  2056  01AE  3444               	retlw	68
  2057  01AF  3444               	retlw	68
  2058  01B0  3408               	retlw	8
  2059  01B1  3408               	retlw	8
  2060  01B2  3410               	retlw	16
  2061  01B3  3410               	retlw	16
  2062  01B4  3410               	retlw	16
  2063  01B5  3410               	retlw	16
  2064  01B6  3410               	retlw	16
  2065  01B7  3410               	retlw	16
  2066  01B8  3400               	retlw	0
  2067  01B9  3400               	retlw	0
  2068  01BA  3400               	retlw	0
  2069  01BB  3400               	retlw	0
  2070  01BC  3400               	retlw	0
  2071  01BD  343C               	retlw	60
  2072  01BE  3442               	retlw	66
  2073  01BF  3442               	retlw	66
  2074  01C0  3442               	retlw	66
  2075  01C1  3424               	retlw	36
  2076  01C2  3418               	retlw	24
  2077  01C3  3424               	retlw	36
  2078  01C4  3442               	retlw	66
  2079  01C5  3442               	retlw	66
  2080  01C6  3442               	retlw	66
  2081  01C7  343C               	retlw	60
  2082  01C8  3400               	retlw	0
  2083  01C9  3400               	retlw	0
  2084  01CA  3400               	retlw	0
  2085  01CB  3400               	retlw	0
  2086  01CC  3400               	retlw	0
  2087  01CD  3418               	retlw	24
  2088  01CE  3424               	retlw	36
  2089  01CF  3442               	retlw	66
  2090  01D0  3442               	retlw	66
  2091  01D1  3442               	retlw	66
  2092  01D2  3426               	retlw	38
  2093  01D3  341A               	retlw	26
  2094  01D4  3402               	retlw	2
  2095  01D5  3402               	retlw	2
  2096  01D6  3424               	retlw	36
  2097  01D7  3438               	retlw	56
  2098  01D8  3400               	retlw	0
  2099  01D9  3400               	retlw	0
  2100  01DA  3400               	retlw	0
  2101  01DB  3400               	retlw	0
  2102  01DC  3400               	retlw	0
  2103  01DD  3400               	retlw	0
  2104  01DE  3400               	retlw	0
  2105  01DF  3400               	retlw	0
  2106  01E0  3418               	retlw	24
  2107  01E1  3418               	retlw	24
  2108  01E2  3400               	retlw	0
  2109  01E3  3400               	retlw	0
  2110  01E4  3400               	retlw	0
  2111  01E5  3400               	retlw	0
  2112  01E6  3418               	retlw	24
  2113  01E7  3418               	retlw	24
  2114  01E8  3400               	retlw	0
  2115  01E9  3400               	retlw	0
  2116  01EA  3400               	retlw	0
  2117  01EB  3400               	retlw	0
  2118  01EC  3400               	retlw	0
  2119  01ED  3400               	retlw	0
  2120  01EE  3400               	retlw	0
  2121  01EF  3400               	retlw	0
  2122  01F0  3400               	retlw	0
  2123  01F1  3410               	retlw	16
  2124  01F2  3400               	retlw	0
  2125  01F3  3400               	retlw	0
  2126  01F4  3400               	retlw	0
  2127  01F5  3400               	retlw	0
  2128  01F6  3400               	retlw	0
  2129  01F7  3410               	retlw	16
  2130  01F8  3410               	retlw	16
  2131  01F9  3420               	retlw	32
  2132  01FA  3400               	retlw	0
  2133  01FB  3400               	retlw	0
  2134  01FC  3400               	retlw	0
  2135  01FD  3402               	retlw	2
  2136  01FE  3404               	retlw	4
  2137  01FF  3408               	retlw	8
  2138  0200  3410               	retlw	16
  2139  0201  3420               	retlw	32
  2140  0202  3440               	retlw	64
  2141  0203  3420               	retlw	32
  2142  0204  3410               	retlw	16
  2143  0205  3408               	retlw	8
  2144  0206  3404               	retlw	4
  2145  0207  3402               	retlw	2
  2146  0208  3400               	retlw	0
  2147  0209  3400               	retlw	0
  2148  020A  3400               	retlw	0
  2149  020B  3400               	retlw	0
  2150  020C  3400               	retlw	0
  2151  020D  3400               	retlw	0
  2152  020E  3400               	retlw	0
  2153  020F  3400               	retlw	0
  2154  0210  34FE               	retlw	-2
  2155  0211  3400               	retlw	0
  2156  0212  3400               	retlw	0
  2157  0213  3400               	retlw	0
  2158  0214  34FE               	retlw	-2
  2159  0215  3400               	retlw	0
  2160  0216  3400               	retlw	0
  2161  0217  3400               	retlw	0
  2162  0218  3400               	retlw	0
  2163  0219  3400               	retlw	0
  2164  021A  3400               	retlw	0
  2165  021B  3400               	retlw	0
  2166  021C  3400               	retlw	0
  2167  021D  3440               	retlw	64
  2168  021E  3420               	retlw	32
  2169  021F  3410               	retlw	16
  2170  0220  3408               	retlw	8
  2171  0221  3404               	retlw	4
  2172  0222  3402               	retlw	2
  2173  0223  3404               	retlw	4
  2174  0224  3408               	retlw	8
  2175  0225  3410               	retlw	16
  2176  0226  3420               	retlw	32
  2177  0227  3440               	retlw	64
  2178  0228  3400               	retlw	0
  2179  0229  3400               	retlw	0
  2180  022A  3400               	retlw	0
  2181  022B  3400               	retlw	0
  2182  022C  3400               	retlw	0
  2183  022D  343C               	retlw	60
  2184  022E  3442               	retlw	66
  2185  022F  3442               	retlw	66
  2186  0230  3462               	retlw	98
  2187  0231  3402               	retlw	2
  2188  0232  3404               	retlw	4
  2189  0233  3408               	retlw	8
  2190  0234  3408               	retlw	8
  2191  0235  3400               	retlw	0
  2192  0236  3418               	retlw	24
  2193  0237  3418               	retlw	24
  2194  0238  3400               	retlw	0
  2195  0239  3400               	retlw	0
  2196  023A  3400               	retlw	0
  2197  023B  3400               	retlw	0
  2198  023C  3400               	retlw	0
  2199  023D  3438               	retlw	56
  2200  023E  3444               	retlw	68
  2201  023F  345A               	retlw	90
  2202  0240  34AA               	retlw	-86
  2203  0241  34AA               	retlw	-86
  2204  0242  34AA               	retlw	-86
  2205  0243  34AA               	retlw	-86
  2206  0244  34B4               	retlw	-76
  2207  0245  3442               	retlw	66
  2208  0246  3444               	retlw	68
  2209  0247  3438               	retlw	56
  2210  0248  3400               	retlw	0
  2211  0249  3400               	retlw	0
  2212  024A  3400               	retlw	0
  2213  024B  3400               	retlw	0
  2214  024C  3400               	retlw	0
  2215  024D  3410               	retlw	16
  2216  024E  3410               	retlw	16
  2217  024F  3418               	retlw	24
  2218  0250  3428               	retlw	40
  2219  0251  3428               	retlw	40
  2220  0252  3424               	retlw	36
  2221  0253  343C               	retlw	60
  2222  0254  3444               	retlw	68
  2223  0255  3442               	retlw	66
  2224  0256  3442               	retlw	66
  2225  0257  34E7               	retlw	-25
  2226  0258  3400               	retlw	0
  2227  0259  3400               	retlw	0
  2228  025A  3400               	retlw	0
  2229  025B  3400               	retlw	0
  2230  025C  3400               	retlw	0
  2231  025D  34F8               	retlw	-8
  2232  025E  3444               	retlw	68
  2233  025F  3444               	retlw	68
  2234  0260  3444               	retlw	68
  2235  0261  3478               	retlw	120
  2236  0262  3444               	retlw	68
  2237  0263  3442               	retlw	66
  2238  0264  3442               	retlw	66
  2239  0265  3442               	retlw	66
  2240  0266  3444               	retlw	68
  2241  0267  34F8               	retlw	-8
  2242  0268  3400               	retlw	0
  2243  0269  3400               	retlw	0
  2244  026A  3400               	retlw	0
  2245  026B  3400               	retlw	0
  2246  026C  3400               	retlw	0
  2247  026D  343E               	retlw	62
  2248  026E  3442               	retlw	66
  2249  026F  3442               	retlw	66
  2250  0270  3480               	retlw	-128
  2251  0271  3480               	retlw	-128
  2252  0272  3480               	retlw	-128
  2253  0273  3480               	retlw	-128
  2254  0274  3480               	retlw	-128
  2255  0275  3442               	retlw	66
  2256  0276  3444               	retlw	68
  2257  0277  3438               	retlw	56
  2258  0278  3400               	retlw	0
  2259  0279  3400               	retlw	0
  2260  027A  3400               	retlw	0
  2261  027B  3400               	retlw	0
  2262  027C  3400               	retlw	0
  2263  027D  34F8               	retlw	-8
  2264  027E  3444               	retlw	68
  2265  027F  3442               	retlw	66
  2266  0280  3442               	retlw	66
  2267  0281  3442               	retlw	66
  2268  0282  3442               	retlw	66
  2269  0283  3442               	retlw	66
  2270  0284  3442               	retlw	66
  2271  0285  3442               	retlw	66
  2272  0286  3444               	retlw	68
  2273  0287  34F8               	retlw	-8
  2274  0288  3400               	retlw	0
  2275  0289  3400               	retlw	0
  2276  028A  3400               	retlw	0
  2277  028B  3400               	retlw	0
  2278  028C  3400               	retlw	0
  2279  028D  34FC               	retlw	-4
  2280  028E  3442               	retlw	66
  2281  028F  3448               	retlw	72
  2282  0290  3448               	retlw	72
  2283  0291  3478               	retlw	120
  2284  0292  3448               	retlw	72
  2285  0293  3448               	retlw	72
  2286  0294  3440               	retlw	64
  2287  0295  3442               	retlw	66
  2288  0296  3442               	retlw	66
  2289  0297  34FC               	retlw	-4
  2290  0298  3400               	retlw	0
  2291  0299  3400               	retlw	0
  2292  029A  3400               	retlw	0
  2293  029B  3400               	retlw	0
  2294  029C  3400               	retlw	0
  2295  029D  34FC               	retlw	-4
  2296  029E  3442               	retlw	66
  2297  029F  3448               	retlw	72
  2298  02A0  3448               	retlw	72
  2299  02A1  3478               	retlw	120
  2300  02A2  3448               	retlw	72
  2301  02A3  3448               	retlw	72
  2302  02A4  3440               	retlw	64
  2303  02A5  3440               	retlw	64
  2304  02A6  3440               	retlw	64
  2305  02A7  34E0               	retlw	-32
  2306  02A8  3400               	retlw	0
  2307  02A9  3400               	retlw	0
  2308  02AA  3400               	retlw	0
  2309  02AB  3400               	retlw	0
  2310  02AC  3400               	retlw	0
  2311  02AD  343C               	retlw	60
  2312  02AE  3444               	retlw	68
  2313  02AF  3444               	retlw	68
  2314  02B0  3480               	retlw	-128
  2315  02B1  3480               	retlw	-128
  2316  02B2  3480               	retlw	-128
  2317  02B3  348E               	retlw	-114
  2318  02B4  3484               	retlw	-124
  2319  02B5  3444               	retlw	68
  2320  02B6  3444               	retlw	68
  2321  02B7  3438               	retlw	56
  2322  02B8  3400               	retlw	0
  2323  02B9  3400               	retlw	0
  2324  02BA  3400               	retlw	0
  2325  02BB  3400               	retlw	0
  2326  02BC  3400               	retlw	0
  2327  02BD  34E7               	retlw	-25
  2328  02BE  3442               	retlw	66
  2329  02BF  3442               	retlw	66
  2330  02C0  3442               	retlw	66
  2331  02C1  3442               	retlw	66
  2332  02C2  347E               	retlw	126
  2333  02C3  3442               	retlw	66
  2334  02C4  3442               	retlw	66
  2335  02C5  3442               	retlw	66
  2336  02C6  3442               	retlw	66
  2337  02C7  34E7               	retlw	-25
  2338  02C8  3400               	retlw	0
  2339  02C9  3400               	retlw	0
  2340  02CA  3400               	retlw	0
  2341  02CB  3400               	retlw	0
  2342  02CC  3400               	retlw	0
  2343  02CD  347C               	retlw	124
  2344  02CE  3410               	retlw	16
  2345  02CF  3410               	retlw	16
  2346  02D0  3410               	retlw	16
  2347  02D1  3410               	retlw	16
  2348  02D2  3410               	retlw	16
  2349  02D3  3410               	retlw	16
  2350  02D4  3410               	retlw	16
  2351  02D5  3410               	retlw	16
  2352  02D6  3410               	retlw	16
  2353  02D7  347C               	retlw	124
  2354  02D8  3400               	retlw	0
  2355  02D9  3400               	retlw	0
  2356  02DA  3400               	retlw	0
  2357  02DB  3400               	retlw	0
  2358  02DC  3400               	retlw	0
  2359  02DD  343E               	retlw	62
  2360  02DE  3408               	retlw	8
  2361  02DF  3408               	retlw	8
  2362  02E0  3408               	retlw	8
  2363  02E1  3408               	retlw	8
  2364  02E2  3408               	retlw	8
  2365  02E3  3408               	retlw	8
  2366  02E4  3408               	retlw	8
  2367  02E5  3408               	retlw	8
  2368  02E6  3408               	retlw	8
  2369  02E7  3408               	retlw	8
  2370  02E8  3488               	retlw	-120
  2371  02E9  34F0               	retlw	-16
  2372  02EA  3400               	retlw	0
  2373  02EB  3400               	retlw	0
  2374  02EC  3400               	retlw	0
  2375  02ED  34EE               	retlw	-18
  2376  02EE  3444               	retlw	68
  2377  02EF  3448               	retlw	72
  2378  02F0  3450               	retlw	80
  2379  02F1  3470               	retlw	112
  2380  02F2  3450               	retlw	80
  2381  02F3  3448               	retlw	72
  2382  02F4  3448               	retlw	72
  2383  02F5  3444               	retlw	68
  2384  02F6  3444               	retlw	68
  2385  02F7  34EE               	retlw	-18
  2386  02F8  3400               	retlw	0
  2387  02F9  3400               	retlw	0
  2388  02FA  3400               	retlw	0
  2389  02FB  3400               	retlw	0
  2390  02FC  3400               	retlw	0
  2391  02FD  34E0               	retlw	-32
  2392  02FE  3440               	retlw	64
  2393  02FF  3440               	retlw	64
  2394  0300  3440               	retlw	64
  2395  0301  3440               	retlw	64
  2396  0302  3440               	retlw	64
  2397  0303  3440               	retlw	64
  2398  0304  3440               	retlw	64
  2399  0305  3440               	retlw	64
  2400  0306  3442               	retlw	66
  2401  0307  34FE               	retlw	-2
  2402  0308  3400               	retlw	0
  2403  0309  3400               	retlw	0
  2404  030A  3400               	retlw	0
  2405  030B  3400               	retlw	0
  2406  030C  3400               	retlw	0
  2407  030D  34EE               	retlw	-18
  2408  030E  346C               	retlw	108
  2409  030F  346C               	retlw	108
  2410  0310  346C               	retlw	108
  2411  0311  346C               	retlw	108
  2412  0312  3454               	retlw	84
  2413  0313  3454               	retlw	84
  2414  0314  3454               	retlw	84
  2415  0315  3454               	retlw	84
  2416  0316  3454               	retlw	84
  2417  0317  34D6               	retlw	-42
  2418  0318  3400               	retlw	0
  2419  0319  3400               	retlw	0
  2420  031A  3400               	retlw	0
  2421  031B  3400               	retlw	0
  2422  031C  3400               	retlw	0
  2423  031D  34C7               	retlw	-57
  2424  031E  3462               	retlw	98
  2425  031F  3462               	retlw	98
  2426  0320  3452               	retlw	82
  2427  0321  3452               	retlw	82
  2428  0322  344A               	retlw	74
  2429  0323  344A               	retlw	74
  2430  0324  344A               	retlw	74
  2431  0325  3446               	retlw	70
  2432  0326  3446               	retlw	70
  2433  0327  34E2               	retlw	-30
  2434  0328  3400               	retlw	0
  2435  0329  3400               	retlw	0
  2436  032A  3400               	retlw	0
  2437  032B  3400               	retlw	0
  2438  032C  3400               	retlw	0
  2439  032D  3438               	retlw	56
  2440  032E  3444               	retlw	68
  2441  032F  3482               	retlw	-126
  2442  0330  3482               	retlw	-126
  2443  0331  3482               	retlw	-126
  2444  0332  3482               	retlw	-126
  2445  0333  3482               	retlw	-126
  2446  0334  3482               	retlw	-126
  2447  0335  3482               	retlw	-126
  2448  0336  3444               	retlw	68
  2449  0337  3438               	retlw	56
  2450  0338  3400               	retlw	0
  2451  0339  3400               	retlw	0
  2452  033A  3400               	retlw	0
  2453  033B  3400               	retlw	0
  2454  033C  3400               	retlw	0
  2455  033D  34FC               	retlw	-4
  2456  033E  3442               	retlw	66
  2457  033F  3442               	retlw	66
  2458  0340  3442               	retlw	66
  2459  0341  3442               	retlw	66
  2460  0342  347C               	retlw	124
  2461  0343  3440               	retlw	64
  2462  0344  3440               	retlw	64
  2463  0345  3440               	retlw	64
  2464  0346  3440               	retlw	64
  2465  0347  34E0               	retlw	-32
  2466  0348  3400               	retlw	0
  2467  0349  3400               	retlw	0
  2468  034A  3400               	retlw	0
  2469  034B  3400               	retlw	0
  2470  034C  3400               	retlw	0
  2471  034D  3438               	retlw	56
  2472  034E  3444               	retlw	68
  2473  034F  3482               	retlw	-126
  2474  0350  3482               	retlw	-126
  2475  0351  3482               	retlw	-126
  2476  0352  3482               	retlw	-126
  2477  0353  3482               	retlw	-126
  2478  0354  34B2               	retlw	-78
  2479  0355  34CA               	retlw	-54
  2480  0356  344C               	retlw	76
  2481  0357  3438               	retlw	56
  2482  0358  3406               	retlw	6
  2483  0359  3400               	retlw	0
  2484  035A  3400               	retlw	0
  2485  035B  3400               	retlw	0
  2486  035C  3400               	retlw	0
  2487  035D  34FC               	retlw	-4
  2488  035E  3442               	retlw	66
  2489  035F  3442               	retlw	66
  2490  0360  3442               	retlw	66
  2491  0361  347C               	retlw	124
  2492  0362  3448               	retlw	72
  2493  0363  3448               	retlw	72
  2494  0364  3444               	retlw	68
  2495  0365  3444               	retlw	68
  2496  0366  3442               	retlw	66
  2497  0367  34E3               	retlw	-29
  2498  0368  3400               	retlw	0
  2499  0369  3400               	retlw	0
  2500  036A  3400               	retlw	0
  2501  036B  3400               	retlw	0
  2502  036C  3400               	retlw	0
  2503  036D  343E               	retlw	62
  2504  036E  3442               	retlw	66
  2505  036F  3442               	retlw	66
  2506  0370  3440               	retlw	64
  2507  0371  3420               	retlw	32
  2508  0372  3418               	retlw	24
  2509  0373  3404               	retlw	4
  2510  0374  3402               	retlw	2
  2511  0375  3442               	retlw	66
  2512  0376  3442               	retlw	66
  2513  0377  347C               	retlw	124
  2514  0378  3400               	retlw	0
  2515  0379  3400               	retlw	0
  2516  037A  3400               	retlw	0
  2517  037B  3400               	retlw	0
  2518  037C  3400               	retlw	0
  2519  037D  34FE               	retlw	-2
  2520  037E  3492               	retlw	-110
  2521  037F  3410               	retlw	16
  2522  0380  3410               	retlw	16
  2523  0381  3410               	retlw	16
  2524  0382  3410               	retlw	16
  2525  0383  3410               	retlw	16
  2526  0384  3410               	retlw	16
  2527  0385  3410               	retlw	16
  2528  0386  3410               	retlw	16
  2529  0387  3438               	retlw	56
  2530  0388  3400               	retlw	0
  2531  0389  3400               	retlw	0
  2532  038A  3400               	retlw	0
  2533  038B  3400               	retlw	0
  2534  038C  3400               	retlw	0
  2535  038D  34E7               	retlw	-25
  2536  038E  3442               	retlw	66
  2537  038F  3442               	retlw	66
  2538  0390  3442               	retlw	66
  2539  0391  3442               	retlw	66
  2540  0392  3442               	retlw	66
  2541  0393  3442               	retlw	66
  2542  0394  3442               	retlw	66
  2543  0395  3442               	retlw	66
  2544  0396  3442               	retlw	66
  2545  0397  343C               	retlw	60
  2546  0398  3400               	retlw	0
  2547  0399  3400               	retlw	0
  2548  039A  3400               	retlw	0
  2549  039B  3400               	retlw	0
  2550  039C  3400               	retlw	0
  2551  039D  34E7               	retlw	-25
  2552  039E  3442               	retlw	66
  2553  039F  3442               	retlw	66
  2554  03A0  3444               	retlw	68
  2555  03A1  3424               	retlw	36
  2556  03A2  3424               	retlw	36
  2557  03A3  3428               	retlw	40
  2558  03A4  3428               	retlw	40
  2559  03A5  3418               	retlw	24
  2560  03A6  3410               	retlw	16
  2561  03A7  3410               	retlw	16
  2562  03A8  3400               	retlw	0
  2563  03A9  3400               	retlw	0
  2564  03AA  3400               	retlw	0
  2565  03AB  3400               	retlw	0
  2566  03AC  3400               	retlw	0
  2567  03AD  34D6               	retlw	-42
  2568  03AE  3492               	retlw	-110
  2569  03AF  3492               	retlw	-110
  2570  03B0  3492               	retlw	-110
  2571  03B1  3492               	retlw	-110
  2572  03B2  34AA               	retlw	-86
  2573  03B3  34AA               	retlw	-86
  2574  03B4  346C               	retlw	108
  2575  03B5  3444               	retlw	68
  2576  03B6  3444               	retlw	68
  2577  03B7  3444               	retlw	68
  2578  03B8  3400               	retlw	0
  2579  03B9  3400               	retlw	0
  2580  03BA  3400               	retlw	0
  2581  03BB  3400               	retlw	0
  2582  03BC  3400               	retlw	0
  2583  03BD  34E7               	retlw	-25
  2584  03BE  3442               	retlw	66
  2585  03BF  3424               	retlw	36
  2586  03C0  3424               	retlw	36
  2587  03C1  3418               	retlw	24
  2588  03C2  3418               	retlw	24
  2589  03C3  3418               	retlw	24
  2590  03C4  3424               	retlw	36
  2591  03C5  3424               	retlw	36
  2592  03C6  3442               	retlw	66
  2593  03C7  34E7               	retlw	-25
  2594  03C8  3400               	retlw	0
  2595  03C9  3400               	retlw	0
  2596  03CA  3400               	retlw	0
  2597  03CB  3400               	retlw	0
  2598  03CC  3400               	retlw	0
  2599  03CD  34EE               	retlw	-18
  2600  03CE  3444               	retlw	68
  2601  03CF  3444               	retlw	68
  2602  03D0  3428               	retlw	40
  2603  03D1  3428               	retlw	40
  2604  03D2  3410               	retlw	16
  2605  03D3  3410               	retlw	16
  2606  03D4  3410               	retlw	16
  2607  03D5  3410               	retlw	16
  2608  03D6  3410               	retlw	16
  2609  03D7  3438               	retlw	56
  2610  03D8  3400               	retlw	0
  2611  03D9  3400               	retlw	0
  2612  03DA  3400               	retlw	0
  2613  03DB  3400               	retlw	0
  2614  03DC  3400               	retlw	0
  2615  03DD  347E               	retlw	126
  2616  03DE  3484               	retlw	-124
  2617  03DF  3404               	retlw	4
  2618  03E0  3408               	retlw	8
  2619  03E1  3408               	retlw	8
  2620  03E2  3410               	retlw	16
  2621  03E3  3420               	retlw	32
  2622  03E4  3420               	retlw	32
  2623  03E5  3442               	retlw	66
  2624  03E6  3442               	retlw	66
  2625  03E7  34FC               	retlw	-4
  2626  03E8  3400               	retlw	0
  2627  03E9  3400               	retlw	0
  2628  03EA  3400               	retlw	0
  2629  03EB  341E               	retlw	30
  2630  03EC  3410               	retlw	16
  2631  03ED  3410               	retlw	16
  2632  03EE  3410               	retlw	16
  2633  03EF  3410               	retlw	16
  2634  03F0  3410               	retlw	16
  2635  03F1  3410               	retlw	16
  2636  03F2  3410               	retlw	16
  2637  03F3  3410               	retlw	16
  2638  03F4  3410               	retlw	16
  2639  03F5  3410               	retlw	16
  2640  03F6  3410               	retlw	16
  2641  03F7  3410               	retlw	16
  2642  03F8  341E               	retlw	30
  2643  03F9  3400               	retlw	0
  2644  03FA  3400               	retlw	0
  2645  03FB  3400               	retlw	0
  2646  03FC  3440               	retlw	64
  2647  03FD  3440               	retlw	64
  2648  03FE  3420               	retlw	32
  2649  03FF  3420               	retlw	32
  2650  0400  3410               	retlw	16
  2651  0401  3410               	retlw	16
  2652  0402  3410               	retlw	16
  2653  0403  3408               	retlw	8
  2654  0404  3408               	retlw	8
  2655  0405  3404               	retlw	4
  2656  0406  3404               	retlw	4
  2657  0407  3404               	retlw	4
  2658  0408  3402               	retlw	2
  2659  0409  3402               	retlw	2
  2660  040A  3400               	retlw	0
  2661  040B  3478               	retlw	120
  2662  040C  3408               	retlw	8
  2663  040D  3408               	retlw	8
  2664  040E  3408               	retlw	8
  2665  040F  3408               	retlw	8
  2666  0410  3408               	retlw	8
  2667  0411  3408               	retlw	8
  2668  0412  3408               	retlw	8
  2669  0413  3408               	retlw	8
  2670  0414  3408               	retlw	8
  2671  0415  3408               	retlw	8
  2672  0416  3408               	retlw	8
  2673  0417  3408               	retlw	8
  2674  0418  3478               	retlw	120
  2675  0419  3400               	retlw	0
  2676  041A  3400               	retlw	0
  2677  041B  341C               	retlw	28
  2678  041C  3422               	retlw	34
  2679  041D  3400               	retlw	0
  2680  041E  3400               	retlw	0
  2681  041F  3400               	retlw	0
  2682  0420  3400               	retlw	0
  2683  0421  3400               	retlw	0
  2684  0422  3400               	retlw	0
  2685  0423  3400               	retlw	0
  2686  0424  3400               	retlw	0
  2687  0425  3400               	retlw	0
  2688  0426  3400               	retlw	0
  2689  0427  3400               	retlw	0
  2690  0428  3400               	retlw	0
  2691  0429  3400               	retlw	0
  2692  042A  3400               	retlw	0
  2693  042B  3400               	retlw	0
  2694  042C  3400               	retlw	0
  2695  042D  3400               	retlw	0
  2696  042E  3400               	retlw	0
  2697  042F  3400               	retlw	0
  2698  0430  3400               	retlw	0
  2699  0431  3400               	retlw	0
  2700  0432  3400               	retlw	0
  2701  0433  3400               	retlw	0
  2702  0434  3400               	retlw	0
  2703  0435  3400               	retlw	0
  2704  0436  3400               	retlw	0
  2705  0437  3400               	retlw	0
  2706  0438  3400               	retlw	0
  2707  0439  34FF               	retlw	-1
  2708  043A  3400               	retlw	0
  2709  043B  3460               	retlw	96
  2710  043C  3410               	retlw	16
  2711  043D  3400               	retlw	0
  2712  043E  3400               	retlw	0
  2713  043F  3400               	retlw	0
  2714  0440  3400               	retlw	0
  2715  0441  3400               	retlw	0
  2716  0442  3400               	retlw	0
  2717  0443  3400               	retlw	0
  2718  0444  3400               	retlw	0
  2719  0445  3400               	retlw	0
  2720  0446  3400               	retlw	0
  2721  0447  3400               	retlw	0
  2722  0448  3400               	retlw	0
  2723  0449  3400               	retlw	0
  2724  044A  3400               	retlw	0
  2725  044B  3400               	retlw	0
  2726  044C  3400               	retlw	0
  2727  044D  3400               	retlw	0
  2728  044E  3400               	retlw	0
  2729  044F  3400               	retlw	0
  2730  0450  3400               	retlw	0
  2731  0451  343C               	retlw	60
  2732  0452  3442               	retlw	66
  2733  0453  341E               	retlw	30
  2734  0454  3422               	retlw	34
  2735  0455  3442               	retlw	66
  2736  0456  3442               	retlw	66
  2737  0457  343F               	retlw	63
  2738  0458  3400               	retlw	0
  2739  0459  3400               	retlw	0
  2740  045A  3400               	retlw	0
  2741  045B  3400               	retlw	0
  2742  045C  3400               	retlw	0
  2743  045D  34C0               	retlw	-64
  2744  045E  3440               	retlw	64
  2745  045F  3440               	retlw	64
  2746  0460  3440               	retlw	64
  2747  0461  3458               	retlw	88
  2748  0462  3464               	retlw	100
  2749  0463  3442               	retlw	66
  2750  0464  3442               	retlw	66
  2751  0465  3442               	retlw	66
  2752  0466  3464               	retlw	100
  2753  0467  3458               	retlw	88
  2754  0468  3400               	retlw	0
  2755  0469  3400               	retlw	0
  2756  046A  3400               	retlw	0
  2757  046B  3400               	retlw	0
  2758  046C  3400               	retlw	0
  2759  046D  3400               	retlw	0
  2760  046E  3400               	retlw	0
  2761  046F  3400               	retlw	0
  2762  0470  3400               	retlw	0
  2763  0471  341C               	retlw	28
  2764  0472  3422               	retlw	34
  2765  0473  3440               	retlw	64
  2766  0474  3440               	retlw	64
  2767  0475  3440               	retlw	64
  2768  0476  3422               	retlw	34
  2769  0477  341C               	retlw	28
  2770  0478  3400               	retlw	0
  2771  0479  3400               	retlw	0
  2772  047A  3400               	retlw	0
  2773  047B  3400               	retlw	0
  2774  047C  3400               	retlw	0
  2775  047D  3406               	retlw	6
  2776  047E  3402               	retlw	2
  2777  047F  3402               	retlw	2
  2778  0480  3402               	retlw	2
  2779  0481  341E               	retlw	30
  2780  0482  3422               	retlw	34
  2781  0483  3442               	retlw	66
  2782  0484  3442               	retlw	66
  2783  0485  3442               	retlw	66
  2784  0486  3426               	retlw	38
  2785  0487  341B               	retlw	27
  2786  0488  3400               	retlw	0
  2787  0489  3400               	retlw	0
  2788  048A  3400               	retlw	0
  2789  048B  3400               	retlw	0
  2790  048C  3400               	retlw	0
  2791  048D  3400               	retlw	0
  2792  048E  3400               	retlw	0
  2793  048F  3400               	retlw	0
  2794  0490  3400               	retlw	0
  2795  0491  343C               	retlw	60
  2796  0492  3442               	retlw	66
  2797  0493  347E               	retlw	126
  2798  0494  3440               	retlw	64
  2799  0495  3440               	retlw	64
  2800  0496  3442               	retlw	66
  2801  0497  343C               	retlw	60
  2802  0498  3400               	retlw	0
  2803  0499  3400               	retlw	0
  2804  049A  3400               	retlw	0
  2805  049B  3400               	retlw	0
  2806  049C  3400               	retlw	0
  2807  049D  340F               	retlw	15
  2808  049E  3411               	retlw	17
  2809  049F  3410               	retlw	16
  2810  04A0  3410               	retlw	16
  2811  04A1  347E               	retlw	126
  2812  04A2  3410               	retlw	16
  2813  04A3  3410               	retlw	16
  2814  04A4  3410               	retlw	16
  2815  04A5  3410               	retlw	16
  2816  04A6  3410               	retlw	16
  2817  04A7  347C               	retlw	124
  2818  04A8  3400               	retlw	0
  2819  04A9  3400               	retlw	0
  2820  04AA  3400               	retlw	0
  2821  04AB  3400               	retlw	0
  2822  04AC  3400               	retlw	0
  2823  04AD  3400               	retlw	0
  2824  04AE  3400               	retlw	0
  2825  04AF  3400               	retlw	0
  2826  04B0  3400               	retlw	0
  2827  04B1  343E               	retlw	62
  2828  04B2  3444               	retlw	68
  2829  04B3  3444               	retlw	68
  2830  04B4  3438               	retlw	56
  2831  04B5  3440               	retlw	64
  2832  04B6  343C               	retlw	60
  2833  04B7  3442               	retlw	66
  2834  04B8  3442               	retlw	66
  2835  04B9  343C               	retlw	60
  2836  04BA  3400               	retlw	0
  2837  04BB  3400               	retlw	0
  2838  04BC  3400               	retlw	0
  2839  04BD  34C0               	retlw	-64
  2840  04BE  3440               	retlw	64
  2841  04BF  3440               	retlw	64
  2842  04C0  3440               	retlw	64
  2843  04C1  345C               	retlw	92
  2844  04C2  3462               	retlw	98
  2845  04C3  3442               	retlw	66
  2846  04C4  3442               	retlw	66
  2847  04C5  3442               	retlw	66
  2848  04C6  3442               	retlw	66
  2849  04C7  34E7               	retlw	-25
  2850  04C8  3400               	retlw	0
  2851  04C9  3400               	retlw	0
  2852  04CA  3400               	retlw	0
  2853  04CB  3400               	retlw	0
  2854  04CC  3400               	retlw	0
  2855  04CD  3430               	retlw	48
  2856  04CE  3430               	retlw	48
  2857  04CF  3400               	retlw	0
  2858  04D0  3400               	retlw	0
  2859  04D1  3470               	retlw	112
  2860  04D2  3410               	retlw	16
  2861  04D3  3410               	retlw	16
  2862  04D4  3410               	retlw	16
  2863  04D5  3410               	retlw	16
  2864  04D6  3410               	retlw	16
  2865  04D7  347C               	retlw	124
  2866  04D8  3400               	retlw	0
  2867  04D9  3400               	retlw	0
  2868  04DA  3400               	retlw	0
  2869  04DB  3400               	retlw	0
  2870  04DC  3400               	retlw	0
  2871  04DD  340C               	retlw	12
  2872  04DE  340C               	retlw	12
  2873  04DF  3400               	retlw	0
  2874  04E0  3400               	retlw	0
  2875  04E1  341C               	retlw	28
  2876  04E2  3404               	retlw	4
  2877  04E3  3404               	retlw	4
  2878  04E4  3404               	retlw	4
  2879  04E5  3404               	retlw	4
  2880  04E6  3404               	retlw	4
  2881  04E7  3404               	retlw	4
  2882  04E8  3444               	retlw	68
  2883  04E9  3478               	retlw	120
  2884  04EA  3400               	retlw	0
  2885  04EB  3400               	retlw	0
  2886  04EC  3400               	retlw	0
  2887  04ED  34C0               	retlw	-64
  2888  04EE  3440               	retlw	64
  2889  04EF  3440               	retlw	64
  2890  04F0  3440               	retlw	64
  2891  04F1  344E               	retlw	78
  2892  04F2  3448               	retlw	72
  2893  04F3  3450               	retlw	80
  2894  04F4  3468               	retlw	104
  2895  04F5  3448               	retlw	72
  2896  04F6  3444               	retlw	68
  2897  04F7  34EE               	retlw	-18
  2898  04F8  3400               	retlw	0
  2899  04F9  3400               	retlw	0
  2900  04FA  3400               	retlw	0
  2901  04FB  3400               	retlw	0
  2902  04FC  3400               	retlw	0
  2903  04FD  3470               	retlw	112
  2904  04FE  3410               	retlw	16
  2905  04FF  3410               	retlw	16
  2906  0500  3410               	retlw	16
  2907  0501  3410               	retlw	16
  2908  0502  3410               	retlw	16
  2909  0503  3410               	retlw	16
  2910  0504  3410               	retlw	16
  2911  0505  3410               	retlw	16
  2912  0506  3410               	retlw	16
  2913  0507  347C               	retlw	124
  2914  0508  3400               	retlw	0
  2915  0509  3400               	retlw	0
  2916  050A  3400               	retlw	0
  2917  050B  3400               	retlw	0
  2918  050C  3400               	retlw	0
  2919  050D  3400               	retlw	0
  2920  050E  3400               	retlw	0
  2921  050F  3400               	retlw	0
  2922  0510  3400               	retlw	0
  2923  0511  34FE               	retlw	-2
  2924  0512  3449               	retlw	73
  2925  0513  3449               	retlw	73
  2926  0514  3449               	retlw	73
  2927  0515  3449               	retlw	73
  2928  0516  3449               	retlw	73
  2929  0517  34ED               	retlw	-19
  2930  0518  3400               	retlw	0
  2931  0519  3400               	retlw	0
  2932  051A  3400               	retlw	0
  2933  051B  3400               	retlw	0
  2934  051C  3400               	retlw	0
  2935  051D  3400               	retlw	0
  2936  051E  3400               	retlw	0
  2937  051F  3400               	retlw	0
  2938  0520  3400               	retlw	0
  2939  0521  34DC               	retlw	-36
  2940  0522  3462               	retlw	98
  2941  0523  3442               	retlw	66
  2942  0524  3442               	retlw	66
  2943  0525  3442               	retlw	66
  2944  0526  3442               	retlw	66
  2945  0527  34E7               	retlw	-25
  2946  0528  3400               	retlw	0
  2947  0529  3400               	retlw	0
  2948  052A  3400               	retlw	0
  2949  052B  3400               	retlw	0
  2950  052C  3400               	retlw	0
  2951  052D  3400               	retlw	0
  2952  052E  3400               	retlw	0
  2953  052F  3400               	retlw	0
  2954  0530  3400               	retlw	0
  2955  0531  343C               	retlw	60
  2956  0532  3442               	retlw	66
  2957  0533  3442               	retlw	66
  2958  0534  3442               	retlw	66
  2959  0535  3442               	retlw	66
  2960  0536  3442               	retlw	66
  2961  0537  343C               	retlw	60
  2962  0538  3400               	retlw	0
  2963  0539  3400               	retlw	0
  2964  053A  3400               	retlw	0
  2965  053B  3400               	retlw	0
  2966  053C  3400               	retlw	0
  2967  053D  3400               	retlw	0
  2968  053E  3400               	retlw	0
  2969  053F  3400               	retlw	0
  2970  0540  3400               	retlw	0
  2971  0541  34D8               	retlw	-40
  2972  0542  3464               	retlw	100
  2973  0543  3442               	retlw	66
  2974  0544  3442               	retlw	66
  2975  0545  3442               	retlw	66
  2976  0546  3444               	retlw	68
  2977  0547  3478               	retlw	120
  2978  0548  3440               	retlw	64
  2979  0549  34E0               	retlw	-32
  2980  054A  3400               	retlw	0
  2981  054B  3400               	retlw	0
  2982  054C  3400               	retlw	0
  2983  054D  3400               	retlw	0
  2984  054E  3400               	retlw	0
  2985  054F  3400               	retlw	0
  2986  0550  3400               	retlw	0
  2987  0551  341E               	retlw	30
  2988  0552  3422               	retlw	34
  2989  0553  3442               	retlw	66
  2990  0554  3442               	retlw	66
  2991  0555  3442               	retlw	66
  2992  0556  3422               	retlw	34
  2993  0557  341E               	retlw	30
  2994  0558  3402               	retlw	2
  2995  0559  3407               	retlw	7
  2996  055A  3400               	retlw	0
  2997  055B  3400               	retlw	0
  2998  055C  3400               	retlw	0
  2999  055D  3400               	retlw	0
  3000  055E  3400               	retlw	0
  3001  055F  3400               	retlw	0
  3002  0560  3400               	retlw	0
  3003  0561  34EE               	retlw	-18
  3004  0562  3432               	retlw	50
  3005  0563  3420               	retlw	32
  3006  0564  3420               	retlw	32
  3007  0565  3420               	retlw	32
  3008  0566  3420               	retlw	32
  3009  0567  34F8               	retlw	-8
  3010  0568  3400               	retlw	0
  3011  0569  3400               	retlw	0
  3012  056A  3400               	retlw	0
  3013  056B  3400               	retlw	0
  3014  056C  3400               	retlw	0
  3015  056D  3400               	retlw	0
  3016  056E  3400               	retlw	0
  3017  056F  3400               	retlw	0
  3018  0570  3400               	retlw	0
  3019  0571  343E               	retlw	62
  3020  0572  3442               	retlw	66
  3021  0573  3440               	retlw	64
  3022  0574  343C               	retlw	60
  3023  0575  3402               	retlw	2
  3024  0576  3442               	retlw	66
  3025  0577  347C               	retlw	124
  3026  0578  3400               	retlw	0
  3027  0579  3400               	retlw	0
  3028  057A  3400               	retlw	0
  3029  057B  3400               	retlw	0
  3030  057C  3400               	retlw	0
  3031  057D  3400               	retlw	0
  3032  057E  3400               	retlw	0
  3033  057F  3410               	retlw	16
  3034  0580  3410               	retlw	16
  3035  0581  347C               	retlw	124
  3036  0582  3410               	retlw	16
  3037  0583  3410               	retlw	16
  3038  0584  3410               	retlw	16
  3039  0585  3410               	retlw	16
  3040  0586  3410               	retlw	16
  3041  0587  340C               	retlw	12
  3042  0588  3400               	retlw	0
  3043  0589  3400               	retlw	0
  3044  058A  3400               	retlw	0
  3045  058B  3400               	retlw	0
  3046  058C  3400               	retlw	0
  3047  058D  3400               	retlw	0
  3048  058E  3400               	retlw	0
  3049  058F  3400               	retlw	0
  3050  0590  3400               	retlw	0
  3051  0591  34C6               	retlw	-58
  3052  0592  3442               	retlw	66
  3053  0593  3442               	retlw	66
  3054  0594  3442               	retlw	66
  3055  0595  3442               	retlw	66
  3056  0596  3446               	retlw	70
  3057  0597  343B               	retlw	59
  3058  0598  3400               	retlw	0
  3059  0599  3400               	retlw	0
  3060  059A  3400               	retlw	0
  3061  059B  3400               	retlw	0
  3062  059C  3400               	retlw	0
  3063  059D  3400               	retlw	0
  3064  059E  3400               	retlw	0
  3065  059F  3400               	retlw	0
  3066  05A0  3400               	retlw	0
  3067  05A1  34E7               	retlw	-25
  3068  05A2  3442               	retlw	66
  3069  05A3  3424               	retlw	36
  3070  05A4  3424               	retlw	36
  3071  05A5  3428               	retlw	40
  3072  05A6  3410               	retlw	16
  3073  05A7  3410               	retlw	16
  3074  05A8  3400               	retlw	0
  3075  05A9  3400               	retlw	0
  3076  05AA  3400               	retlw	0
  3077  05AB  3400               	retlw	0
  3078  05AC  3400               	retlw	0
  3079  05AD  3400               	retlw	0
  3080  05AE  3400               	retlw	0
  3081  05AF  3400               	retlw	0
  3082  05B0  3400               	retlw	0
  3083  05B1  34D7               	retlw	-41
  3084  05B2  3492               	retlw	-110
  3085  05B3  3492               	retlw	-110
  3086  05B4  34AA               	retlw	-86
  3087  05B5  34AA               	retlw	-86
  3088  05B6  3444               	retlw	68
  3089  05B7  3444               	retlw	68
  3090  05B8  3400               	retlw	0
  3091  05B9  3400               	retlw	0
  3092  05BA  3400               	retlw	0
  3093  05BB  3400               	retlw	0
  3094  05BC  3400               	retlw	0
  3095  05BD  3400               	retlw	0
  3096  05BE  3400               	retlw	0
  3097  05BF  3400               	retlw	0
  3098  05C0  3400               	retlw	0
  3099  05C1  346E               	retlw	110
  3100  05C2  3424               	retlw	36
  3101  05C3  3418               	retlw	24
  3102  05C4  3418               	retlw	24
  3103  05C5  3418               	retlw	24
  3104  05C6  3424               	retlw	36
  3105  05C7  3476               	retlw	118
  3106  05C8  3400               	retlw	0
  3107  05C9  3400               	retlw	0
  3108  05CA  3400               	retlw	0
  3109  05CB  3400               	retlw	0
  3110  05CC  3400               	retlw	0
  3111  05CD  3400               	retlw	0
  3112  05CE  3400               	retlw	0
  3113  05CF  3400               	retlw	0
  3114  05D0  3400               	retlw	0
  3115  05D1  34E7               	retlw	-25
  3116  05D2  3442               	retlw	66
  3117  05D3  3424               	retlw	36
  3118  05D4  3424               	retlw	36
  3119  05D5  3428               	retlw	40
  3120  05D6  3418               	retlw	24
  3121  05D7  3410               	retlw	16
  3122  05D8  3410               	retlw	16
  3123  05D9  34E0               	retlw	-32
  3124  05DA  3400               	retlw	0
  3125  05DB  3400               	retlw	0
  3126  05DC  3400               	retlw	0
  3127  05DD  3400               	retlw	0
  3128  05DE  3400               	retlw	0
  3129  05DF  3400               	retlw	0
  3130  05E0  3400               	retlw	0
  3131  05E1  347E               	retlw	126
  3132  05E2  3444               	retlw	68
  3133  05E3  3408               	retlw	8
  3134  05E4  3410               	retlw	16
  3135  05E5  3410               	retlw	16
  3136  05E6  3422               	retlw	34
  3137  05E7  347E               	retlw	126
  3138  05E8  3400               	retlw	0
  3139  05E9  3400               	retlw	0
  3140  05EA  3400               	retlw	0
  3141  05EB  3403               	retlw	3
  3142  05EC  3404               	retlw	4
  3143  05ED  3404               	retlw	4
  3144  05EE  3404               	retlw	4
  3145  05EF  3404               	retlw	4
  3146  05F0  3404               	retlw	4
  3147  05F1  3408               	retlw	8
  3148  05F2  3404               	retlw	4
  3149  05F3  3404               	retlw	4
  3150  05F4  3404               	retlw	4
  3151  05F5  3404               	retlw	4
  3152  05F6  3404               	retlw	4
  3153  05F7  3404               	retlw	4
  3154  05F8  3403               	retlw	3
  3155  05F9  3400               	retlw	0
  3156  05FA  3408               	retlw	8
  3157  05FB  3408               	retlw	8
  3158  05FC  3408               	retlw	8
  3159  05FD  3408               	retlw	8
  3160  05FE  3408               	retlw	8
  3161  05FF  3408               	retlw	8
  3162  0600  3408               	retlw	8
  3163  0601  3408               	retlw	8
  3164  0602  3408               	retlw	8
  3165  0603  3408               	retlw	8
  3166  0604  3408               	retlw	8
  3167  0605  3408               	retlw	8
  3168  0606  3408               	retlw	8
  3169  0607  3408               	retlw	8
  3170  0608  3408               	retlw	8
  3171  0609  3408               	retlw	8
  3172  060A  3400               	retlw	0
  3173  060B  3460               	retlw	96
  3174  060C  3410               	retlw	16
  3175  060D  3410               	retlw	16
  3176  060E  3410               	retlw	16
  3177  060F  3410               	retlw	16
  3178  0610  3410               	retlw	16
  3179  0611  3408               	retlw	8
  3180  0612  3410               	retlw	16
  3181  0613  3410               	retlw	16
  3182  0614  3410               	retlw	16
  3183  0615  3410               	retlw	16
  3184  0616  3410               	retlw	16
  3185  0617  3410               	retlw	16
  3186  0618  3460               	retlw	96
  3187  0619  3400               	retlw	0
  3188  061A  3430               	retlw	48
  3189  061B  344C               	retlw	76
  3190  061C  3443               	retlw	67
  3191  061D  3400               	retlw	0
  3192  061E  3400               	retlw	0
  3193  061F  3400               	retlw	0
  3194  0620  3400               	retlw	0
  3195  0621  3400               	retlw	0
  3196  0622  3400               	retlw	0
  3197  0623  3400               	retlw	0
  3198  0624  3400               	retlw	0
  3199  0625  3400               	retlw	0
  3200  0626  3400               	retlw	0
  3201  0627  3400               	retlw	0
  3202  0628  3400               	retlw	0
  3203  0629  3400               	retlw	0
  3204  062A  3400               	retlw	0
  3205  062B  3400               	retlw	0
  3206  062C  3400               	retlw	0
  3207  062D  347E               	retlw	126
  3208  062E  347E               	retlw	126
  3209  062F  347E               	retlw	126
  3210  0630  347E               	retlw	126
  3211  0631  347E               	retlw	126
  3212  0632  347E               	retlw	126
  3213  0633  347E               	retlw	126
  3214  0634  347E               	retlw	126
  3215  0635  347E               	retlw	126
  3216  0636  3400               	retlw	0
  3217  0637  3400               	retlw	0
  3218  0638  3400               	retlw	0
  3219  0639  3400               	retlw	0
  3220                           ;       param _x assigned to ?_LCD_PutChar+0
  3221  0000                     _LCD_PutChar$x	set	?_LCD_PutChar
  3222                           ;       param _y assigned to ?_LCD_PutChar+2
  3223  0000                     _LCD_PutChar$y	set	?_LCD_PutChar+2
  3224                           ;       param _c assigned to ?_LCD_PutChar+4
  3225  0000                     _LCD_PutChar$c	set	?_LCD_PutChar+4
  3226                           ;       param _fColor assigned to ?_LCD_PutChar
      +                          +5
  3227  0000                     _LCD_PutChar$fColor	set	?_LCD_PutChar+5
  3228                           ;       param _bColor assigned to ?_LCD_PutChar
      +                          +7
  3229  0000                     _LCD_PutChar$bColor	set	?_LCD_PutChar+7
  3230  063A                     _ch16
  3231  063A  34B1               	retlw	-79
  3232  063B  34B1               	retlw	-79
  3233  063C  3404               	retlw	4
  3234  063D  3440               	retlw	64
  3235  063E  3404               	retlw	4
  3236  063F  3440               	retlw	64
  3237  0640  3404               	retlw	4
  3238  0641  3440               	retlw	64
  3239  0642  3404               	retlw	4
  3240  0643  3444               	retlw	68
  3241  0644  3404               	retlw	4
  3242  0645  344E               	retlw	78
  3243  0646  347C               	retlw	124
  3244  0647  3458               	retlw	88
  3245  0648  3404               	retlw	4
  3246  0649  3460               	retlw	96
  3247  064A  3404               	retlw	4
  3248  064B  3440               	retlw	64
  3249  064C  3404               	retlw	4
  3250  064D  3440               	retlw	64
  3251  064E  3404               	retlw	4
  3252  064F  3440               	retlw	64
  3253  0650  340C               	retlw	12
  3254  0651  3440               	retlw	64
  3255  0652  3434               	retlw	52
  3256  0653  3442               	retlw	66
  3257  0654  34E4               	retlw	-28
  3258  0655  3442               	retlw	66
  3259  0656  3444               	retlw	68
  3260  0657  3442               	retlw	66
  3261  0658  3404               	retlw	4
  3262  0659  343E               	retlw	62
  3263  065A  3400               	retlw	0
  3264  065B  3400               	retlw	0
  3265  065C  34B7               	retlw	-73
  3266  065D  34BD               	retlw	-67
  3267  065E  3402               	retlw	2
  3268  065F  3400               	retlw	0
  3269  0660  3401               	retlw	1
  3270  0661  3400               	retlw	0
  3271  0662  3400               	retlw	0
  3272  0663  3480               	retlw	-128
  3273  0664  34FF               	retlw	-1
  3274  0665  34FE               	retlw	-2
  3275  0666  3402               	retlw	2
  3276  0667  3400               	retlw	0
  3277  0668  3402               	retlw	2
  3278  0669  3400               	retlw	0
  3279  066A  3403               	retlw	3
  3280  066B  34F0               	retlw	-16
  3281  066C  3402               	retlw	2
  3282  066D  3410               	retlw	16
  3283  066E  3404               	retlw	4
  3284  066F  3410               	retlw	16
  3285  0670  3404               	retlw	4
  3286  0671  3410               	retlw	16
  3287  0672  3408               	retlw	8
  3288  0673  3410               	retlw	16
  3289  0674  3408               	retlw	8
  3290  0675  3410               	retlw	16
  3291  0676  3410               	retlw	16
  3292  0677  3410               	retlw	16
  3293  0678  3420               	retlw	32
  3294  0679  3490               	retlw	-112
  3295  067A  34C0               	retlw	-64
  3296  067B  3460               	retlw	96
  3297  067C  3400               	retlw	0
  3298  067D  3400               	retlw	0
  3299  067E  34C0               	retlw	-64
  3300  067F  34B6               	retlw	-74
  3301  0680  3408               	retlw	8
  3302  0681  3440               	retlw	64
  3303  0682  3408               	retlw	8
  3304  0683  3440               	retlw	64
  3305  0684  34FF               	retlw	-1
  3306  0685  34FE               	retlw	-2
  3307  0686  3408               	retlw	8
  3308  0687  3440               	retlw	64
  3309  0688  3404               	retlw	4
  3310  0689  3480               	retlw	-128
  3311  068A  3424               	retlw	36
  3312  068B  34FC               	retlw	-4
  3313  068C  3424               	retlw	36
  3314  068D  34A0               	retlw	-96
  3315  068E  3425               	retlw	37
  3316  068F  3410               	retlw	16
  3317  0690  3426               	retlw	38
  3318  0691  3410               	retlw	16
  3319  0692  3404               	retlw	4
  3320  0693  3400               	retlw	0
  3321  0694  341F               	retlw	31
  3322  0695  34F0               	retlw	-16
  3323  0696  3412               	retlw	18
  3324  0697  3490               	retlw	-112
  3325  0698  3412               	retlw	18
  3326  0699  3490               	retlw	-112
  3327  069A  3412               	retlw	18
  3328  069B  3490               	retlw	-112
  3329  069C  34FF               	retlw	-1
  3330  069D  34FE               	retlw	-2
  3331  069E  3400               	retlw	0
  3332  069F  3400               	retlw	0
  3333  06A0  34D0               	retlw	-48
  3334  06A1  34BE               	retlw	-66
  3335  06A2  3404               	retlw	4
  3336  06A3  3420               	retlw	32
  3337  06A4  3404               	retlw	4
  3338  06A5  3420               	retlw	32
  3339  06A6  347F               	retlw	127
  3340  06A7  34FE               	retlw	-2
  3341  06A8  3404               	retlw	4
  3342  06A9  3420               	retlw	32
  3343  06AA  3404               	retlw	4
  3344  06AB  3420               	retlw	32
  3345  06AC  3402               	retlw	2
  3346  06AD  3400               	retlw	0
  3347  06AE  3401               	retlw	1
  3348  06AF  3400               	retlw	0
  3349  06B0  3409               	retlw	9
  3350  06B1  3490               	retlw	-112
  3351  06B2  3408               	retlw	8
  3352  06B3  3488               	retlw	-120
  3353  06B4  3448               	retlw	72
  3354  06B5  3484               	retlw	-124
  3355  06B6  3448               	retlw	72
  3356  06B7  3406               	retlw	6
  3357  06B8  3448               	retlw	72
  3358  06B9  3414               	retlw	20
  3359  06BA  3488               	retlw	-120
  3360  06BB  3410               	retlw	16
  3361  06BC  3408               	retlw	8
  3362  06BD  3418               	retlw	24
  3363  06BE  3407               	retlw	7
  3364  06BF  34F0               	retlw	-16
  3365  06C0  3400               	retlw	0
  3366  06C1  3400               	retlw	0
  3367  06C2  34BF               	retlw	-65
  3368  06C3  34C6               	retlw	-58
  3369  06C4  3406               	retlw	6
  3370  06C5  3408               	retlw	8
  3371  06C6  3478               	retlw	120
  3372  06C7  3488               	retlw	-120
  3373  06C8  3408               	retlw	8
  3374  06C9  3448               	retlw	72
  3375  06CA  3408               	retlw	8
  3376  06CB  3448               	retlw	72
  3377  06CC  34FE               	retlw	-2
  3378  06CD  3408               	retlw	8
  3379  06CE  3418               	retlw	24
  3380  06CF  3488               	retlw	-120
  3381  06D0  341C               	retlw	28
  3382  06D1  3448               	retlw	72
  3383  06D2  342A               	retlw	42
  3384  06D3  3448               	retlw	72
  3385  06D4  3428               	retlw	40
  3386  06D5  340E               	retlw	14
  3387  06D6  3448               	retlw	72
  3388  06D7  3478               	retlw	120
  3389  06D8  348B               	retlw	-117
  3390  06D9  3488               	retlw	-120
  3391  06DA  3408               	retlw	8
  3392  06DB  3408               	retlw	8
  3393  06DC  3408               	retlw	8
  3394  06DD  3408               	retlw	8
  3395  06DE  3408               	retlw	8
  3396  06DF  3408               	retlw	8
  3397  06E0  3408               	retlw	8
  3398  06E1  3408               	retlw	8
  3399  06E2  3408               	retlw	8
  3400  06E3  3408               	retlw	8
  3401  06E4  34BC               	retlw	-68
  3402  06E5  34BC               	retlw	-68
  3403  06E6  3410               	retlw	16
  3404  06E7  3420               	retlw	32
  3405  06E8  3410               	retlw	16
  3406  06E9  3420               	retlw	32
  3407  06EA  3410               	retlw	16
  3408  06EB  3420               	retlw	32
  3409  06EC  34FD               	retlw	-3
  3410  06ED  34FE               	retlw	-2
  3411  06EE  3410               	retlw	16
  3412  06EF  3420               	retlw	32
  3413  06F0  3414               	retlw	20
  3414  06F1  3420               	retlw	32
  3415  06F2  3419               	retlw	25
  3416  06F3  34FC               	retlw	-4
  3417  06F4  3431               	retlw	49
  3418  06F5  3408               	retlw	8
  3419  06F6  34D0               	retlw	-48
  3420  06F7  3488               	retlw	-120
  3421  06F8  3410               	retlw	16
  3422  06F9  3490               	retlw	-112
  3423  06FA  3410               	retlw	16
  3424  06FB  3460               	retlw	96
  3425  06FC  3410               	retlw	16
  3426  06FD  3460               	retlw	96
  3427  06FE  3410               	retlw	16
  3428  06FF  3490               	retlw	-112
  3429  0700  3411               	retlw	17
  3430  0701  340E               	retlw	14
  3431  0702  3456               	retlw	86
  3432  0703  3404               	retlw	4
  3433  0704  3420               	retlw	32
  3434  0705  3400               	retlw	0
  3435  0706  34BF               	retlw	-65
  3436  0707  34AA               	retlw	-86
  3437  0708  3400               	retlw	0
  3438  0709  3400               	retlw	0
  3439  070A  347F               	retlw	127
  3440  070B  34FE               	retlw	-2
  3441  070C  3404               	retlw	4
  3442  070D  3420               	retlw	32
  3443  070E  3404               	retlw	4
  3444  070F  3420               	retlw	32
  3445  0710  3404               	retlw	4
  3446  0711  3420               	retlw	32
  3447  0712  3404               	retlw	4
  3448  0713  3420               	retlw	32
  3449  0714  34FF               	retlw	-1
  3450  0715  34FE               	retlw	-2
  3451  0716  3404               	retlw	4
  3452  0717  3420               	retlw	32
  3453  0718  3404               	retlw	4
  3454  0719  3420               	retlw	32
  3455  071A  3404               	retlw	4
  3456  071B  3420               	retlw	32
  3457  071C  3408               	retlw	8
  3458  071D  3420               	retlw	32
  3459  071E  3408               	retlw	8
  3460  071F  3420               	retlw	32
  3461  0720  3410               	retlw	16
  3462  0721  3420               	retlw	32
  3463  0722  3420               	retlw	32
  3464  0723  3420               	retlw	32
  3465  0724  3440               	retlw	64
  3466  0725  3420               	retlw	32
  3467  0726  3400               	retlw	0
  3468  0727  3400               	retlw	0
  3469  0728  34B7               	retlw	-73
  3470  0729  34A2               	retlw	-94
  3471  072A  3402               	retlw	2
  3472  072B  3400               	retlw	0
  3473  072C  3422               	retlw	34
  3474  072D  3440               	retlw	64
  3475  072E  3422               	retlw	34
  3476  072F  3430               	retlw	48
  3477  0730  3422               	retlw	34
  3478  0731  3410               	retlw	16
  3479  0732  347F               	retlw	127
  3480  0733  34FE               	retlw	-2
  3481  0734  3424               	retlw	36
  3482  0735  3400               	retlw	0
  3483  0736  3404               	retlw	4
  3484  0737  3400               	retlw	0
  3485  0738  3407               	retlw	7
  3486  0739  34E0               	retlw	-32
  3487  073A  340C               	retlw	12
  3488  073B  3420               	retlw	32
  3489  073C  340A               	retlw	10
  3490  073D  3420               	retlw	32
  3491  073E  340A               	retlw	10
  3492  073F  3420               	retlw	32
  3493  0740  3411               	retlw	17
  3494  0741  3440               	retlw	64
  3495  0742  3420               	retlw	32
  3496  0743  3480               	retlw	-128
  3497  0744  3441               	retlw	65
  3498  0745  3460               	retlw	96
  3499  0746  3486               	retlw	-122
  3500  0747  341C               	retlw	28
  3501  0748  3418               	retlw	24
  3502  0749  3408               	retlw	8
  3503  074A  34D3               	retlw	-45
  3504  074B  34D0               	retlw	-48
  3505  074C  3401               	retlw	1
  3506  074D  3400               	retlw	0
  3507  074E  3401               	retlw	1
  3508  074F  3400               	retlw	0
  3509  0750  347F               	retlw	127
  3510  0751  34FE               	retlw	-2
  3511  0752  3402               	retlw	2
  3512  0753  3400               	retlw	0
  3513  0754  3404               	retlw	4
  3514  0755  3400               	retlw	0
  3515  0756  340F               	retlw	15
  3516  0757  34F0               	retlw	-16
  3517  0758  3418               	retlw	24
  3518  0759  3410               	retlw	16
  3519  075A  3428               	retlw	40
  3520  075B  3410               	retlw	16
  3521  075C  344F               	retlw	79
  3522  075D  34F0               	retlw	-16
  3523  075E  3488               	retlw	-120
  3524  075F  3410               	retlw	16
  3525  0760  3408               	retlw	8
  3526  0761  3410               	retlw	16
  3527  0762  340F               	retlw	15
  3528  0763  34F0               	retlw	-16
  3529  0764  3408               	retlw	8
  3530  0765  3410               	retlw	16
  3531  0766  3408               	retlw	8
  3532  0767  3490               	retlw	-112
  3533  0768  3408               	retlw	8
  3534  0769  3470               	retlw	112
  3535  076A  3408               	retlw	8
  3536  076B  3420               	retlw	32
  3537  076C  34CF               	retlw	-49
  3538  076D  34DE               	retlw	-34
  3539  076E  3400               	retlw	0
  3540  076F  3400               	retlw	0
  3541  0770  34FB               	retlw	-5
  3542  0771  34F8               	retlw	-8
  3543  0772  3492               	retlw	-110
  3544  0773  3408               	retlw	8
  3545  0774  3493               	retlw	-109
  3546  0775  34F8               	retlw	-8
  3547  0776  34A2               	retlw	-94
  3548  0777  3408               	retlw	8
  3549  0778  34A2               	retlw	-94
  3550  0779  3408               	retlw	8
  3551  077A  3493               	retlw	-109
  3552  077B  34F8               	retlw	-8
  3553  077C  348A               	retlw	-118
  3554  077D  3480               	retlw	-128
  3555  077E  348A               	retlw	-118
  3556  077F  3448               	retlw	72
  3557  0780  34AA               	retlw	-86
  3558  0781  3450               	retlw	80
  3559  0782  3492               	retlw	-110
  3560  0783  3420               	retlw	32
  3561  0784  3482               	retlw	-126
  3562  0785  3420               	retlw	32
  3563  0786  3482               	retlw	-126
  3564  0787  3410               	retlw	16
  3565  0788  3482               	retlw	-126
  3566  0789  348E               	retlw	-114
  3567  078A  3483               	retlw	-125
  3568  078B  3404               	retlw	4
  3569  078C  3482               	retlw	-126
  3570  078D  3400               	retlw	0
  3571  078E  34B9               	retlw	-71
  3572  078F  34AB               	retlw	-85
  3573  0790  3400               	retlw	0
  3574  0791  3400               	retlw	0
  3575  0792  3404               	retlw	4
  3576  0793  3440               	retlw	64
  3577  0794  3406               	retlw	6
  3578  0795  3440               	retlw	64
  3579  0796  3404               	retlw	4
  3580  0797  3440               	retlw	64
  3581  0798  3408               	retlw	8
  3582  0799  3420               	retlw	32
  3583  079A  3408               	retlw	8
  3584  079B  3410               	retlw	16
  3585  079C  3410               	retlw	16
  3586  079D  3418               	retlw	24
  3587  079E  3422               	retlw	34
  3588  079F  340E               	retlw	14
  3589  07A0  3443               	retlw	67
  3590  07A1  3404               	retlw	4
  3591  07A2  3402               	retlw	2
  3592  07A3  3400               	retlw	0
  3593  07A4  3404               	retlw	4
  3594  07A5  3420               	retlw	32
  3595  07A6  3408               	retlw	8
  3596  07A7  3410               	retlw	16
  3597  07A8  3411               	retlw	17
  3598  07A9  34F8               	retlw	-8
  3599  07AA  343F               	retlw	63
  3600  07AB  3418               	retlw	24
  3601  07AC  3410               	retlw	16
  3602  07AD  3410               	retlw	16
  3603  07AE  3400               	retlw	0
  3604  07AF  3400               	retlw	0
  3605  07B0  34CB               	retlw	-53
  3606  07B1  34BE               	retlw	-66
  3607  07B2  3400               	retlw	0
  3608  07B3  3400               	retlw	0
  3609  07B4  343F               	retlw	63
  3610  07B5  34FC               	retlw	-4
  3611  07B6  3400               	retlw	0
  3612  07B7  3404               	retlw	4
  3613  07B8  3400               	retlw	0
  3614  07B9  3404               	retlw	4
  3615  07BA  347F               	retlw	127
  3616  07BB  34E4               	retlw	-28
  3617  07BC  3400               	retlw	0
  3618  07BD  3404               	retlw	4
  3619  07BE  3400               	retlw	0
  3620  07BF  3404               	retlw	4
  3621  07C0  343F               	retlw	63
  3622  07C1  34C4               	retlw	-60
  3623  07C2  3420               	retlw	32
  3624  07C3  3444               	retlw	68
  3625  07C4  3420               	retlw	32
  3626  07C5  3444               	retlw	68
  3627  07C6  343F               	retlw	63
  3628  07C7  34C4               	retlw	-60
  3629  07C8  3420               	retlw	32
  3630  07C9  3444               	retlw	68
  3631  07CA  3420               	retlw	32
  3632  07CB  3404               	retlw	4
  3633  07CC  3400               	retlw	0
  3634  07CD  3414               	retlw	20
  3635  07CE  3400               	retlw	0
  3636  07CF  3408               	retlw	8
  3637  07D0  3400               	retlw	0
  3638  07D1  3400               	retlw	0
  3639  07D2  34D3               	retlw	-45
  3640  07D3  34EB               	retlw	-21
  3641  07D4  3400               	retlw	0
  3642  07D5  3400               	retlw	0
  3643  07D6  3408               	retlw	8
  3644  07D7  3400               	retlw	0
  3645  07D8  3408               	retlw	8
  3646  07D9  3404               	retlw	4
  3647  07DA  340F               	retlw	15
  3648  07DB  34FE               	retlw	-2
  3649  07DC  3408               	retlw	8
  3650  07DD  3400               	retlw	0
  3651  07DE  3408               	retlw	8
  3652  07DF  3400               	retlw	0
  3653  07E0  340F               	retlw	15
  3654  07E1  34FC               	retlw	-4
  3655  07E2  3400               	retlw	0
  3656  07E3  3404               	retlw	4
  3657  07E4  3400               	retlw	0
  3658  07E5  3404               	retlw	4
  3659  07E6  3400               	retlw	0
  3660  07E7  3424               	retlw	36
  3661  07E8  347F               	retlw	127
  3662  07E9  34F4               	retlw	-12
  3663  07EA  3400               	retlw	0
  3664  07EB  3404               	retlw	4
  3665  07EC  3400               	retlw	0
  3666  07ED  3404               	retlw	4
  3667  07EE  3400               	retlw	0
  3668  07EF  3448               	retlw	72
  3669  07F0  3400               	retlw	0
  3670  07F1  3430               	retlw	48
  3671  07F2  3400               	retlw	0
  3672  07F3  3400               	retlw	0
  3673  07F4  34C4               	retlw	-60
  3674  07F5  34FA               	retlw	-6
  3675  07F6  3408               	retlw	8
  3676  07F7  3400               	retlw	0
  3677  07F8  3409               	retlw	9
  3678  07F9  3400               	retlw	0
  3679  07FA  3411               	retlw	17
  3680  07FB  34FE               	retlw	-2
  3681  07FC  3412               	retlw	18
  3682  07FD  3404               	retlw	4
  3683  07FE  3434               	retlw	52
  3684  07FF  3440               	retlw	64
  3685  0800  3432               	retlw	50
  3686  0801  3450               	retlw	80
  3687  0802  3452               	retlw	82
  3688  0803  3448               	retlw	72
  3689  0804  3494               	retlw	-108
  3690  0805  3444               	retlw	68
  3691  0806  3411               	retlw	17
  3692  0807  3444               	retlw	68
  3693  0808  3410               	retlw	16
  3694  0809  3480               	retlw	-128
  3695  080A  3400               	retlw	0
  3696  080B  3400               	retlw	0
  3697  080C  3429               	retlw	41
  3698  080D  3404               	retlw	4
  3699  080E  3428               	retlw	40
  3700  080F  3492               	retlw	-110
  3701  0810  3468               	retlw	104
  3702  0811  3412               	retlw	18
  3703  0812  3407               	retlw	7
  3704  0813  34F0               	retlw	-16
  3705  0814  3400               	retlw	0
  3706  0815  3400               	retlw	0
  3707  0816  34CD               	retlw	-51
  3708  0817  34AC               	retlw	-84
  3709  0818  3400               	retlw	0
  3710  0819  3400               	retlw	0
  3711  081A  347F               	retlw	127
  3712  081B  34FC               	retlw	-4
  3713  081C  3440               	retlw	64
  3714  081D  3404               	retlw	4
  3715  081E  3440               	retlw	64
  3716  081F  3404               	retlw	4
  3717  0820  345F               	retlw	95
  3718  0821  34F4               	retlw	-12
  3719  0822  3440               	retlw	64
  3720  0823  3404               	retlw	4
  3721  0824  3440               	retlw	64
  3722  0825  3404               	retlw	4
  3723  0826  344F               	retlw	79
  3724  0827  34E4               	retlw	-28
  3725  0828  3448               	retlw	72
  3726  0829  3424               	retlw	36
  3727  082A  3448               	retlw	72
  3728  082B  3424               	retlw	36
  3729  082C  3448               	retlw	72
  3730  082D  3424               	retlw	36
  3731  082E  344F               	retlw	79
  3732  082F  34E4               	retlw	-28
  3733  0830  3448               	retlw	72
  3734  0831  3424               	retlw	36
  3735  0832  3440               	retlw	64
  3736  0833  3404               	retlw	4
  3737  0834  3440               	retlw	64
  3738  0835  3414               	retlw	20
  3739  0836  3440               	retlw	64
  3740  0837  3408               	retlw	8
  3741  0838  34D0               	retlw	-48
  3742  0839  34D0               	retlw	-48
  3743  083A  3408               	retlw	8
  3744  083B  3400               	retlw	0
  3745  083C  341C               	retlw	28
  3746  083D  3400               	retlw	0
  3747  083E  3431               	retlw	49
  3748  083F  34FC               	retlw	-4
  3749  0840  3440               	retlw	64
  3750  0841  3400               	retlw	0
  3751  0842  3488               	retlw	-120
  3752  0843  3400               	retlw	0
  3753  0844  340C               	retlw	12
  3754  0845  3400               	retlw	0
  3755  0846  341B               	retlw	27
  3756  0847  34FE               	retlw	-2
  3757  0848  3430               	retlw	48
  3758  0849  3420               	retlw	32
  3759  084A  3450               	retlw	80
  3760  084B  3420               	retlw	32
  3761  084C  3490               	retlw	-112
  3762  084D  3420               	retlw	32
  3763  084E  3410               	retlw	16
  3764  084F  3420               	retlw	32
  3765  0850  3410               	retlw	16
  3766  0851  3420               	retlw	32
  3767  0852  3410               	retlw	16
  3768  0853  3420               	retlw	32
  3769  0854  3410               	retlw	16
  3770  0855  3420               	retlw	32
  3771  0856  3410               	retlw	16
  3772  0857  34A0               	retlw	-96
  3773  0858  3410               	retlw	16
  3774  0859  3440               	retlw	64
  3775                           ;       param _x assigned to ?_Put16x16+0
  3776  0000                     _Put16x16$x	set	?_Put16x16
  3777                           ;       param _y assigned to ?_Put16x16+2
  3778  0000                     _Put16x16$y	set	?_Put16x16+2
  3779                           ;       param _g assigned to ?_Put16x16+4
  3780  0000                     _Put16x16$g	set	?_Put16x16+4
  3781                           ;       param _fColor assigned to ?_Put16x16+5
  3782  0000                     _Put16x16$fColor	set	?_Put16x16+5
  3783                           ;       param _bColor assigned to ?_Put16x16+7
  3784  0000                     _Put16x16$bColor	set	?_Put16x16+7
  3785                           
  3786                           	psect	text10
  3787  15B0                     _Show_RGB
  3788                           ;	_i assigned to ?a_Show_RGB+0
  3789  0000                     _Show_RGB$i	set	?a_Show_RGB
  3790                           ;	_j assigned to ?a_Show_RGB+2
  3791  0000                     _Show_RGB$j	set	?a_Show_RGB+2
  3792                           ;NBCTFT.C: 247: void Show_RGB (unsigned int x0,
      +                          unsigned int x1,unsigned int y0,unsigned int y1
      +                          ,unsigned int Color)
  3793  15B0  0183               	clrf	3	;select bank 0
  3794  15B1  082A               	movf	?_Show_RGB,w
  3795  15B2  00CC               	movwf	?_LCD_SetPos
  3796  15B3  082B               	movf	?_Show_RGB+1,w
  3797  15B4  00CD               	movwf	?_LCD_SetPos+1
  3798  15B5  082C               	movf	?_Show_RGB+2,w
  3799  15B6  00CE               	movwf	?_LCD_SetPos+2
  3800  15B7  082D               	movf	?_Show_RGB+3,w
  3801  15B8  00CF               	movwf	?_LCD_SetPos+3
  3802  15B9  082E               	movf	?_Show_RGB+4,w
  3803  15BA  00D0               	movwf	?_LCD_SetPos+4
  3804  15BB  082F               	movf	?_Show_RGB+5,w
  3805  15BC  00D1               	movwf	?_LCD_SetPos+5
  3806  15BD  0830               	movf	?_Show_RGB+6,w
  3807  15BE  00D2               	movwf	?_LCD_SetPos+6
  3808  15BF  0831               	movf	?_Show_RGB+7,w
  3809  15C0  00D3               	movwf	?_LCD_SetPos+7
  3810  15C1  120A  158A  20A1   	fcall	_LCD_SetPos
      +       160A  118A         
  3811                           ;NBCTFT.C: 251: for (i=y0;i<=y1;i++)
  3812  15C6  082E               	movf	?_Show_RGB+4,w
  3813  15C7  00AA               	movwf	?a_Show_RGB
  3814  15C8  082F               	movf	?_Show_RGB+5,w
  3815  15C9  00AB               	movwf	?a_Show_RGB+1
  3816  15CA  2DE7               	goto	l54
  3817  15CB                     l51
  3818                           ;NBCTFT.C: 252: {
  3819  15CB  082A               	movf	?_Show_RGB,w
  3820  15CC  00AC               	movwf	?a_Show_RGB+2
  3821  15CD  082B               	movf	?_Show_RGB+1,w
  3822  15CE  00AD               	movwf	?a_Show_RGB+3
  3823  15CF                     l58
  3824  15CF  082D               	movf	?a_Show_RGB+3,w
  3825  15D0  022D               	subwf	?_Show_RGB+3,w
  3826  15D1  1D03               	btfss	3,2
  3827  15D2  2DD5               	goto	u175
  3828  15D3  082C               	movf	?a_Show_RGB+2,w
  3829  15D4  022C               	subwf	?_Show_RGB+2,w
  3830  15D5                     u175
  3831  15D5  1C03               	btfss	3,0
  3832  15D6  2DE4               	goto	l56
  3833                           ;NBCTFT.C: 254: Write_Data_U16(Color);
  3834  15D7  0832               	movf	?_Show_RGB+8,w
  3835  15D8  00CC               	movwf	?_Write_Data_U16
  3836  15D9  0833               	movf	?_Show_RGB+9,w
  3837  15DA  00CD               	movwf	?_Write_Data_U16+1
  3838  15DB  120A  158A  207C   	fcall	_Write_Data_U16
      +       160A  118A         
  3839  15E0  0AAC               	incf	?a_Show_RGB+2
  3840  15E1  1903               	btfsc	3,2
  3841  15E2  0AAD               	incf	?a_Show_RGB+3
  3842  15E3  2DCF               	goto	l58
  3843  15E4                     l56
  3844  15E4  0AAA               	incf	?a_Show_RGB
  3845  15E5  1903               	btfsc	3,2
  3846  15E6  0AAB               	incf	?a_Show_RGB+1
  3847  15E7                     l54
  3848  15E7  082B               	movf	?a_Show_RGB+1,w
  3849  15E8  0231               	subwf	?_Show_RGB+7,w
  3850  15E9  1D03               	btfss	3,2
  3851  15EA  2DED               	goto	u185
  3852  15EB  082A               	movf	?a_Show_RGB,w
  3853  15EC  0230               	subwf	?_Show_RGB+6,w
  3854  15ED                     u185
  3855  15ED  1C03               	btfss	3,0
  3856  15EE  0008               	return
  3857  15EF  2DCB               	goto	l51
  3858                           
  3859                           	psect	text12
  3860  1562                     _Put_pixel
  3861                           ;NBCTFT.C: 493: void Put_pixel(unsigned int x,u
      +                          nsigned int y,unsigned int color)
  3862  1562  0183               	clrf	3	;select bank 0
  3863  1563  082A               	movf	?_Put_pixel,w
  3864  1564  00CC               	movwf	?_LCD_SetPos
  3865  1565  082B               	movf	?_Put_pixel+1,w
  3866  1566  00CD               	movwf	?_LCD_SetPos+1
  3867  1567  082A               	movf	?_Put_pixel,w
  3868  1568  00CE               	movwf	?_LCD_SetPos+2
  3869  1569  082B               	movf	?_Put_pixel+1,w
  3870  156A  00CF               	movwf	?_LCD_SetPos+3
  3871  156B  082C               	movf	?_Put_pixel+2,w
  3872  156C  00D0               	movwf	?_LCD_SetPos+4
  3873  156D  082D               	movf	?_Put_pixel+3,w
  3874  156E  00D1               	movwf	?_LCD_SetPos+5
  3875  156F  082C               	movf	?_Put_pixel+2,w
  3876  1570  00D2               	movwf	?_LCD_SetPos+6
  3877  1571  082D               	movf	?_Put_pixel+3,w
  3878  1572  00D3               	movwf	?_LCD_SetPos+7
  3879  1573  120A  158A  20A1   	fcall	_LCD_SetPos
      +       160A  118A         
  3880                           ;NBCTFT.C: 496: Write_Data_U16(color);
  3881  1578  082E               	movf	?_Put_pixel+4,w
  3882  1579  00CC               	movwf	?_Write_Data_U16
  3883  157A  082F               	movf	?_Put_pixel+5,w
  3884  157B  00CD               	movwf	?_Write_Data_U16+1
  3885  157C  120A  158A  287C   	ljmp	_Write_Data_U16
  3886                           
  3887                           	psect	text13
  3888  0000                     
  3889  0000                     
  3890  0000                     
  3891  0000                     
  3892  0000                     
  3893  0000                     
  3894  0000                     
  3895  0000                     
  3896  0000                     
  3897  0000                     
  3898  0000                     
  3899  0000                     
  3900  0000                     
  3901  0000                     
  3902  0000                     
  3903  0000                     
  3904  0000                     
  3905  0000                     
  3906  0000                     
  3907  0000                     
  3908  0000                     
  3909  0000                     
  3910  0000                     
  3911  0000                     
  3912  0000                     
  3913  0000                     
  3914  0000                     
  3915  0000                     
  3916  0000                     
  3917  0000                     
  3918  0000                     
  3919  0000                     
  3920  0000                     
  3921  0000                     
  3922  0000                     
  3923  0000                     
  3924  0000                     
  3925  0000                     
  3926  0000                     
  3927  0000                     
  3928  0000                     
  3929  0000                     
  3930  0000                     
  3931  0000                     
  3932  0000                     
  3933  0000                     
  3934  0000                     
  3935  0000                     
  3936  0000                     
  3937  0000                     
  3938  0000                     
  3939  0000                     
  3940  0000                     
  3941  0000                     
  3942  0000                     
  3943  0000                     
  3944  0000                     
  3945  0000                     
  3946  0000                     
  3947  0000                     
  3948  0000                     
  3949  0000                     
  3950  0000                     
  3951  0000                     
  3952  0000                     
  3953  0000                     
  3954  0000                     
  3955  0000                     
  3956  0000                     
  3957  0000                     
  3958  0000                     
  3959  0000                     
  3960  0000                     
  3961  0000                     
  3962  0000                     
  3963  0000                     
  3964  0000                     
  3965  0000                     
  3966  0000                     
  3967  0000                     
  3968  0000                     
  3969  0000                     
  3970  0000                     
  3971  0000                     
  3972  0000                     
  3973  0000                     
  3974  0000                     
  3975  0000                     
  3976  0000                     
  3977  0000                     
  3978  0000                     
  3979  0000                     
  3980  0000                     
  3981  0000                     
  3982  0000                     
  3983  0000                     
  3984  0000                     
  3985  0000                     
  3986  0000                     
  3987  0000                     
  3988  0000                     
  3989  0000                     
  3990  0000                     
  3991  0000                     
  3992  0000                     
  3993  0000                     
  3994  0000                     
  3995  0000                     
  3996  0000                     
  3997  0000                     
  3998  0000                     
  3999  0000                     
  4000  0000                     
  4001  0000                     
  4002  0000                     
  4003  0000                     
  4004  0000                     
  4005  0000                     
  4006  0000                     
  4007  0000                     
  4008  0000                     
  4009  0000                     
  4010  0000                     
  4011  0000                     
  4012  0000                     
  4013  0000                     
  4014  0000                     
  4015  0000                     
  4016  0000                     
  4017  0000                     
  4018  0000                     
  4019  0000                     
  4020  0000                     
  4021  0000                     
  4022  0000                     
  4023  0000                     
  4024  0000                     
  4025  0000                     
  4026  0000                     
  4027  0000                     
  4028  0000                     
  4029  0000                     
  4030  0000                     
  4031  0000                     
  4032  0000                     
  4033  0000                     
  4034  0000                     
  4035  0000                     
  4036  0000                     
  4037  0000                     
  4038  0000                     
  4039  0000                     
  4040  0000                     
  4041  0000                     
  4042  0000                     
  4043  0000                     
  4044  0000                     
  4045  0000                     
  4046  0000                     
  4047  0000                     
  4048  0000                     
  4049  0000                     
  4050  0000                     
  4051  0000                     
  4052  0000                     
  4053  0000                     
  4054  0000                     
  4055  0000                     
  4056  0000                     
  4057  0000                     
  4058  0000                     
  4059  0000                     
  4060  0000                     
  4061  0000                     
  4062  0000                     
  4063  0000                     
  4064  0000                     
  4065  0000                     
  4066  0000                     
  4067  0000                     
  4068  0000                     
  4069  0000                     
  4070  0000                     
  4071  0000                     
  4072  0000                     
  4073  0000                     
  4074  0000                     
  4075  0000                     
  4076  0000                     
  4077  0000                     
  4078  0000                     
  4079  0000                     
  4080  0000                     
  4081  0000                     
  4082  0000                     
  4083  0000                     
  4084  0000                     
  4085  0000                     
  4086  0000                     
  4087  0000                     
  4088  0000                     
  4089  0000                     
  4090  0000                     
  4091  0000                     
  4092  0000                     
  4093  0000                     
  4094  0000                     
  4095  0000                     
  4096  0000                     
  4097  0000                     
  4098  0000                     
  4099  0000                     
  4100  0000                     
  4101  0000                     
  4102  0000                     
  4103  0000                     
  4104  0000                     
  4105  0000                     
  4106  0000                     
  4107  0000                     
  4108  0000                     
  4109  0000                     
  4110  0000                     
  4111  0000                     
  4112  0000                     
  4113  0000                     
  4114  0000                     
  4115  0000                     
  4116  0000                     
  4117  0000                     
  4118  0000                     
  4119  0000                     
  4120  0000                     
  4121  0000                     
  4122  0000                     
  4123  0000                     
  4124  0000                     
  4125  0000                     
  4126  0000                     
  4127  0000                     
  4128  0000                     
  4129  0000                     
  4130  0000                     
  4131  0000                     
  4132  0000                     
  4133  0000                     
  4134  0000                     
  4135  0000                     
  4136  0000                     
  4137  0000                     
  4138  0000                     
  4139  0000                     
  4140  0000                     
  4141  0000                     
  4142  0000                     
  4143  0000                     
  4144  0000                     
  4145  0000                     
  4146  0000                     
  4147  0000                     
  4148  0000                     
  4149  0000                     
  4150  0000                     
  4151  0000                     
  4152  0000                     
  4153  0000                     
  4154  0000                     
  4155  0000                     
  4156  0000                     
  4157  0000                     
  4158  0000                     
  4159  0000                     
  4160  0000                     
  4161  0000                     
  4162  0000                     
  4163  0000                     
  4164  0000                     
  4165                           
  4166                           	psect	temp
  4167  0074                     btemp
                     btemp
  4168  0074                     	ds	6


HI-TECH Software PICC Macro Assembler V9.60
Symbol Table                                          Thu Dec 13 10:04:37 2012

                   l2 08DA                     l5 08EC  
                   l6 08DC             ?_Show_RGB 002A  
                  l22 0E09                    l15 1590  
                  l32 0D58                    l25 0E30  
                  l42 0DC4                    l18 1592  
                  l51 15CB                    l35 0DE2  
                  l60 0A5E                    l36 0D9A  
                  l28 0E36                    l45 0EBD  
                  l62 0BB8                    l54 15E7  
                  l46 0E58                    l39 0DBE  
                  l56 15E4                    l48 0E89  
                  l58 15CF                    u25 08F2  
                  fsr 0004         ?a_LCD_PutChar 0042  
            ?_delayms 002A                   u175 15D5  
                 u185 15ED           _TFT_Initial 08F5  
          ?a_Put16x16 0042           _Device_code 0020  
           ?a_delayms 002C           ?_CLR_Screen 002A  
          ?_Put_pixel 002A                  f2863 0047  
          ?a_Show_RGB 002A                  f2883 004A  
                f2893 0037           ?_LCD_SetPos 004C  
                _ch16 063A         _LCD_PutString 0E54  
                btemp 0074            ?_Write_Cmd 0059  
          _CLR_Screen 157F                  lwmul 154D  
          _LCD_SetPos 08A1          ?a_Write_Data 005A  
     ?a_LCD_PutString 0033        ?_LCD_PutString 002A  
             _delayms 08D6        _Write_Data_U16 087C  
      _Write_Cmd_Data 0893          ?_LCD_PutChar 0039  
             code_ptr 005B           string_table 0024  
         ?_Write_Data 0059              _Font8x16 003A  
         ?a_Write_Cmd 005A                 status 0003  
    ?a_Write_Data_U16 004E      ?a_Write_Cmd_Data 0056  
            _Put16x16 0D3C            _Write_Data 086E  
           _Put_pixel 1562           _LCD_PutChar 0DED  
     ?_Write_Data_U16 004C       ?_Write_Cmd_Data 0054  
            _Show_RGB 15B0             _Write_Cmd 0884  
        used_code_ptr 0001          ?a_CLR_Screen 002C  
          used_btemp0 0001            used_btemp1 0001  
          used_btemp2 0001            used_btemp3 0001  
          used_btemp4 0001            used_btemp5 0001  
           ?_Put16x16 0039  
